
STM32L432KC_MFP_HID_VCP.elf:     file format elf32-littlearm

Sections:
Idx Name          Size      VMA       LMA       File off  Algn
  0 .isr_vector   0000018c  08000000  08000000  00010000  2**0
                  CONTENTS, ALLOC, LOAD, READONLY, DATA
  1 .text         000044b0  0800018c  0800018c  0001018c  2**2
                  CONTENTS, ALLOC, LOAD, READONLY, CODE
  2 .rodata       0000010c  0800463c  0800463c  0001463c  2**2
                  CONTENTS, ALLOC, LOAD, READONLY, DATA
  3 .ARM          00000008  08004748  08004748  00014748  2**2
                  CONTENTS, ALLOC, LOAD, READONLY, DATA
  4 .init_array   00000004  08004750  08004750  00014750  2**2
                  CONTENTS, ALLOC, LOAD, DATA
  5 .fini_array   00000004  08004754  08004754  00014754  2**2
                  CONTENTS, ALLOC, LOAD, DATA
  6 .data         00000250  20000000  08004758  00020000  2**2
                  CONTENTS, ALLOC, LOAD, DATA
  7 .bss          00001a08  20000250  080049a8  00020250  2**2
                  ALLOC
  8 ._user_heap_stack 00000600  20001c58  080049a8  00021c58  2**0
                  ALLOC
  9 .ARM.attributes 00000030  00000000  00000000  00020250  2**0
                  CONTENTS, READONLY
 10 .debug_info   0002991d  00000000  00000000  00020280  2**0
                  CONTENTS, READONLY, DEBUGGING
 11 .debug_abbrev 000050f0  00000000  00000000  00049b9d  2**0
                  CONTENTS, READONLY, DEBUGGING
 12 .debug_loc    0000bf96  00000000  00000000  0004ec8d  2**0
                  CONTENTS, READONLY, DEBUGGING
 13 .debug_aranges 000011d0  00000000  00000000  0005ac28  2**3
                  CONTENTS, READONLY, DEBUGGING
 14 .debug_ranges 00001520  00000000  00000000  0005bdf8  2**3
                  CONTENTS, READONLY, DEBUGGING
 15 .debug_line   0000a31d  00000000  00000000  0005d318  2**0
                  CONTENTS, READONLY, DEBUGGING
 16 .debug_str    0000643a  00000000  00000000  00067635  2**0
                  CONTENTS, READONLY, DEBUGGING
 17 .comment      0000007c  00000000  00000000  0006da6f  2**0
                  CONTENTS, READONLY
 18 .debug_frame  00002fec  00000000  00000000  0006daec  2**2
                  CONTENTS, READONLY, DEBUGGING

Disassembly of section .text:

0800018c <__do_global_dtors_aux>:
 800018c:	b510      	push	{r4, lr}
 800018e:	4c05      	ldr	r4, [pc, #20]	; (80001a4 <__do_global_dtors_aux+0x18>)
 8000190:	7823      	ldrb	r3, [r4, #0]
 8000192:	b933      	cbnz	r3, 80001a2 <__do_global_dtors_aux+0x16>
 8000194:	4b04      	ldr	r3, [pc, #16]	; (80001a8 <__do_global_dtors_aux+0x1c>)
 8000196:	b113      	cbz	r3, 800019e <__do_global_dtors_aux+0x12>
 8000198:	4804      	ldr	r0, [pc, #16]	; (80001ac <__do_global_dtors_aux+0x20>)
 800019a:	f3af 8000 	nop.w
 800019e:	2301      	movs	r3, #1
 80001a0:	7023      	strb	r3, [r4, #0]
 80001a2:	bd10      	pop	{r4, pc}
 80001a4:	20000250 	.word	0x20000250
 80001a8:	00000000 	.word	0x00000000
 80001ac:	08004624 	.word	0x08004624

080001b0 <frame_dummy>:
 80001b0:	b508      	push	{r3, lr}
 80001b2:	4b03      	ldr	r3, [pc, #12]	; (80001c0 <frame_dummy+0x10>)
 80001b4:	b11b      	cbz	r3, 80001be <frame_dummy+0xe>
 80001b6:	4903      	ldr	r1, [pc, #12]	; (80001c4 <frame_dummy+0x14>)
 80001b8:	4803      	ldr	r0, [pc, #12]	; (80001c8 <frame_dummy+0x18>)
 80001ba:	f3af 8000 	nop.w
 80001be:	bd08      	pop	{r3, pc}
 80001c0:	00000000 	.word	0x00000000
 80001c4:	20000254 	.word	0x20000254
 80001c8:	08004624 	.word	0x08004624

080001cc <__aeabi_uldivmod>:
 80001cc:	b953      	cbnz	r3, 80001e4 <__aeabi_uldivmod+0x18>
 80001ce:	b94a      	cbnz	r2, 80001e4 <__aeabi_uldivmod+0x18>
 80001d0:	2900      	cmp	r1, #0
 80001d2:	bf08      	it	eq
 80001d4:	2800      	cmpeq	r0, #0
 80001d6:	bf1c      	itt	ne
 80001d8:	f04f 31ff 	movne.w	r1, #4294967295
 80001dc:	f04f 30ff 	movne.w	r0, #4294967295
 80001e0:	f000 b97a 	b.w	80004d8 <__aeabi_idiv0>
 80001e4:	f1ad 0c08 	sub.w	ip, sp, #8
 80001e8:	e96d ce04 	strd	ip, lr, [sp, #-16]!
 80001ec:	f000 f806 	bl	80001fc <__udivmoddi4>
 80001f0:	f8dd e004 	ldr.w	lr, [sp, #4]
 80001f4:	e9dd 2302 	ldrd	r2, r3, [sp, #8]
 80001f8:	b004      	add	sp, #16
 80001fa:	4770      	bx	lr

080001fc <__udivmoddi4>:
 80001fc:	e92d 47f0 	stmdb	sp!, {r4, r5, r6, r7, r8, r9, sl, lr}
 8000200:	468c      	mov	ip, r1
 8000202:	460d      	mov	r5, r1
 8000204:	4604      	mov	r4, r0
 8000206:	9e08      	ldr	r6, [sp, #32]
 8000208:	2b00      	cmp	r3, #0
 800020a:	d151      	bne.n	80002b0 <__udivmoddi4+0xb4>
 800020c:	428a      	cmp	r2, r1
 800020e:	4617      	mov	r7, r2
 8000210:	d96d      	bls.n	80002ee <__udivmoddi4+0xf2>
 8000212:	fab2 fe82 	clz	lr, r2
 8000216:	f1be 0f00 	cmp.w	lr, #0
 800021a:	d00b      	beq.n	8000234 <__udivmoddi4+0x38>
 800021c:	f1ce 0c20 	rsb	ip, lr, #32
 8000220:	fa01 f50e 	lsl.w	r5, r1, lr
 8000224:	fa20 fc0c 	lsr.w	ip, r0, ip
 8000228:	fa02 f70e 	lsl.w	r7, r2, lr
 800022c:	ea4c 0c05 	orr.w	ip, ip, r5
 8000230:	fa00 f40e 	lsl.w	r4, r0, lr
 8000234:	ea4f 4a17 	mov.w	sl, r7, lsr #16
 8000238:	0c25      	lsrs	r5, r4, #16
 800023a:	fbbc f8fa 	udiv	r8, ip, sl
 800023e:	fa1f f987 	uxth.w	r9, r7
 8000242:	fb0a cc18 	mls	ip, sl, r8, ip
 8000246:	ea45 450c 	orr.w	r5, r5, ip, lsl #16
 800024a:	fb08 f309 	mul.w	r3, r8, r9
 800024e:	42ab      	cmp	r3, r5
 8000250:	d90a      	bls.n	8000268 <__udivmoddi4+0x6c>
 8000252:	19ed      	adds	r5, r5, r7
 8000254:	f108 32ff 	add.w	r2, r8, #4294967295
 8000258:	f080 8123 	bcs.w	80004a2 <__udivmoddi4+0x2a6>
 800025c:	42ab      	cmp	r3, r5
 800025e:	f240 8120 	bls.w	80004a2 <__udivmoddi4+0x2a6>
 8000262:	f1a8 0802 	sub.w	r8, r8, #2
 8000266:	443d      	add	r5, r7
 8000268:	1aed      	subs	r5, r5, r3
 800026a:	b2a4      	uxth	r4, r4
 800026c:	fbb5 f0fa 	udiv	r0, r5, sl
 8000270:	fb0a 5510 	mls	r5, sl, r0, r5
 8000274:	ea44 4405 	orr.w	r4, r4, r5, lsl #16
 8000278:	fb00 f909 	mul.w	r9, r0, r9
 800027c:	45a1      	cmp	r9, r4
 800027e:	d909      	bls.n	8000294 <__udivmoddi4+0x98>
 8000280:	19e4      	adds	r4, r4, r7
 8000282:	f100 33ff 	add.w	r3, r0, #4294967295
 8000286:	f080 810a 	bcs.w	800049e <__udivmoddi4+0x2a2>
 800028a:	45a1      	cmp	r9, r4
 800028c:	f240 8107 	bls.w	800049e <__udivmoddi4+0x2a2>
 8000290:	3802      	subs	r0, #2
 8000292:	443c      	add	r4, r7
 8000294:	eba4 0409 	sub.w	r4, r4, r9
 8000298:	ea40 4008 	orr.w	r0, r0, r8, lsl #16
 800029c:	2100      	movs	r1, #0
 800029e:	2e00      	cmp	r6, #0
 80002a0:	d061      	beq.n	8000366 <__udivmoddi4+0x16a>
 80002a2:	fa24 f40e 	lsr.w	r4, r4, lr
 80002a6:	2300      	movs	r3, #0
 80002a8:	6034      	str	r4, [r6, #0]
 80002aa:	6073      	str	r3, [r6, #4]
 80002ac:	e8bd 87f0 	ldmia.w	sp!, {r4, r5, r6, r7, r8, r9, sl, pc}
 80002b0:	428b      	cmp	r3, r1
 80002b2:	d907      	bls.n	80002c4 <__udivmoddi4+0xc8>
 80002b4:	2e00      	cmp	r6, #0
 80002b6:	d054      	beq.n	8000362 <__udivmoddi4+0x166>
 80002b8:	2100      	movs	r1, #0
 80002ba:	e886 0021 	stmia.w	r6, {r0, r5}
 80002be:	4608      	mov	r0, r1
 80002c0:	e8bd 87f0 	ldmia.w	sp!, {r4, r5, r6, r7, r8, r9, sl, pc}
 80002c4:	fab3 f183 	clz	r1, r3
 80002c8:	2900      	cmp	r1, #0
 80002ca:	f040 808e 	bne.w	80003ea <__udivmoddi4+0x1ee>
 80002ce:	42ab      	cmp	r3, r5
 80002d0:	d302      	bcc.n	80002d8 <__udivmoddi4+0xdc>
 80002d2:	4282      	cmp	r2, r0
 80002d4:	f200 80fa 	bhi.w	80004cc <__udivmoddi4+0x2d0>
 80002d8:	1a84      	subs	r4, r0, r2
 80002da:	eb65 0503 	sbc.w	r5, r5, r3
 80002de:	2001      	movs	r0, #1
 80002e0:	46ac      	mov	ip, r5
 80002e2:	2e00      	cmp	r6, #0
 80002e4:	d03f      	beq.n	8000366 <__udivmoddi4+0x16a>
 80002e6:	e886 1010 	stmia.w	r6, {r4, ip}
 80002ea:	e8bd 87f0 	ldmia.w	sp!, {r4, r5, r6, r7, r8, r9, sl, pc}
 80002ee:	b912      	cbnz	r2, 80002f6 <__udivmoddi4+0xfa>
 80002f0:	2701      	movs	r7, #1
 80002f2:	fbb7 f7f2 	udiv	r7, r7, r2
 80002f6:	fab7 fe87 	clz	lr, r7
 80002fa:	f1be 0f00 	cmp.w	lr, #0
 80002fe:	d134      	bne.n	800036a <__udivmoddi4+0x16e>
 8000300:	1beb      	subs	r3, r5, r7
 8000302:	0c3a      	lsrs	r2, r7, #16
 8000304:	fa1f fc87 	uxth.w	ip, r7
 8000308:	2101      	movs	r1, #1
 800030a:	fbb3 f8f2 	udiv	r8, r3, r2
 800030e:	0c25      	lsrs	r5, r4, #16
 8000310:	fb02 3318 	mls	r3, r2, r8, r3
 8000314:	ea45 4503 	orr.w	r5, r5, r3, lsl #16
 8000318:	fb0c f308 	mul.w	r3, ip, r8
 800031c:	42ab      	cmp	r3, r5
 800031e:	d907      	bls.n	8000330 <__udivmoddi4+0x134>
 8000320:	19ed      	adds	r5, r5, r7
 8000322:	f108 30ff 	add.w	r0, r8, #4294967295
 8000326:	d202      	bcs.n	800032e <__udivmoddi4+0x132>
 8000328:	42ab      	cmp	r3, r5
 800032a:	f200 80d1 	bhi.w	80004d0 <__udivmoddi4+0x2d4>
 800032e:	4680      	mov	r8, r0
 8000330:	1aed      	subs	r5, r5, r3
 8000332:	b2a3      	uxth	r3, r4
 8000334:	fbb5 f0f2 	udiv	r0, r5, r2
 8000338:	fb02 5510 	mls	r5, r2, r0, r5
 800033c:	ea43 4405 	orr.w	r4, r3, r5, lsl #16
 8000340:	fb0c fc00 	mul.w	ip, ip, r0
 8000344:	45a4      	cmp	ip, r4
 8000346:	d907      	bls.n	8000358 <__udivmoddi4+0x15c>
 8000348:	19e4      	adds	r4, r4, r7
 800034a:	f100 33ff 	add.w	r3, r0, #4294967295
 800034e:	d202      	bcs.n	8000356 <__udivmoddi4+0x15a>
 8000350:	45a4      	cmp	ip, r4
 8000352:	f200 80b8 	bhi.w	80004c6 <__udivmoddi4+0x2ca>
 8000356:	4618      	mov	r0, r3
 8000358:	eba4 040c 	sub.w	r4, r4, ip
 800035c:	ea40 4008 	orr.w	r0, r0, r8, lsl #16
 8000360:	e79d      	b.n	800029e <__udivmoddi4+0xa2>
 8000362:	4631      	mov	r1, r6
 8000364:	4630      	mov	r0, r6
 8000366:	e8bd 87f0 	ldmia.w	sp!, {r4, r5, r6, r7, r8, r9, sl, pc}
 800036a:	f1ce 0420 	rsb	r4, lr, #32
 800036e:	fa05 f30e 	lsl.w	r3, r5, lr
 8000372:	fa07 f70e 	lsl.w	r7, r7, lr
 8000376:	fa20 f804 	lsr.w	r8, r0, r4
 800037a:	0c3a      	lsrs	r2, r7, #16
 800037c:	fa25 f404 	lsr.w	r4, r5, r4
 8000380:	ea48 0803 	orr.w	r8, r8, r3
 8000384:	fbb4 f1f2 	udiv	r1, r4, r2
 8000388:	ea4f 4518 	mov.w	r5, r8, lsr #16
 800038c:	fb02 4411 	mls	r4, r2, r1, r4
 8000390:	fa1f fc87 	uxth.w	ip, r7
 8000394:	ea45 4504 	orr.w	r5, r5, r4, lsl #16
 8000398:	fb01 f30c 	mul.w	r3, r1, ip
 800039c:	42ab      	cmp	r3, r5
 800039e:	fa00 f40e 	lsl.w	r4, r0, lr
 80003a2:	d909      	bls.n	80003b8 <__udivmoddi4+0x1bc>
 80003a4:	19ed      	adds	r5, r5, r7
 80003a6:	f101 30ff 	add.w	r0, r1, #4294967295
 80003aa:	f080 808a 	bcs.w	80004c2 <__udivmoddi4+0x2c6>
 80003ae:	42ab      	cmp	r3, r5
 80003b0:	f240 8087 	bls.w	80004c2 <__udivmoddi4+0x2c6>
 80003b4:	3902      	subs	r1, #2
 80003b6:	443d      	add	r5, r7
 80003b8:	1aeb      	subs	r3, r5, r3
 80003ba:	fa1f f588 	uxth.w	r5, r8
 80003be:	fbb3 f0f2 	udiv	r0, r3, r2
 80003c2:	fb02 3310 	mls	r3, r2, r0, r3
 80003c6:	ea45 4503 	orr.w	r5, r5, r3, lsl #16
 80003ca:	fb00 f30c 	mul.w	r3, r0, ip
 80003ce:	42ab      	cmp	r3, r5
 80003d0:	d907      	bls.n	80003e2 <__udivmoddi4+0x1e6>
 80003d2:	19ed      	adds	r5, r5, r7
 80003d4:	f100 38ff 	add.w	r8, r0, #4294967295
 80003d8:	d26f      	bcs.n	80004ba <__udivmoddi4+0x2be>
 80003da:	42ab      	cmp	r3, r5
 80003dc:	d96d      	bls.n	80004ba <__udivmoddi4+0x2be>
 80003de:	3802      	subs	r0, #2
 80003e0:	443d      	add	r5, r7
 80003e2:	1aeb      	subs	r3, r5, r3
 80003e4:	ea40 4101 	orr.w	r1, r0, r1, lsl #16
 80003e8:	e78f      	b.n	800030a <__udivmoddi4+0x10e>
 80003ea:	f1c1 0720 	rsb	r7, r1, #32
 80003ee:	fa22 f807 	lsr.w	r8, r2, r7
 80003f2:	408b      	lsls	r3, r1
 80003f4:	fa05 f401 	lsl.w	r4, r5, r1
 80003f8:	ea48 0303 	orr.w	r3, r8, r3
 80003fc:	fa20 fe07 	lsr.w	lr, r0, r7
 8000400:	ea4f 4c13 	mov.w	ip, r3, lsr #16
 8000404:	40fd      	lsrs	r5, r7
 8000406:	ea4e 0e04 	orr.w	lr, lr, r4
 800040a:	fbb5 f9fc 	udiv	r9, r5, ip
 800040e:	ea4f 441e 	mov.w	r4, lr, lsr #16
 8000412:	fb0c 5519 	mls	r5, ip, r9, r5
 8000416:	fa1f f883 	uxth.w	r8, r3
 800041a:	ea44 4505 	orr.w	r5, r4, r5, lsl #16
 800041e:	fb09 f408 	mul.w	r4, r9, r8
 8000422:	42ac      	cmp	r4, r5
 8000424:	fa02 f201 	lsl.w	r2, r2, r1
 8000428:	fa00 fa01 	lsl.w	sl, r0, r1
 800042c:	d908      	bls.n	8000440 <__udivmoddi4+0x244>
 800042e:	18ed      	adds	r5, r5, r3
 8000430:	f109 30ff 	add.w	r0, r9, #4294967295
 8000434:	d243      	bcs.n	80004be <__udivmoddi4+0x2c2>
 8000436:	42ac      	cmp	r4, r5
 8000438:	d941      	bls.n	80004be <__udivmoddi4+0x2c2>
 800043a:	f1a9 0902 	sub.w	r9, r9, #2
 800043e:	441d      	add	r5, r3
 8000440:	1b2d      	subs	r5, r5, r4
 8000442:	fa1f fe8e 	uxth.w	lr, lr
 8000446:	fbb5 f0fc 	udiv	r0, r5, ip
 800044a:	fb0c 5510 	mls	r5, ip, r0, r5
 800044e:	ea4e 4405 	orr.w	r4, lr, r5, lsl #16
 8000452:	fb00 f808 	mul.w	r8, r0, r8
 8000456:	45a0      	cmp	r8, r4
 8000458:	d907      	bls.n	800046a <__udivmoddi4+0x26e>
 800045a:	18e4      	adds	r4, r4, r3
 800045c:	f100 35ff 	add.w	r5, r0, #4294967295
 8000460:	d229      	bcs.n	80004b6 <__udivmoddi4+0x2ba>
 8000462:	45a0      	cmp	r8, r4
 8000464:	d927      	bls.n	80004b6 <__udivmoddi4+0x2ba>
 8000466:	3802      	subs	r0, #2
 8000468:	441c      	add	r4, r3
 800046a:	ea40 4009 	orr.w	r0, r0, r9, lsl #16
 800046e:	eba4 0408 	sub.w	r4, r4, r8
 8000472:	fba0 8902 	umull	r8, r9, r0, r2
 8000476:	454c      	cmp	r4, r9
 8000478:	46c6      	mov	lr, r8
 800047a:	464d      	mov	r5, r9
 800047c:	d315      	bcc.n	80004aa <__udivmoddi4+0x2ae>
 800047e:	d012      	beq.n	80004a6 <__udivmoddi4+0x2aa>
 8000480:	b156      	cbz	r6, 8000498 <__udivmoddi4+0x29c>
 8000482:	ebba 030e 	subs.w	r3, sl, lr
 8000486:	eb64 0405 	sbc.w	r4, r4, r5
 800048a:	fa04 f707 	lsl.w	r7, r4, r7
 800048e:	40cb      	lsrs	r3, r1
 8000490:	431f      	orrs	r7, r3
 8000492:	40cc      	lsrs	r4, r1
 8000494:	6037      	str	r7, [r6, #0]
 8000496:	6074      	str	r4, [r6, #4]
 8000498:	2100      	movs	r1, #0
 800049a:	e8bd 87f0 	ldmia.w	sp!, {r4, r5, r6, r7, r8, r9, sl, pc}
 800049e:	4618      	mov	r0, r3
 80004a0:	e6f8      	b.n	8000294 <__udivmoddi4+0x98>
 80004a2:	4690      	mov	r8, r2
 80004a4:	e6e0      	b.n	8000268 <__udivmoddi4+0x6c>
 80004a6:	45c2      	cmp	sl, r8
 80004a8:	d2ea      	bcs.n	8000480 <__udivmoddi4+0x284>
 80004aa:	ebb8 0e02 	subs.w	lr, r8, r2
 80004ae:	eb69 0503 	sbc.w	r5, r9, r3
 80004b2:	3801      	subs	r0, #1
 80004b4:	e7e4      	b.n	8000480 <__udivmoddi4+0x284>
 80004b6:	4628      	mov	r0, r5
 80004b8:	e7d7      	b.n	800046a <__udivmoddi4+0x26e>
 80004ba:	4640      	mov	r0, r8
 80004bc:	e791      	b.n	80003e2 <__udivmoddi4+0x1e6>
 80004be:	4681      	mov	r9, r0
 80004c0:	e7be      	b.n	8000440 <__udivmoddi4+0x244>
 80004c2:	4601      	mov	r1, r0
 80004c4:	e778      	b.n	80003b8 <__udivmoddi4+0x1bc>
 80004c6:	3802      	subs	r0, #2
 80004c8:	443c      	add	r4, r7
 80004ca:	e745      	b.n	8000358 <__udivmoddi4+0x15c>
 80004cc:	4608      	mov	r0, r1
 80004ce:	e708      	b.n	80002e2 <__udivmoddi4+0xe6>
 80004d0:	f1a8 0802 	sub.w	r8, r8, #2
 80004d4:	443d      	add	r5, r7
 80004d6:	e72b      	b.n	8000330 <__udivmoddi4+0x134>

080004d8 <__aeabi_idiv0>:
 80004d8:	4770      	bx	lr
 80004da:	bf00      	nop

080004dc <HAL_InitTick>:
  *       implementation  in user file.
  * @param TickPriority  Tick interrupt priority.
  * @retval HAL status
  */
__weak HAL_StatusTypeDef HAL_InitTick(uint32_t TickPriority)
{
 80004dc:	b510      	push	{r4, lr}
  /*Configure the SysTick to have interrupt in 1ms time basis*/
  HAL_SYSTICK_Config(SystemCoreClock/1000);
 80004de:	4b08      	ldr	r3, [pc, #32]	; (8000500 <HAL_InitTick+0x24>)
{
 80004e0:	4604      	mov	r4, r0
  HAL_SYSTICK_Config(SystemCoreClock/1000);
 80004e2:	6818      	ldr	r0, [r3, #0]
 80004e4:	f44f 737a 	mov.w	r3, #1000	; 0x3e8
 80004e8:	fbb0 f0f3 	udiv	r0, r0, r3
 80004ec:	f000 f876 	bl	80005dc <HAL_SYSTICK_Config>

  /*Configure the SysTick IRQ priority */
  HAL_NVIC_SetPriority(SysTick_IRQn, TickPriority ,0);
 80004f0:	2200      	movs	r2, #0
 80004f2:	4621      	mov	r1, r4
 80004f4:	f04f 30ff 	mov.w	r0, #4294967295
 80004f8:	f000 f830 	bl	800055c <HAL_NVIC_SetPriority>

  /* Return function status */
  return HAL_OK;
}
 80004fc:	2000      	movs	r0, #0
 80004fe:	bd10      	pop	{r4, pc}
 8000500:	200001f8 	.word	0x200001f8

08000504 <HAL_Init>:
{
 8000504:	b508      	push	{r3, lr}
  HAL_NVIC_SetPriorityGrouping(NVIC_PRIORITYGROUP_4);
 8000506:	2003      	movs	r0, #3
 8000508:	f000 f816 	bl	8000538 <HAL_NVIC_SetPriorityGrouping>
  HAL_InitTick(TICK_INT_PRIORITY);
 800050c:	2000      	movs	r0, #0
 800050e:	f7ff ffe5 	bl	80004dc <HAL_InitTick>
  HAL_MspInit();
 8000512:	f003 fcd7 	bl	8003ec4 <HAL_MspInit>
}
 8000516:	2000      	movs	r0, #0
 8000518:	bd08      	pop	{r3, pc}
	...

0800051c <HAL_IncTick>:
  *      implementations in user file.
  * @retval None
  */
__weak void HAL_IncTick(void)
{
  uwTick++;
 800051c:	4a02      	ldr	r2, [pc, #8]	; (8000528 <HAL_IncTick+0xc>)
 800051e:	6813      	ldr	r3, [r2, #0]
 8000520:	3301      	adds	r3, #1
 8000522:	6013      	str	r3, [r2, #0]
 8000524:	4770      	bx	lr
 8000526:	bf00      	nop
 8000528:	200008ac 	.word	0x200008ac

0800052c <HAL_GetTick>:
  *       implementations in user file.
  * @retval tick value
  */
__weak uint32_t HAL_GetTick(void)
{
  return uwTick;
 800052c:	4b01      	ldr	r3, [pc, #4]	; (8000534 <HAL_GetTick+0x8>)
 800052e:	6818      	ldr	r0, [r3, #0]
}
 8000530:	4770      	bx	lr
 8000532:	bf00      	nop
 8000534:	200008ac 	.word	0x200008ac

08000538 <HAL_NVIC_SetPriorityGrouping>:
__STATIC_INLINE void NVIC_SetPriorityGrouping(uint32_t PriorityGroup)
{
  uint32_t reg_value;
  uint32_t PriorityGroupTmp = (PriorityGroup & (uint32_t)0x07UL);             /* only values 0..7 are used          */

  reg_value  =  SCB->AIRCR;                                                   /* read old register configuration    */
 8000538:	4a07      	ldr	r2, [pc, #28]	; (8000558 <HAL_NVIC_SetPriorityGrouping+0x20>)
 800053a:	68d3      	ldr	r3, [r2, #12]
  reg_value &= ~((uint32_t)(SCB_AIRCR_VECTKEY_Msk | SCB_AIRCR_PRIGROUP_Msk)); /* clear bits to change               */
 800053c:	f423 63e0 	bic.w	r3, r3, #1792	; 0x700
 8000540:	041b      	lsls	r3, r3, #16
 8000542:	0c1b      	lsrs	r3, r3, #16
 8000544:	f043 63bf 	orr.w	r3, r3, #100139008	; 0x5f80000
  reg_value  =  (reg_value                                   |
                ((uint32_t)0x5FAUL << SCB_AIRCR_VECTKEY_Pos) |
                (PriorityGroupTmp << 8U)                      );              /* Insert write key and priorty group */
 8000548:	0200      	lsls	r0, r0, #8
 800054a:	f443 3300 	orr.w	r3, r3, #131072	; 0x20000
 800054e:	f400 60e0 	and.w	r0, r0, #1792	; 0x700
  reg_value  =  (reg_value                                   |
 8000552:	4303      	orrs	r3, r0
  SCB->AIRCR =  reg_value;
 8000554:	60d3      	str	r3, [r2, #12]
 8000556:	4770      	bx	lr
 8000558:	e000ed00 	.word	0xe000ed00

0800055c <HAL_NVIC_SetPriority>:
  \details Reads the priority grouping field from the NVIC Interrupt Controller.
  \return                Priority grouping field (SCB->AIRCR [10:8] PRIGROUP field).
 */
__STATIC_INLINE uint32_t NVIC_GetPriorityGrouping(void)
{
  return ((uint32_t)((SCB->AIRCR & SCB_AIRCR_PRIGROUP_Msk) >> SCB_AIRCR_PRIGROUP_Pos));
 800055c:	4b17      	ldr	r3, [pc, #92]	; (80005bc <HAL_NVIC_SetPriority+0x60>)
  *         This parameter can be a value between 0 and 15
  *         A lower priority value indicates a higher priority.
  * @retval None
  */
void HAL_NVIC_SetPriority(IRQn_Type IRQn, uint32_t PreemptPriority, uint32_t SubPriority)
{
 800055e:	b530      	push	{r4, r5, lr}
 8000560:	68dc      	ldr	r4, [r3, #12]
 8000562:	f3c4 2402 	ubfx	r4, r4, #8, #3
{
  uint32_t PriorityGroupTmp = (PriorityGroup & (uint32_t)0x07UL);   /* only values 0..7 are used          */
  uint32_t PreemptPriorityBits;
  uint32_t SubPriorityBits;

  PreemptPriorityBits = ((7UL - PriorityGroupTmp) > (uint32_t)(__NVIC_PRIO_BITS)) ? (uint32_t)(__NVIC_PRIO_BITS) : (uint32_t)(7UL - PriorityGroupTmp);
 8000566:	f1c4 0307 	rsb	r3, r4, #7
  SubPriorityBits     = ((PriorityGroupTmp + (uint32_t)(__NVIC_PRIO_BITS)) < (uint32_t)7UL) ? (uint32_t)0UL : (uint32_t)((PriorityGroupTmp - 7UL) + (uint32_t)(__NVIC_PRIO_BITS));
 800056a:	1d25      	adds	r5, r4, #4
  PreemptPriorityBits = ((7UL - PriorityGroupTmp) > (uint32_t)(__NVIC_PRIO_BITS)) ? (uint32_t)(__NVIC_PRIO_BITS) : (uint32_t)(7UL - PriorityGroupTmp);
 800056c:	2b04      	cmp	r3, #4
 800056e:	bf28      	it	cs
 8000570:	2304      	movcs	r3, #4
  SubPriorityBits     = ((PriorityGroupTmp + (uint32_t)(__NVIC_PRIO_BITS)) < (uint32_t)7UL) ? (uint32_t)0UL : (uint32_t)((PriorityGroupTmp - 7UL) + (uint32_t)(__NVIC_PRIO_BITS));
 8000572:	2d06      	cmp	r5, #6

  return (
           ((PreemptPriority & (uint32_t)((1UL << (PreemptPriorityBits)) - 1UL)) << SubPriorityBits) |
 8000574:	f04f 0501 	mov.w	r5, #1
 8000578:	fa05 f303 	lsl.w	r3, r5, r3
 800057c:	f103 33ff 	add.w	r3, r3, #4294967295
  SubPriorityBits     = ((PriorityGroupTmp + (uint32_t)(__NVIC_PRIO_BITS)) < (uint32_t)7UL) ? (uint32_t)0UL : (uint32_t)((PriorityGroupTmp - 7UL) + (uint32_t)(__NVIC_PRIO_BITS));
 8000580:	bf8c      	ite	hi
 8000582:	3c03      	subhi	r4, #3
 8000584:	2400      	movls	r4, #0
           ((PreemptPriority & (uint32_t)((1UL << (PreemptPriorityBits)) - 1UL)) << SubPriorityBits) |
 8000586:	4019      	ands	r1, r3
 8000588:	40a1      	lsls	r1, r4
           ((SubPriority     & (uint32_t)((1UL << (SubPriorityBits    )) - 1UL)))
 800058a:	fa05 f404 	lsl.w	r4, r5, r4
 800058e:	3c01      	subs	r4, #1
 8000590:	4022      	ands	r2, r4
  if ((int32_t)(IRQn) < 0)
 8000592:	2800      	cmp	r0, #0
           ((PreemptPriority & (uint32_t)((1UL << (PreemptPriorityBits)) - 1UL)) << SubPriorityBits) |
 8000594:	ea42 0201 	orr.w	r2, r2, r1
 8000598:	ea4f 1202 	mov.w	r2, r2, lsl #4
    NVIC->IP[((uint32_t)(int32_t)IRQn)]               = (uint8_t)((priority << (8U - __NVIC_PRIO_BITS)) & (uint32_t)0xFFUL);
 800059c:	bfaf      	iteee	ge
 800059e:	f100 4060 	addge.w	r0, r0, #3758096384	; 0xe0000000
    SCB->SHP[(((uint32_t)(int32_t)IRQn) & 0xFUL)-4UL] = (uint8_t)((priority << (8U - __NVIC_PRIO_BITS)) & (uint32_t)0xFFUL);
 80005a2:	f000 000f 	andlt.w	r0, r0, #15
 80005a6:	4b06      	ldrlt	r3, [pc, #24]	; (80005c0 <HAL_NVIC_SetPriority+0x64>)
 80005a8:	b2d2      	uxtblt	r2, r2
    NVIC->IP[((uint32_t)(int32_t)IRQn)]               = (uint8_t)((priority << (8U - __NVIC_PRIO_BITS)) & (uint32_t)0xFFUL);
 80005aa:	bfa5      	ittet	ge
 80005ac:	f500 4061 	addge.w	r0, r0, #57600	; 0xe100
 80005b0:	b2d2      	uxtbge	r2, r2
    SCB->SHP[(((uint32_t)(int32_t)IRQn) & 0xFUL)-4UL] = (uint8_t)((priority << (8U - __NVIC_PRIO_BITS)) & (uint32_t)0xFFUL);
 80005b2:	541a      	strblt	r2, [r3, r0]
    NVIC->IP[((uint32_t)(int32_t)IRQn)]               = (uint8_t)((priority << (8U - __NVIC_PRIO_BITS)) & (uint32_t)0xFFUL);
 80005b4:	f880 2300 	strbge.w	r2, [r0, #768]	; 0x300
 80005b8:	bd30      	pop	{r4, r5, pc}
 80005ba:	bf00      	nop
 80005bc:	e000ed00 	.word	0xe000ed00
 80005c0:	e000ed14 	.word	0xe000ed14

080005c4 <HAL_NVIC_EnableIRQ>:
  NVIC->ISER[(((uint32_t)(int32_t)IRQn) >> 5UL)] = (uint32_t)(1UL << (((uint32_t)(int32_t)IRQn) & 0x1FUL));
 80005c4:	0942      	lsrs	r2, r0, #5
 80005c6:	2301      	movs	r3, #1
 80005c8:	f000 001f 	and.w	r0, r0, #31
 80005cc:	fa03 f000 	lsl.w	r0, r3, r0
 80005d0:	4b01      	ldr	r3, [pc, #4]	; (80005d8 <HAL_NVIC_EnableIRQ+0x14>)
 80005d2:	f843 0022 	str.w	r0, [r3, r2, lsl #2]
 80005d6:	4770      	bx	lr
 80005d8:	e000e100 	.word	0xe000e100

080005dc <HAL_SYSTICK_Config>:
           function <b>SysTick_Config</b> is not included. In this case, the file <b><i>device</i>.h</b>
           must contain a vendor-specific implementation of this function.
 */
__STATIC_INLINE uint32_t SysTick_Config(uint32_t ticks)
{
  if ((ticks - 1UL) > SysTick_LOAD_RELOAD_Msk)
 80005dc:	3801      	subs	r0, #1
 80005de:	f1b0 7f80 	cmp.w	r0, #16777216	; 0x1000000
 80005e2:	d20a      	bcs.n	80005fa <HAL_SYSTICK_Config+0x1e>
  {
    return (1UL);                                                   /* Reload value impossible */
  }

  SysTick->LOAD  = (uint32_t)(ticks - 1UL);                         /* set reload register */
 80005e4:	4b06      	ldr	r3, [pc, #24]	; (8000600 <HAL_SYSTICK_Config+0x24>)
    SCB->SHP[(((uint32_t)(int32_t)IRQn) & 0xFUL)-4UL] = (uint8_t)((priority << (8U - __NVIC_PRIO_BITS)) & (uint32_t)0xFFUL);
 80005e6:	4a07      	ldr	r2, [pc, #28]	; (8000604 <HAL_SYSTICK_Config+0x28>)
  SysTick->LOAD  = (uint32_t)(ticks - 1UL);                         /* set reload register */
 80005e8:	6058      	str	r0, [r3, #4]
    SCB->SHP[(((uint32_t)(int32_t)IRQn) & 0xFUL)-4UL] = (uint8_t)((priority << (8U - __NVIC_PRIO_BITS)) & (uint32_t)0xFFUL);
 80005ea:	21f0      	movs	r1, #240	; 0xf0
 80005ec:	f882 1023 	strb.w	r1, [r2, #35]	; 0x23
  NVIC_SetPriority (SysTick_IRQn, (1UL << __NVIC_PRIO_BITS) - 1UL); /* set Priority for Systick Interrupt */
  SysTick->VAL   = 0UL;                                             /* Load the SysTick Counter Value */
 80005f0:	2000      	movs	r0, #0
  SysTick->CTRL  = SysTick_CTRL_CLKSOURCE_Msk |
 80005f2:	2207      	movs	r2, #7
  SysTick->VAL   = 0UL;                                             /* Load the SysTick Counter Value */
 80005f4:	6098      	str	r0, [r3, #8]
  SysTick->CTRL  = SysTick_CTRL_CLKSOURCE_Msk |
 80005f6:	601a      	str	r2, [r3, #0]
 80005f8:	4770      	bx	lr
    return (1UL);                                                   /* Reload value impossible */
 80005fa:	2001      	movs	r0, #1
  *                  - 1  Function failed.
  */
uint32_t HAL_SYSTICK_Config(uint32_t TicksNumb)
{
   return SysTick_Config(TicksNumb);
}
 80005fc:	4770      	bx	lr
 80005fe:	bf00      	nop
 8000600:	e000e010 	.word	0xe000e010
 8000604:	e000ed00 	.word	0xe000ed00

08000608 <HAL_SYSTICK_CLKSourceConfig>:
  *             @arg SYSTICK_CLKSOURCE_HCLK_DIV8: AHB clock divided by 8 selected as SysTick clock source.
  *             @arg SYSTICK_CLKSOURCE_HCLK: AHB clock selected as SysTick clock source.
  * @retval None
  */
void HAL_SYSTICK_CLKSourceConfig(uint32_t CLKSource)
{
 8000608:	4b04      	ldr	r3, [pc, #16]	; (800061c <HAL_SYSTICK_CLKSourceConfig+0x14>)
  /* Check the parameters */
  assert_param(IS_SYSTICK_CLK_SOURCE(CLKSource));
  if (CLKSource == SYSTICK_CLKSOURCE_HCLK)
  {
    SysTick->CTRL |= SYSTICK_CLKSOURCE_HCLK;
 800060a:	681a      	ldr	r2, [r3, #0]
  if (CLKSource == SYSTICK_CLKSOURCE_HCLK)
 800060c:	2804      	cmp	r0, #4
    SysTick->CTRL |= SYSTICK_CLKSOURCE_HCLK;
 800060e:	bf0c      	ite	eq
 8000610:	f042 0204 	orreq.w	r2, r2, #4
  }
  else
  {
    SysTick->CTRL &= ~SYSTICK_CLKSOURCE_HCLK;
 8000614:	f022 0204 	bicne.w	r2, r2, #4
 8000618:	601a      	str	r2, [r3, #0]
 800061a:	4770      	bx	lr
 800061c:	e000e010 	.word	0xe000e010

08000620 <HAL_SYSTICK_Callback>:
/**
  * @brief  SYSTICK callback.
  * @retval None
  */
__weak void HAL_SYSTICK_Callback(void)
{
 8000620:	4770      	bx	lr

08000622 <HAL_SYSTICK_IRQHandler>:
{
 8000622:	b508      	push	{r3, lr}
  HAL_SYSTICK_Callback();
 8000624:	f7ff fffc 	bl	8000620 <HAL_SYSTICK_Callback>
 8000628:	bd08      	pop	{r3, pc}
	...

0800062c <HAL_DMA_Init>:
  * @param  hdma: Pointer to a DMA_HandleTypeDef structure that contains
  *               the configuration information for the specified DMA Channel.
  * @retval HAL status
  */
HAL_StatusTypeDef HAL_DMA_Init(DMA_HandleTypeDef *hdma)
{
 800062c:	b530      	push	{r4, r5, lr}
  uint32_t tmp = 0;

  /* Check the DMA handle allocation */
  if(hdma == NULL)
 800062e:	2800      	cmp	r0, #0
 8000630:	d05b      	beq.n	80006ea <HAL_DMA_Init+0xbe>
  assert_param(IS_DMA_PRIORITY(hdma->Init.Priority));

  assert_param(IS_DMA_ALL_REQUEST(hdma->Init.Request));

  /* Compute the channel index */
  if ((uint32_t)(hdma->Instance) < (uint32_t)(DMA2_Channel1))
 8000632:	6801      	ldr	r1, [r0, #0]
 8000634:	4b2e      	ldr	r3, [pc, #184]	; (80006f0 <HAL_DMA_Init+0xc4>)
 8000636:	4299      	cmp	r1, r3
 8000638:	f04f 0414 	mov.w	r4, #20
 800063c:	d841      	bhi.n	80006c2 <HAL_DMA_Init+0x96>
  {
    /* DMA1 */
    hdma->ChannelIndex = (((uint32_t)hdma->Instance - (uint32_t)DMA1_Channel1) / ((uint32_t)DMA1_Channel2 - (uint32_t)DMA1_Channel1)) << 2;
 800063e:	4a2d      	ldr	r2, [pc, #180]	; (80006f4 <HAL_DMA_Init+0xc8>)
 8000640:	440a      	add	r2, r1
 8000642:	fbb2 f2f4 	udiv	r2, r2, r4
 8000646:	0092      	lsls	r2, r2, #2
 8000648:	6442      	str	r2, [r0, #68]	; 0x44
    hdma->DmaBaseAddress = DMA1;
 800064a:	f2a3 4307 	subw	r3, r3, #1031	; 0x407
  }
  else
  {
    /* DMA2 */
    hdma->ChannelIndex = (((uint32_t)hdma->Instance - (uint32_t)DMA2_Channel1) / ((uint32_t)DMA2_Channel2 - (uint32_t)DMA2_Channel1)) << 2;
    hdma->DmaBaseAddress = DMA2;
 800064e:	6403      	str	r3, [r0, #64]	; 0x40
  }

  /* Change DMA peripheral state */
  hdma->State = HAL_DMA_STATE_BUSY;
 8000650:	2302      	movs	r3, #2
 8000652:	f880 3025 	strb.w	r3, [r0, #37]	; 0x25
  tmp &= ((uint32_t)~(DMA_CCR_PL    | DMA_CCR_MSIZE  | DMA_CCR_PSIZE  |
                      DMA_CCR_MINC  | DMA_CCR_PINC   | DMA_CCR_CIRC   |
                      DMA_CCR_DIR   | DMA_CCR_MEM2MEM));

  /* Prepare the DMA Channel configuration */
  tmp |=  hdma->Init.Direction        |
 8000656:	6884      	ldr	r4, [r0, #8]
 8000658:	68c3      	ldr	r3, [r0, #12]
          hdma->Init.PeriphInc           | hdma->Init.MemInc           |
 800065a:	6905      	ldr	r5, [r0, #16]
  tmp = hdma->Instance->CCR;
 800065c:	680a      	ldr	r2, [r1, #0]
  tmp |=  hdma->Init.Direction        |
 800065e:	4323      	orrs	r3, r4
          hdma->Init.PeriphInc           | hdma->Init.MemInc           |
 8000660:	432b      	orrs	r3, r5
 8000662:	6945      	ldr	r5, [r0, #20]
 8000664:	432b      	orrs	r3, r5
          hdma->Init.PeriphDataAlignment | hdma->Init.MemDataAlignment |
 8000666:	6985      	ldr	r5, [r0, #24]
 8000668:	432b      	orrs	r3, r5
 800066a:	69c5      	ldr	r5, [r0, #28]
 800066c:	432b      	orrs	r3, r5
          hdma->Init.Mode                | hdma->Init.Priority;
 800066e:	6a05      	ldr	r5, [r0, #32]
  tmp &= ((uint32_t)~(DMA_CCR_PL    | DMA_CCR_MSIZE  | DMA_CCR_PSIZE  |
 8000670:	f422 42ff 	bic.w	r2, r2, #32640	; 0x7f80
 8000674:	f022 0270 	bic.w	r2, r2, #112	; 0x70
          hdma->Init.Mode                | hdma->Init.Priority;
 8000678:	432b      	orrs	r3, r5
  tmp |=  hdma->Init.Direction        |
 800067a:	4313      	orrs	r3, r2
#endif /* DMAMUX1 */

#if !defined (DMAMUX1)

  /* Set request selection */
  if(hdma->Init.Direction != DMA_MEMORY_TO_MEMORY)
 800067c:	f5b4 4f80 	cmp.w	r4, #16384	; 0x4000
  hdma->Instance->CCR = tmp;
 8000680:	600b      	str	r3, [r1, #0]
  if(hdma->Init.Direction != DMA_MEMORY_TO_MEMORY)
 8000682:	d011      	beq.n	80006a8 <HAL_DMA_Init+0x7c>
  {
    /* Write to DMA channel selection register */
    if (DMA1 == hdma->DmaBaseAddress)
 8000684:	4b1c      	ldr	r3, [pc, #112]	; (80006f8 <HAL_DMA_Init+0xcc>)
 8000686:	6c02      	ldr	r2, [r0, #64]	; 0x40
 8000688:	6c44      	ldr	r4, [r0, #68]	; 0x44
 800068a:	429a      	cmp	r2, r3
 800068c:	f04f 030f 	mov.w	r3, #15
 8000690:	d11f      	bne.n	80006d2 <HAL_DMA_Init+0xa6>
    {
      /* Reset request selection for DMA1 Channelx */
      DMA1_CSELR->CSELR &= ~(DMA_CSELR_C1S << hdma->ChannelIndex);
 8000692:	491a      	ldr	r1, [pc, #104]	; (80006fc <HAL_DMA_Init+0xd0>)
 8000694:	680a      	ldr	r2, [r1, #0]
 8000696:	40a3      	lsls	r3, r4
 8000698:	ea22 0303 	bic.w	r3, r2, r3
 800069c:	600b      	str	r3, [r1, #0]

      /* Configure request selection for DMA1 Channelx */
      DMA1_CSELR->CSELR |= (uint32_t) (hdma->Init.Request << (hdma->ChannelIndex));
 800069e:	6842      	ldr	r2, [r0, #4]
 80006a0:	680b      	ldr	r3, [r1, #0]
 80006a2:	40a2      	lsls	r2, r4
 80006a4:	431a      	orrs	r2, r3
 80006a6:	600a      	str	r2, [r1, #0]
#endif /* STM32L431xx || STM32L432xx || STM32L433xx || STM32L442xx || STM32L443xx */
       /* STM32L471xx || STM32L475xx || STM32L476xx || STM32L442xx || STM32L486xx */
       /* STM32L496xx || STM32L4A6xx                                              */

  /* Clean callbacks */
  hdma->XferCpltCallback = NULL;
 80006a8:	2300      	movs	r3, #0

  /* Initialise the error code */
  hdma->ErrorCode = HAL_DMA_ERROR_NONE;

  /* Initialize the DMA state*/
  hdma->State  = HAL_DMA_STATE_READY;
 80006aa:	2201      	movs	r2, #1
  hdma->ErrorCode = HAL_DMA_ERROR_NONE;
 80006ac:	63c3      	str	r3, [r0, #60]	; 0x3c
  hdma->XferCpltCallback = NULL;
 80006ae:	62c3      	str	r3, [r0, #44]	; 0x2c
  hdma->XferHalfCpltCallback = NULL;
 80006b0:	6303      	str	r3, [r0, #48]	; 0x30
  hdma->XferErrorCallback = NULL;
 80006b2:	6343      	str	r3, [r0, #52]	; 0x34
  hdma->XferAbortCallback = NULL;
 80006b4:	6383      	str	r3, [r0, #56]	; 0x38
  hdma->State  = HAL_DMA_STATE_READY;
 80006b6:	f880 2025 	strb.w	r2, [r0, #37]	; 0x25

  /* Allocate lock resource and initialize it */
  hdma->Lock = HAL_UNLOCKED;
 80006ba:	f880 3024 	strb.w	r3, [r0, #36]	; 0x24

  return HAL_OK;
 80006be:	4618      	mov	r0, r3
 80006c0:	bd30      	pop	{r4, r5, pc}
    hdma->ChannelIndex = (((uint32_t)hdma->Instance - (uint32_t)DMA2_Channel1) / ((uint32_t)DMA2_Channel2 - (uint32_t)DMA2_Channel1)) << 2;
 80006c2:	4b0f      	ldr	r3, [pc, #60]	; (8000700 <HAL_DMA_Init+0xd4>)
 80006c4:	440b      	add	r3, r1
 80006c6:	fbb3 f3f4 	udiv	r3, r3, r4
 80006ca:	009b      	lsls	r3, r3, #2
 80006cc:	6443      	str	r3, [r0, #68]	; 0x44
    hdma->DmaBaseAddress = DMA2;
 80006ce:	4b0d      	ldr	r3, [pc, #52]	; (8000704 <HAL_DMA_Init+0xd8>)
 80006d0:	e7bd      	b.n	800064e <HAL_DMA_Init+0x22>
      DMA2_CSELR->CSELR &= ~(DMA_CSELR_C1S << hdma->ChannelIndex);
 80006d2:	490d      	ldr	r1, [pc, #52]	; (8000708 <HAL_DMA_Init+0xdc>)
 80006d4:	680a      	ldr	r2, [r1, #0]
 80006d6:	40a3      	lsls	r3, r4
 80006d8:	ea22 0303 	bic.w	r3, r2, r3
 80006dc:	600b      	str	r3, [r1, #0]
      DMA2_CSELR->CSELR |= (uint32_t) (hdma->Init.Request << (hdma->ChannelIndex));
 80006de:	6843      	ldr	r3, [r0, #4]
 80006e0:	680a      	ldr	r2, [r1, #0]
 80006e2:	40a3      	lsls	r3, r4
 80006e4:	4313      	orrs	r3, r2
 80006e6:	600b      	str	r3, [r1, #0]
 80006e8:	e7de      	b.n	80006a8 <HAL_DMA_Init+0x7c>
    return HAL_ERROR;
 80006ea:	2001      	movs	r0, #1
}
 80006ec:	bd30      	pop	{r4, r5, pc}
 80006ee:	bf00      	nop
 80006f0:	40020407 	.word	0x40020407
 80006f4:	bffdfff8 	.word	0xbffdfff8
 80006f8:	40020000 	.word	0x40020000
 80006fc:	400200a8 	.word	0x400200a8
 8000700:	bffdfbf8 	.word	0xbffdfbf8
 8000704:	40020400 	.word	0x40020400
 8000708:	400204a8 	.word	0x400204a8

0800070c <HAL_DMA_Start_IT>:
  * @param  DstAddress: The destination memory Buffer address
  * @param  DataLength: The length of data to be transferred from source to destination
  * @retval HAL status
  */
HAL_StatusTypeDef HAL_DMA_Start_IT(DMA_HandleTypeDef *hdma, uint32_t SrcAddress, uint32_t DstAddress, uint32_t DataLength)
{
 800070c:	b5f0      	push	{r4, r5, r6, r7, lr}

  /* Check the parameters */
  assert_param(IS_DMA_BUFFER_SIZE(DataLength));

  /* Process locked */
  __HAL_LOCK(hdma);
 800070e:	f890 4024 	ldrb.w	r4, [r0, #36]	; 0x24
 8000712:	2c01      	cmp	r4, #1
 8000714:	d036      	beq.n	8000784 <HAL_DMA_Start_IT+0x78>

  if(HAL_DMA_STATE_READY == hdma->State)
 8000716:	f890 5025 	ldrb.w	r5, [r0, #37]	; 0x25
  __HAL_LOCK(hdma);
 800071a:	2401      	movs	r4, #1
  if(HAL_DMA_STATE_READY == hdma->State)
 800071c:	b2ed      	uxtb	r5, r5
 800071e:	42a5      	cmp	r5, r4
  __HAL_LOCK(hdma);
 8000720:	f880 4024 	strb.w	r4, [r0, #36]	; 0x24
 8000724:	f04f 0600 	mov.w	r6, #0
 8000728:	f04f 0402 	mov.w	r4, #2
  if(HAL_DMA_STATE_READY == hdma->State)
 800072c:	d128      	bne.n	8000780 <HAL_DMA_Start_IT+0x74>
  {
    /* Change DMA peripheral state */
    hdma->State = HAL_DMA_STATE_BUSY;
 800072e:	f880 4025 	strb.w	r4, [r0, #37]	; 0x25
    hdma->ErrorCode = HAL_DMA_ERROR_NONE;

    /* Disable the peripheral */
    __HAL_DMA_DISABLE(hdma);
 8000732:	6804      	ldr	r4, [r0, #0]
    hdma->ErrorCode = HAL_DMA_ERROR_NONE;
 8000734:	63c6      	str	r6, [r0, #60]	; 0x3c
    __HAL_DMA_DISABLE(hdma);
 8000736:	6826      	ldr	r6, [r4, #0]
    hdma->DMAmuxRequestGenStatus->RGCFR = hdma->DMAmuxRequestGenStatusMask;
  }
#endif

  /* Clear all flags */
  hdma->DmaBaseAddress->IFCR = (DMA_ISR_GIF1 << hdma->ChannelIndex);
 8000738:	6c47      	ldr	r7, [r0, #68]	; 0x44
    __HAL_DMA_DISABLE(hdma);
 800073a:	f026 0601 	bic.w	r6, r6, #1
 800073e:	6026      	str	r6, [r4, #0]
  hdma->DmaBaseAddress->IFCR = (DMA_ISR_GIF1 << hdma->ChannelIndex);
 8000740:	6c06      	ldr	r6, [r0, #64]	; 0x40
 8000742:	40bd      	lsls	r5, r7
 8000744:	6075      	str	r5, [r6, #4]

  /* Configure DMA Channel data length */
  hdma->Instance->CNDTR = DataLength;
 8000746:	6063      	str	r3, [r4, #4]

  /* Peripheral to Memory */
  if((hdma->Init.Direction) == DMA_MEMORY_TO_PERIPH)
 8000748:	6883      	ldr	r3, [r0, #8]
 800074a:	6805      	ldr	r5, [r0, #0]
 800074c:	2b10      	cmp	r3, #16
    if(NULL != hdma->XferHalfCpltCallback )
 800074e:	6b03      	ldr	r3, [r0, #48]	; 0x30
  {
    /* Configure DMA Channel destination address */
    hdma->Instance->CPAR = DstAddress;
 8000750:	bf0b      	itete	eq
 8000752:	60a2      	streq	r2, [r4, #8]
  }
  /* Memory to Peripheral */
  else
  {
    /* Configure DMA Channel source address */
    hdma->Instance->CPAR = SrcAddress;
 8000754:	60a1      	strne	r1, [r4, #8]
    hdma->Instance->CMAR = SrcAddress;
 8000756:	60e1      	streq	r1, [r4, #12]

    /* Configure DMA Channel destination address */
    hdma->Instance->CMAR = DstAddress;
 8000758:	60e2      	strne	r2, [r4, #12]
    if(NULL != hdma->XferHalfCpltCallback )
 800075a:	b14b      	cbz	r3, 8000770 <HAL_DMA_Start_IT+0x64>
      __HAL_DMA_ENABLE_IT(hdma, (DMA_IT_TC | DMA_IT_HT | DMA_IT_TE));
 800075c:	6823      	ldr	r3, [r4, #0]
 800075e:	f043 030e 	orr.w	r3, r3, #14
      __HAL_DMA_ENABLE_IT(hdma, (DMA_IT_TC | DMA_IT_TE));
 8000762:	6023      	str	r3, [r4, #0]
    __HAL_DMA_ENABLE(hdma);
 8000764:	682b      	ldr	r3, [r5, #0]
 8000766:	f043 0301 	orr.w	r3, r3, #1
 800076a:	602b      	str	r3, [r5, #0]
  HAL_StatusTypeDef status = HAL_OK;
 800076c:	2000      	movs	r0, #0
 800076e:	bdf0      	pop	{r4, r5, r6, r7, pc}
      __HAL_DMA_DISABLE_IT(hdma, DMA_IT_HT);
 8000770:	6823      	ldr	r3, [r4, #0]
 8000772:	f023 0304 	bic.w	r3, r3, #4
 8000776:	6023      	str	r3, [r4, #0]
      __HAL_DMA_ENABLE_IT(hdma, (DMA_IT_TC | DMA_IT_TE));
 8000778:	6823      	ldr	r3, [r4, #0]
 800077a:	f043 030a 	orr.w	r3, r3, #10
 800077e:	e7f0      	b.n	8000762 <HAL_DMA_Start_IT+0x56>
    __HAL_UNLOCK(hdma);
 8000780:	f880 6024 	strb.w	r6, [r0, #36]	; 0x24
  __HAL_LOCK(hdma);
 8000784:	2002      	movs	r0, #2
}
 8000786:	bdf0      	pop	{r4, r5, r6, r7, pc}

08000788 <HAL_DMA_Abort_IT>:
  if(HAL_DMA_STATE_BUSY != hdma->State)
 8000788:	f890 2025 	ldrb.w	r2, [r0, #37]	; 0x25
 800078c:	2a02      	cmp	r2, #2
{
 800078e:	b510      	push	{r4, lr}
  if(HAL_DMA_STATE_BUSY != hdma->State)
 8000790:	d003      	beq.n	800079a <HAL_DMA_Abort_IT+0x12>
    hdma->ErrorCode = HAL_DMA_ERROR_NO_XFER;
 8000792:	2204      	movs	r2, #4
 8000794:	63c2      	str	r2, [r0, #60]	; 0x3c
    status = HAL_ERROR;
 8000796:	2001      	movs	r0, #1
 8000798:	bd10      	pop	{r4, pc}
    __HAL_DMA_DISABLE_IT(hdma, (DMA_IT_TC | DMA_IT_HT | DMA_IT_TE));
 800079a:	6802      	ldr	r2, [r0, #0]
    hdma->DmaBaseAddress->IFCR = (DMA_ISR_GIF1 << hdma->ChannelIndex);
 800079c:	6c04      	ldr	r4, [r0, #64]	; 0x40
    __HAL_DMA_DISABLE_IT(hdma, (DMA_IT_TC | DMA_IT_HT | DMA_IT_TE));
 800079e:	6811      	ldr	r1, [r2, #0]
    if(hdma->XferAbortCallback != NULL)
 80007a0:	6b83      	ldr	r3, [r0, #56]	; 0x38
    __HAL_DMA_DISABLE_IT(hdma, (DMA_IT_TC | DMA_IT_HT | DMA_IT_TE));
 80007a2:	f021 010e 	bic.w	r1, r1, #14
 80007a6:	6011      	str	r1, [r2, #0]
    __HAL_DMA_DISABLE(hdma);
 80007a8:	6811      	ldr	r1, [r2, #0]
 80007aa:	f021 0101 	bic.w	r1, r1, #1
 80007ae:	6011      	str	r1, [r2, #0]
    hdma->DmaBaseAddress->IFCR = (DMA_ISR_GIF1 << hdma->ChannelIndex);
 80007b0:	6c42      	ldr	r2, [r0, #68]	; 0x44
 80007b2:	2101      	movs	r1, #1
 80007b4:	fa01 f202 	lsl.w	r2, r1, r2
 80007b8:	6062      	str	r2, [r4, #4]
    __HAL_UNLOCK(hdma);
 80007ba:	2400      	movs	r4, #0
    hdma->State = HAL_DMA_STATE_READY;
 80007bc:	f880 1025 	strb.w	r1, [r0, #37]	; 0x25
    __HAL_UNLOCK(hdma);
 80007c0:	f880 4024 	strb.w	r4, [r0, #36]	; 0x24
    if(hdma->XferAbortCallback != NULL)
 80007c4:	b113      	cbz	r3, 80007cc <HAL_DMA_Abort_IT+0x44>
      hdma->XferAbortCallback(hdma);
 80007c6:	4798      	blx	r3
  HAL_StatusTypeDef status = HAL_OK;
 80007c8:	4620      	mov	r0, r4
 80007ca:	bd10      	pop	{r4, pc}
 80007cc:	4618      	mov	r0, r3
}
 80007ce:	bd10      	pop	{r4, pc}

080007d0 <HAL_DMA_IRQHandler>:
  uint32_t flag_it = hdma->DmaBaseAddress->ISR;
 80007d0:	6c01      	ldr	r1, [r0, #64]	; 0x40
  if ((RESET != (flag_it & (DMA_FLAG_HT1 << hdma->ChannelIndex))) && (RESET != (source_it & DMA_IT_HT)))
 80007d2:	6c42      	ldr	r2, [r0, #68]	; 0x44
  uint32_t source_it = hdma->Instance->CCR;
 80007d4:	6803      	ldr	r3, [r0, #0]
{
 80007d6:	b470      	push	{r4, r5, r6}
  uint32_t flag_it = hdma->DmaBaseAddress->ISR;
 80007d8:	680e      	ldr	r6, [r1, #0]
  uint32_t source_it = hdma->Instance->CCR;
 80007da:	681d      	ldr	r5, [r3, #0]
  if ((RESET != (flag_it & (DMA_FLAG_HT1 << hdma->ChannelIndex))) && (RESET != (source_it & DMA_IT_HT)))
 80007dc:	2404      	movs	r4, #4
 80007de:	4094      	lsls	r4, r2
 80007e0:	4226      	tst	r6, r4
 80007e2:	d00e      	beq.n	8000802 <HAL_DMA_IRQHandler+0x32>
 80007e4:	f015 0f04 	tst.w	r5, #4
 80007e8:	d00b      	beq.n	8000802 <HAL_DMA_IRQHandler+0x32>
      if((hdma->Instance->CCR & DMA_CCR_CIRC) == 0)
 80007ea:	681a      	ldr	r2, [r3, #0]
 80007ec:	0692      	lsls	r2, r2, #26
        __HAL_DMA_DISABLE_IT(hdma, DMA_IT_HT);
 80007ee:	bf5e      	ittt	pl
 80007f0:	681a      	ldrpl	r2, [r3, #0]
 80007f2:	f022 0204 	bicpl.w	r2, r2, #4
 80007f6:	601a      	strpl	r2, [r3, #0]
     if(hdma->XferHalfCpltCallback != NULL)
 80007f8:	6b03      	ldr	r3, [r0, #48]	; 0x30
      hdma->DmaBaseAddress->IFCR = (DMA_ISR_HTIF1 << hdma->ChannelIndex);
 80007fa:	604c      	str	r4, [r1, #4]
    if (hdma->XferErrorCallback != NULL)
 80007fc:	b373      	cbz	r3, 800085c <HAL_DMA_IRQHandler+0x8c>
}
 80007fe:	bc70      	pop	{r4, r5, r6}
      hdma->XferErrorCallback(hdma);
 8000800:	4718      	bx	r3
  else if ((RESET != (flag_it & (DMA_FLAG_TC1 << hdma->ChannelIndex))) && (RESET != (source_it & DMA_IT_TC)))
 8000802:	2402      	movs	r4, #2
 8000804:	4094      	lsls	r4, r2
 8000806:	4226      	tst	r6, r4
 8000808:	d012      	beq.n	8000830 <HAL_DMA_IRQHandler+0x60>
 800080a:	f015 0f02 	tst.w	r5, #2
 800080e:	d00f      	beq.n	8000830 <HAL_DMA_IRQHandler+0x60>
    if((hdma->Instance->CCR & DMA_CCR_CIRC) == 0)
 8000810:	681a      	ldr	r2, [r3, #0]
 8000812:	0695      	lsls	r5, r2, #26
 8000814:	d406      	bmi.n	8000824 <HAL_DMA_IRQHandler+0x54>
      __HAL_DMA_DISABLE_IT(hdma, DMA_IT_TE | DMA_IT_TC);
 8000816:	681a      	ldr	r2, [r3, #0]
 8000818:	f022 020a 	bic.w	r2, r2, #10
 800081c:	601a      	str	r2, [r3, #0]
      hdma->State = HAL_DMA_STATE_READY;
 800081e:	2301      	movs	r3, #1
 8000820:	f880 3025 	strb.w	r3, [r0, #37]	; 0x25
    __HAL_UNLOCK(hdma);
 8000824:	2300      	movs	r3, #0
    hdma->DmaBaseAddress->IFCR = (DMA_ISR_TCIF1 << hdma->ChannelIndex);
 8000826:	604c      	str	r4, [r1, #4]
    __HAL_UNLOCK(hdma);
 8000828:	f880 3024 	strb.w	r3, [r0, #36]	; 0x24
    if(hdma->XferCpltCallback != NULL)
 800082c:	6ac3      	ldr	r3, [r0, #44]	; 0x2c
 800082e:	e7e5      	b.n	80007fc <HAL_DMA_IRQHandler+0x2c>
  else if (( RESET != (flag_it & (DMA_FLAG_TE1 << hdma->ChannelIndex))) && (RESET != (source_it & DMA_IT_TE)))
 8000830:	2408      	movs	r4, #8
 8000832:	4094      	lsls	r4, r2
 8000834:	4234      	tst	r4, r6
 8000836:	d011      	beq.n	800085c <HAL_DMA_IRQHandler+0x8c>
 8000838:	072c      	lsls	r4, r5, #28
 800083a:	d50f      	bpl.n	800085c <HAL_DMA_IRQHandler+0x8c>
    __HAL_DMA_DISABLE_IT(hdma, (DMA_IT_TC | DMA_IT_HT | DMA_IT_TE));
 800083c:	681c      	ldr	r4, [r3, #0]
 800083e:	f024 040e 	bic.w	r4, r4, #14
 8000842:	601c      	str	r4, [r3, #0]
    hdma->DmaBaseAddress->IFCR = (DMA_ISR_GIF1 << hdma->ChannelIndex);
 8000844:	2301      	movs	r3, #1
 8000846:	fa03 f202 	lsl.w	r2, r3, r2
 800084a:	604a      	str	r2, [r1, #4]
    hdma->ErrorCode = HAL_DMA_ERROR_TE;
 800084c:	63c3      	str	r3, [r0, #60]	; 0x3c
    hdma->State = HAL_DMA_STATE_READY;
 800084e:	f880 3025 	strb.w	r3, [r0, #37]	; 0x25
    __HAL_UNLOCK(hdma);
 8000852:	2300      	movs	r3, #0
 8000854:	f880 3024 	strb.w	r3, [r0, #36]	; 0x24
    if (hdma->XferErrorCallback != NULL)
 8000858:	6b43      	ldr	r3, [r0, #52]	; 0x34
 800085a:	e7cf      	b.n	80007fc <HAL_DMA_IRQHandler+0x2c>
}
 800085c:	bc70      	pop	{r4, r5, r6}
 800085e:	4770      	bx	lr

08000860 <HAL_GPIO_Init>:
  * @param  GPIO_Init: pointer to a GPIO_InitTypeDef structure that contains
  *         the configuration information for the specified GPIO peripheral.
  * @retval None
  */
void HAL_GPIO_Init(GPIO_TypeDef  *GPIOx, GPIO_InitTypeDef *GPIO_Init)
{
 8000860:	e92d 4ff0 	stmdb	sp!, {r4, r5, r6, r7, r8, r9, sl, fp, lr}
 8000864:	b085      	sub	sp, #20
  assert_param(IS_GPIO_PIN(GPIO_Init->Pin));
  assert_param(IS_GPIO_MODE(GPIO_Init->Mode));
  assert_param(IS_GPIO_PULL(GPIO_Init->Pull));

  /* Configure the port pins */
  while (((GPIO_Init->Pin) >> position) != RESET)
 8000866:	680b      	ldr	r3, [r1, #0]
      /*--------------------- EXTI Mode Configuration ------------------------*/
      /* Configure the External Interrupt or event for the current IO */
      if((GPIO_Init->Mode & EXTI_MODE) == EXTI_MODE)
      {
        /* Enable SYSCFG Clock */
        __HAL_RCC_SYSCFG_CLK_ENABLE();
 8000868:	f8df 8158 	ldr.w	r8, [pc, #344]	; 80009c4 <HAL_GPIO_Init+0x164>
        temp &= ~(((uint32_t)0x0F) << (4 * (position & 0x03)));
        temp |= (GPIO_GET_INDEX(GPIOx) << (4 * (position & 0x03)));
        SYSCFG->EXTICR[position >> 2] = temp;

        /* Clear EXTI line configuration */
        temp = EXTI->IMR1;
 800086c:	4a53      	ldr	r2, [pc, #332]	; (80009bc <HAL_GPIO_Init+0x15c>)
  while (((GPIO_Init->Pin) >> position) != RESET)
 800086e:	9301      	str	r3, [sp, #4]
        temp &= ~(((uint32_t)0x0F) << (4 * (position & 0x03)));
 8000870:	f04f 090f 	mov.w	r9, #15
  uint32_t position = 0x00;
 8000874:	2300      	movs	r3, #0
  while (((GPIO_Init->Pin) >> position) != RESET)
 8000876:	9c01      	ldr	r4, [sp, #4]
 8000878:	40dc      	lsrs	r4, r3
 800087a:	d102      	bne.n	8000882 <HAL_GPIO_Init+0x22>
      }
    }
    
    position++;
  }
}
 800087c:	b005      	add	sp, #20
 800087e:	e8bd 8ff0 	ldmia.w	sp!, {r4, r5, r6, r7, r8, r9, sl, fp, pc}
    iocurrent = (GPIO_Init->Pin) & (1U << position);
 8000882:	2401      	movs	r4, #1
 8000884:	fa04 fa03 	lsl.w	sl, r4, r3
    if(iocurrent)
 8000888:	9c01      	ldr	r4, [sp, #4]
 800088a:	ea14 050a 	ands.w	r5, r4, sl
 800088e:	f000 808f 	beq.w	80009b0 <HAL_GPIO_Init+0x150>
      if((GPIO_Init->Mode == GPIO_MODE_AF_PP) || (GPIO_Init->Mode == GPIO_MODE_AF_OD))
 8000892:	684c      	ldr	r4, [r1, #4]
 8000894:	f024 0b10 	bic.w	fp, r4, #16
 8000898:	f1bb 0f02 	cmp.w	fp, #2
 800089c:	d111      	bne.n	80008c2 <HAL_GPIO_Init+0x62>
        temp = GPIOx->AFR[position >> 3];
 800089e:	08df      	lsrs	r7, r3, #3
 80008a0:	eb00 0787 	add.w	r7, r0, r7, lsl #2
        temp &= ~((uint32_t)0xF << ((uint32_t)(position & (uint32_t)0x07) * 4)) ;
 80008a4:	f003 0e07 	and.w	lr, r3, #7
        temp = GPIOx->AFR[position >> 3];
 80008a8:	6a3e      	ldr	r6, [r7, #32]
        temp &= ~((uint32_t)0xF << ((uint32_t)(position & (uint32_t)0x07) * 4)) ;
 80008aa:	ea4f 0e8e 	mov.w	lr, lr, lsl #2
 80008ae:	fa09 fc0e 	lsl.w	ip, r9, lr
 80008b2:	ea26 0c0c 	bic.w	ip, r6, ip
        temp |= ((uint32_t)(GPIO_Init->Alternate) << (((uint32_t)position & (uint32_t)0x07) * 4));
 80008b6:	690e      	ldr	r6, [r1, #16]
 80008b8:	fa06 f60e 	lsl.w	r6, r6, lr
 80008bc:	ea46 060c 	orr.w	r6, r6, ip
        GPIOx->AFR[position >> 3] = temp;
 80008c0:	623e      	str	r6, [r7, #32]
 80008c2:	ea4f 0c43 	mov.w	ip, r3, lsl #1
      temp &= ~(GPIO_MODER_MODE0 << (position * 2));
 80008c6:	2703      	movs	r7, #3
      temp = GPIOx->MODER;
 80008c8:	6806      	ldr	r6, [r0, #0]
      temp &= ~(GPIO_MODER_MODE0 << (position * 2));
 80008ca:	fa07 f70c 	lsl.w	r7, r7, ip
 80008ce:	43ff      	mvns	r7, r7
      temp |= ((GPIO_Init->Mode & GPIO_MODE) << (position * 2));
 80008d0:	f004 0e03 	and.w	lr, r4, #3
      temp &= ~(GPIO_MODER_MODE0 << (position * 2));
 80008d4:	403e      	ands	r6, r7
      temp |= ((GPIO_Init->Mode & GPIO_MODE) << (position * 2));
 80008d6:	fa0e fe0c 	lsl.w	lr, lr, ip
      if((GPIO_Init->Mode == GPIO_MODE_OUTPUT_PP) || (GPIO_Init->Mode == GPIO_MODE_AF_PP) ||
 80008da:	f10b 3bff 	add.w	fp, fp, #4294967295
      temp |= ((GPIO_Init->Mode & GPIO_MODE) << (position * 2));
 80008de:	ea4e 0606 	orr.w	r6, lr, r6
      if((GPIO_Init->Mode == GPIO_MODE_OUTPUT_PP) || (GPIO_Init->Mode == GPIO_MODE_AF_PP) ||
 80008e2:	f1bb 0f01 	cmp.w	fp, #1
      GPIOx->MODER = temp;
 80008e6:	6006      	str	r6, [r0, #0]
      if((GPIO_Init->Mode == GPIO_MODE_OUTPUT_PP) || (GPIO_Init->Mode == GPIO_MODE_AF_PP) ||
 80008e8:	d811      	bhi.n	800090e <HAL_GPIO_Init+0xae>
        temp = GPIOx->OSPEEDR;
 80008ea:	6886      	ldr	r6, [r0, #8]
        temp &= ~(GPIO_OSPEEDR_OSPEED0 << (position * 2));
 80008ec:	ea06 0b07 	and.w	fp, r6, r7
        temp |= (GPIO_Init->Speed << (position * 2));
 80008f0:	68ce      	ldr	r6, [r1, #12]
 80008f2:	fa06 fe0c 	lsl.w	lr, r6, ip
 80008f6:	ea4e 060b 	orr.w	r6, lr, fp
        GPIOx->OSPEEDR = temp;
 80008fa:	6086      	str	r6, [r0, #8]
        temp = GPIOx->OTYPER;
 80008fc:	6846      	ldr	r6, [r0, #4]
        temp &= ~(GPIO_OTYPER_OT0 << position) ;
 80008fe:	ea26 0a0a 	bic.w	sl, r6, sl
        temp |= (((GPIO_Init->Mode & GPIO_OUTPUT_TYPE) >> 4) << position);
 8000902:	f3c4 1600 	ubfx	r6, r4, #4, #1
 8000906:	409e      	lsls	r6, r3
 8000908:	ea46 060a 	orr.w	r6, r6, sl
        GPIOx->OTYPER = temp;
 800090c:	6046      	str	r6, [r0, #4]
      temp = GPIOx->PUPDR;
 800090e:	68c6      	ldr	r6, [r0, #12]
      temp &= ~(GPIO_PUPDR_PUPD0 << (position * 2));
 8000910:	4037      	ands	r7, r6
      temp |= ((GPIO_Init->Pull) << (position * 2));
 8000912:	688e      	ldr	r6, [r1, #8]
 8000914:	fa06 f60c 	lsl.w	r6, r6, ip
 8000918:	4337      	orrs	r7, r6
      if((GPIO_Init->Mode & EXTI_MODE) == EXTI_MODE)
 800091a:	00e6      	lsls	r6, r4, #3
      GPIOx->PUPDR = temp;
 800091c:	60c7      	str	r7, [r0, #12]
      if((GPIO_Init->Mode & EXTI_MODE) == EXTI_MODE)
 800091e:	d547      	bpl.n	80009b0 <HAL_GPIO_Init+0x150>
        __HAL_RCC_SYSCFG_CLK_ENABLE();
 8000920:	f8d8 6060 	ldr.w	r6, [r8, #96]	; 0x60
 8000924:	f046 0601 	orr.w	r6, r6, #1
 8000928:	f8c8 6060 	str.w	r6, [r8, #96]	; 0x60
 800092c:	f8d8 6060 	ldr.w	r6, [r8, #96]	; 0x60
 8000930:	f023 0703 	bic.w	r7, r3, #3
 8000934:	f107 4780 	add.w	r7, r7, #1073741824	; 0x40000000
 8000938:	f006 0601 	and.w	r6, r6, #1
 800093c:	f507 3780 	add.w	r7, r7, #65536	; 0x10000
 8000940:	9603      	str	r6, [sp, #12]
        temp &= ~(((uint32_t)0x0F) << (4 * (position & 0x03)));
 8000942:	f003 0e03 	and.w	lr, r3, #3
        __HAL_RCC_SYSCFG_CLK_ENABLE();
 8000946:	9e03      	ldr	r6, [sp, #12]
        temp = SYSCFG->EXTICR[position >> 2];
 8000948:	68be      	ldr	r6, [r7, #8]
        temp &= ~(((uint32_t)0x0F) << (4 * (position & 0x03)));
 800094a:	ea4f 0e8e 	mov.w	lr, lr, lsl #2
 800094e:	fa09 fc0e 	lsl.w	ip, r9, lr
        temp |= (GPIO_GET_INDEX(GPIOx) << (4 * (position & 0x03)));
 8000952:	f1b0 4f90 	cmp.w	r0, #1207959552	; 0x48000000
        temp &= ~(((uint32_t)0x0F) << (4 * (position & 0x03)));
 8000956:	ea26 0c0c 	bic.w	ip, r6, ip
        temp |= (GPIO_GET_INDEX(GPIOx) << (4 * (position & 0x03)));
 800095a:	d02b      	beq.n	80009b4 <HAL_GPIO_Init+0x154>
 800095c:	4e18      	ldr	r6, [pc, #96]	; (80009c0 <HAL_GPIO_Init+0x160>)
 800095e:	42b0      	cmp	r0, r6
 8000960:	d02a      	beq.n	80009b8 <HAL_GPIO_Init+0x158>
 8000962:	f506 6680 	add.w	r6, r6, #1024	; 0x400
 8000966:	42b0      	cmp	r0, r6
 8000968:	bf14      	ite	ne
 800096a:	2607      	movne	r6, #7
 800096c:	2602      	moveq	r6, #2
 800096e:	fa06 f60e 	lsl.w	r6, r6, lr
 8000972:	ea46 060c 	orr.w	r6, r6, ip
        SYSCFG->EXTICR[position >> 2] = temp;
 8000976:	60be      	str	r6, [r7, #8]
        temp = EXTI->IMR1;
 8000978:	6816      	ldr	r6, [r2, #0]
        temp &= ~((uint32_t)iocurrent);
 800097a:	43ef      	mvns	r7, r5
        if((GPIO_Init->Mode & GPIO_MODE_IT) == GPIO_MODE_IT)
 800097c:	f414 3f80 	tst.w	r4, #65536	; 0x10000
        temp &= ~((uint32_t)iocurrent);
 8000980:	bf0c      	ite	eq
 8000982:	403e      	andeq	r6, r7
          temp |= iocurrent;
 8000984:	432e      	orrne	r6, r5
        EXTI->IMR1 = temp;
 8000986:	6016      	str	r6, [r2, #0]
        temp = EXTI->EMR1;
 8000988:	6856      	ldr	r6, [r2, #4]
        if((GPIO_Init->Mode & GPIO_MODE_EVT) == GPIO_MODE_EVT)
 800098a:	f414 3f00 	tst.w	r4, #131072	; 0x20000
        temp &= ~((uint32_t)iocurrent);
 800098e:	bf0c      	ite	eq
 8000990:	403e      	andeq	r6, r7
          temp |= iocurrent;
 8000992:	432e      	orrne	r6, r5
        EXTI->EMR1 = temp;
 8000994:	6056      	str	r6, [r2, #4]
        temp = EXTI->RTSR1;
 8000996:	6896      	ldr	r6, [r2, #8]
        if((GPIO_Init->Mode & RISING_EDGE) == RISING_EDGE)
 8000998:	f414 1f80 	tst.w	r4, #1048576	; 0x100000
        temp &= ~((uint32_t)iocurrent);
 800099c:	bf0c      	ite	eq
 800099e:	403e      	andeq	r6, r7
          temp |= iocurrent;
 80009a0:	432e      	orrne	r6, r5
        EXTI->RTSR1 = temp;
 80009a2:	6096      	str	r6, [r2, #8]
        temp = EXTI->FTSR1;
 80009a4:	68d6      	ldr	r6, [r2, #12]
        if((GPIO_Init->Mode & FALLING_EDGE) == FALLING_EDGE)
 80009a6:	02a4      	lsls	r4, r4, #10
        temp &= ~((uint32_t)iocurrent);
 80009a8:	bf54      	ite	pl
 80009aa:	403e      	andpl	r6, r7
          temp |= iocurrent;
 80009ac:	432e      	orrmi	r6, r5
        EXTI->FTSR1 = temp;
 80009ae:	60d6      	str	r6, [r2, #12]
    position++;
 80009b0:	3301      	adds	r3, #1
 80009b2:	e760      	b.n	8000876 <HAL_GPIO_Init+0x16>
        temp |= (GPIO_GET_INDEX(GPIOx) << (4 * (position & 0x03)));
 80009b4:	2600      	movs	r6, #0
 80009b6:	e7da      	b.n	800096e <HAL_GPIO_Init+0x10e>
 80009b8:	2601      	movs	r6, #1
 80009ba:	e7d8      	b.n	800096e <HAL_GPIO_Init+0x10e>
 80009bc:	40010400 	.word	0x40010400
 80009c0:	48000400 	.word	0x48000400
 80009c4:	40021000 	.word	0x40021000

080009c8 <HAL_GPIO_ReadPin>:
  GPIO_PinState bitstatus;

  /* Check the parameters */
  assert_param(IS_GPIO_PIN(GPIO_Pin));

  if((GPIOx->IDR & GPIO_Pin) != (uint32_t)GPIO_PIN_RESET)
 80009c8:	6903      	ldr	r3, [r0, #16]
 80009ca:	4219      	tst	r1, r3
  else
  {
    bitstatus = GPIO_PIN_RESET;
  }
  return bitstatus;
}
 80009cc:	bf14      	ite	ne
 80009ce:	2001      	movne	r0, #1
 80009d0:	2000      	moveq	r0, #0
 80009d2:	4770      	bx	lr

080009d4 <HAL_GPIO_WritePin>:
{
  /* Check the parameters */
  assert_param(IS_GPIO_PIN(GPIO_Pin));
  assert_param(IS_GPIO_PIN_ACTION(PinState));

  if(PinState != GPIO_PIN_RESET)
 80009d4:	b10a      	cbz	r2, 80009da <HAL_GPIO_WritePin+0x6>
  {
    GPIOx->BSRR = (uint32_t)GPIO_Pin;
 80009d6:	6181      	str	r1, [r0, #24]
 80009d8:	4770      	bx	lr
  }
  else
  {
    GPIOx->BRR = (uint32_t)GPIO_Pin;
 80009da:	6281      	str	r1, [r0, #40]	; 0x28
 80009dc:	4770      	bx	lr

080009de <HAL_PCD_Init>:
  *         parameters in the PCD_InitTypeDef and initialize the associated handle.
  * @param  hpcd: PCD handle
  * @retval HAL status
  */
HAL_StatusTypeDef HAL_PCD_Init(PCD_HandleTypeDef *hpcd)
{
 80009de:	e92d 41f0 	stmdb	sp!, {r4, r5, r6, r7, r8, lr}
  uint32_t index = 0U;
  
  /* Check the PCD handle allocation */
  if(hpcd == NULL)
 80009e2:	4604      	mov	r4, r0
{
 80009e4:	b086      	sub	sp, #24
  if(hpcd == NULL)
 80009e6:	2800      	cmp	r0, #0
 80009e8:	d077      	beq.n	8000ada <HAL_PCD_Init+0xfc>
  }
  
  /* Check the parameters */
  assert_param(IS_PCD_ALL_INSTANCE(hpcd->Instance));
  
  if(hpcd->State == HAL_PCD_STATE_RESET)
 80009ea:	f890 33ed 	ldrb.w	r3, [r0, #1005]	; 0x3ed
 80009ee:	f003 02ff 	and.w	r2, r3, #255	; 0xff
 80009f2:	b91b      	cbnz	r3, 80009fc <HAL_PCD_Init+0x1e>
  {
    /* Allocate lock resource and initialize it */
    hpcd->Lock = HAL_UNLOCKED;
 80009f4:	f880 23ec 	strb.w	r2, [r0, #1004]	; 0x3ec

    /* Init the low level hardware : GPIO, CLOCK, NVIC... */
    HAL_PCD_MspInit(hpcd);
 80009f8:	f003 fbee 	bl	80041d8 <HAL_PCD_MspInit>
  }

  hpcd->State = HAL_PCD_STATE_BUSY;

  /* Disable the Interrupts */
  __HAL_PCD_DISABLE(hpcd);
 80009fc:	4625      	mov	r5, r4
  hpcd->State = HAL_PCD_STATE_BUSY;
 80009fe:	2303      	movs	r3, #3
  __HAL_PCD_DISABLE(hpcd);
 8000a00:	f855 0b10 	ldr.w	r0, [r5], #16
  hpcd->State = HAL_PCD_STATE_BUSY;
 8000a04:	f884 33ed 	strb.w	r3, [r4, #1005]	; 0x3ed
  __HAL_PCD_DISABLE(hpcd);
 8000a08:	f001 fffe 	bl	8002a08 <USB_DisableGlobalInt>

  /*Init the Core (common init.) */
  USB_CoreInit(hpcd->Instance, hpcd->Init);
 8000a0c:	cd0f      	ldmia	r5!, {r0, r1, r2, r3}
 8000a0e:	466e      	mov	r6, sp
 8000a10:	c60f      	stmia	r6!, {r0, r1, r2, r3}
 8000a12:	e895 0003 	ldmia.w	r5, {r0, r1}
 8000a16:	e886 0003 	stmia.w	r6, {r0, r1}
 8000a1a:	f104 0804 	add.w	r8, r4, #4
 8000a1e:	e898 000e 	ldmia.w	r8, {r1, r2, r3}
 8000a22:	6820      	ldr	r0, [r4, #0]
 8000a24:	f001 ffe0 	bl	80029e8 <USB_CoreInit>

  /* Force Device Mode*/
  USB_SetCurrentMode(hpcd->Instance , USB_DEVICE_MODE);
 8000a28:	2100      	movs	r1, #0
 8000a2a:	6820      	ldr	r0, [r4, #0]
 8000a2c:	f001 fff6 	bl	8002a1c <USB_SetCurrentMode>

  /* Init endpoints structures */
  for (index = 0; index < hpcd->Init.dev_endpoints ; index++)
 8000a30:	2200      	movs	r2, #0
 8000a32:	6860      	ldr	r0, [r4, #4]
 8000a34:	f104 032c 	add.w	r3, r4, #44	; 0x2c
 8000a38:	f104 0510 	add.w	r5, r4, #16
  {
    /* Init ep structure */
    hpcd->IN_ep[index].is_in = 1;
 8000a3c:	2601      	movs	r6, #1
    hpcd->IN_ep[index].num = index;
    hpcd->IN_ep[index].tx_fifo_num = index;
    /* Control until ep is activated */
    hpcd->IN_ep[index].type = EP_TYPE_CTRL;
 8000a3e:	4611      	mov	r1, r2
  for (index = 0; index < hpcd->Init.dev_endpoints ; index++)
 8000a40:	4282      	cmp	r2, r0
 8000a42:	f103 0320 	add.w	r3, r3, #32
 8000a46:	d138      	bne.n	8000aba <HAL_PCD_Init+0xdc>
 8000a48:	2200      	movs	r2, #0
 8000a4a:	4623      	mov	r3, r4
    hpcd->IN_ep[index].xfer_len = 0;
  }
  
  for (index = 0; index < 15 ; index++)
  {
    hpcd->OUT_ep[index].is_in = 0;
 8000a4c:	4617      	mov	r7, r2
    hpcd->OUT_ep[index].num = index;
 8000a4e:	f883 220c 	strb.w	r2, [r3, #524]	; 0x20c
    hpcd->IN_ep[index].tx_fifo_num = index;
 8000a52:	871a      	strh	r2, [r3, #56]	; 0x38
  for (index = 0; index < 15 ; index++)
 8000a54:	3201      	adds	r2, #1
 8000a56:	2a0f      	cmp	r2, #15
    hpcd->OUT_ep[index].is_in = 0;
 8000a58:	f883 720d 	strb.w	r7, [r3, #525]	; 0x20d
    /* Control until ep is activated */
    hpcd->OUT_ep[index].type = EP_TYPE_CTRL;
 8000a5c:	f883 720f 	strb.w	r7, [r3, #527]	; 0x20f
    hpcd->OUT_ep[index].maxpacket = 0;
 8000a60:	f8c3 721c 	str.w	r7, [r3, #540]	; 0x21c
    hpcd->OUT_ep[index].xfer_buff = 0;
 8000a64:	f8c3 7220 	str.w	r7, [r3, #544]	; 0x220
    hpcd->OUT_ep[index].xfer_len = 0;
 8000a68:	f8c3 7224 	str.w	r7, [r3, #548]	; 0x224
 8000a6c:	f103 0320 	add.w	r3, r3, #32
  for (index = 0; index < 15 ; index++)
 8000a70:	d1ed      	bne.n	8000a4e <HAL_PCD_Init+0x70>
  }

  /* Init Device */
  USB_DevInit(hpcd->Instance, hpcd->Init);
 8000a72:	cd0f      	ldmia	r5!, {r0, r1, r2, r3}
 8000a74:	466e      	mov	r6, sp
 8000a76:	c60f      	stmia	r6!, {r0, r1, r2, r3}
 8000a78:	e895 0003 	ldmia.w	r5, {r0, r1}
 8000a7c:	e886 0003 	stmia.w	r6, {r0, r1}
 8000a80:	e898 000e 	ldmia.w	r8, {r1, r2, r3}
 8000a84:	6820      	ldr	r0, [r4, #0]
 8000a86:	f001 ffcb 	bl	8002a20 <USB_DevInit>

  hpcd->USB_Address = 0;
  
  hpcd->State= HAL_PCD_STATE_READY;
 8000a8a:	2301      	movs	r3, #1
  hpcd->USB_Address = 0;
 8000a8c:	f884 7028 	strb.w	r7, [r4, #40]	; 0x28
  hpcd->State= HAL_PCD_STATE_READY;
 8000a90:	f884 33ed 	strb.w	r3, [r4, #1005]	; 0x3ed
  
   /* Activate LPM */
  if (hpcd->Init.lpm_enable ==1)
 8000a94:	6a23      	ldr	r3, [r4, #32]
 8000a96:	2b01      	cmp	r3, #1
 8000a98:	d102      	bne.n	8000aa0 <HAL_PCD_Init+0xc2>
  {
    HAL_PCDEx_ActivateLPM(hpcd);
 8000a9a:	4620      	mov	r0, r4
 8000a9c:	f000 fc05 	bl	80012aa <HAL_PCDEx_ActivateLPM>
  }  
  /* Activate Battery charging */
  if (hpcd->Init.battery_charging_enable ==1)
 8000aa0:	6a63      	ldr	r3, [r4, #36]	; 0x24
 8000aa2:	2b01      	cmp	r3, #1
 8000aa4:	d102      	bne.n	8000aac <HAL_PCD_Init+0xce>
  {
    HAL_PCDEx_ActivateBCD(hpcd);
 8000aa6:	4620      	mov	r0, r4
 8000aa8:	f000 fbeb 	bl	8001282 <HAL_PCDEx_ActivateBCD>
  }
  USB_DevDisconnect (hpcd->Instance);  
 8000aac:	6820      	ldr	r0, [r4, #0]
 8000aae:	f002 fa99 	bl	8002fe4 <USB_DevDisconnect>
  return HAL_OK;
 8000ab2:	2000      	movs	r0, #0
}
 8000ab4:	b006      	add	sp, #24
 8000ab6:	e8bd 81f0 	ldmia.w	sp!, {r4, r5, r6, r7, r8, pc}
    hpcd->IN_ep[index].num = index;
 8000aba:	f803 2c20 	strb.w	r2, [r3, #-32]
    hpcd->IN_ep[index].tx_fifo_num = index;
 8000abe:	f823 2c14 	strh.w	r2, [r3, #-20]
    hpcd->IN_ep[index].is_in = 1;
 8000ac2:	f803 6c1f 	strb.w	r6, [r3, #-31]
    hpcd->IN_ep[index].type = EP_TYPE_CTRL;
 8000ac6:	f803 1c1d 	strb.w	r1, [r3, #-29]
    hpcd->IN_ep[index].maxpacket =  0;
 8000aca:	f843 1c10 	str.w	r1, [r3, #-16]
    hpcd->IN_ep[index].xfer_buff = 0;
 8000ace:	f843 1c0c 	str.w	r1, [r3, #-12]
    hpcd->IN_ep[index].xfer_len = 0;
 8000ad2:	f843 1c08 	str.w	r1, [r3, #-8]
  for (index = 0; index < hpcd->Init.dev_endpoints ; index++)
 8000ad6:	3201      	adds	r2, #1
 8000ad8:	e7b2      	b.n	8000a40 <HAL_PCD_Init+0x62>
    return HAL_ERROR;
 8000ada:	2001      	movs	r0, #1
 8000adc:	e7ea      	b.n	8000ab4 <HAL_PCD_Init+0xd6>

08000ade <HAL_PCD_Start>:
  * @param  hpcd: PCD handle
  * @retval HAL status
  */
HAL_StatusTypeDef HAL_PCD_Start(PCD_HandleTypeDef *hpcd)
{ 
  __HAL_LOCK(hpcd); 
 8000ade:	f890 33ec 	ldrb.w	r3, [r0, #1004]	; 0x3ec
 8000ae2:	2b01      	cmp	r3, #1
{ 
 8000ae4:	b510      	push	{r4, lr}
 8000ae6:	4604      	mov	r4, r0
  __HAL_LOCK(hpcd); 
 8000ae8:	d00c      	beq.n	8000b04 <HAL_PCD_Start+0x26>
 8000aea:	2301      	movs	r3, #1
 8000aec:	f880 33ec 	strb.w	r3, [r0, #1004]	; 0x3ec
  USB_DevConnect (hpcd->Instance);
 8000af0:	6800      	ldr	r0, [r0, #0]
 8000af2:	f002 fa69 	bl	8002fc8 <USB_DevConnect>
  __HAL_PCD_ENABLE(hpcd);
 8000af6:	6820      	ldr	r0, [r4, #0]
 8000af8:	f001 ff7d 	bl	80029f6 <USB_EnableGlobalInt>
  __HAL_UNLOCK(hpcd); 
 8000afc:	2000      	movs	r0, #0
 8000afe:	f884 03ec 	strb.w	r0, [r4, #1004]	; 0x3ec
  return HAL_OK;
 8000b02:	bd10      	pop	{r4, pc}
  __HAL_LOCK(hpcd); 
 8000b04:	2002      	movs	r0, #2
}
 8000b06:	bd10      	pop	{r4, pc}

08000b08 <HAL_PCD_SetAddress>:
  * @param  address: new device address
  * @retval HAL status
  */
HAL_StatusTypeDef HAL_PCD_SetAddress(PCD_HandleTypeDef *hpcd, uint8_t address)
{
  __HAL_LOCK(hpcd); 
 8000b08:	f890 23ec 	ldrb.w	r2, [r0, #1004]	; 0x3ec
 8000b0c:	2a01      	cmp	r2, #1
{
 8000b0e:	b510      	push	{r4, lr}
 8000b10:	4604      	mov	r4, r0
  __HAL_LOCK(hpcd); 
 8000b12:	d00b      	beq.n	8000b2c <HAL_PCD_SetAddress+0x24>
 8000b14:	2201      	movs	r2, #1
 8000b16:	f880 23ec 	strb.w	r2, [r0, #1004]	; 0x3ec
  hpcd->USB_Address = address;
 8000b1a:	f884 1028 	strb.w	r1, [r4, #40]	; 0x28
  USB_SetDevAddress(hpcd->Instance, address);
 8000b1e:	6800      	ldr	r0, [r0, #0]
 8000b20:	f002 fa4b 	bl	8002fba <USB_SetDevAddress>
  __HAL_UNLOCK(hpcd);   
 8000b24:	2000      	movs	r0, #0
 8000b26:	f884 03ec 	strb.w	r0, [r4, #1004]	; 0x3ec
 8000b2a:	bd10      	pop	{r4, pc}
  __HAL_LOCK(hpcd); 
 8000b2c:	2002      	movs	r0, #2
  return HAL_OK;
}
 8000b2e:	bd10      	pop	{r4, pc}

08000b30 <HAL_PCD_EP_Open>:
  * @param  ep_mps: endpoint max packet size
  * @param  ep_type: endpoint type   
  * @retval HAL status
  */
HAL_StatusTypeDef HAL_PCD_EP_Open(PCD_HandleTypeDef *hpcd, uint8_t ep_addr, uint16_t ep_mps, uint8_t ep_type)
{
 8000b30:	b570      	push	{r4, r5, r6, lr}
 8000b32:	4604      	mov	r4, r0
  HAL_StatusTypeDef  ret = HAL_OK;
  PCD_EPTypeDef *ep = NULL;
  
  if ((ep_addr & 0x80) == 0x80)
 8000b34:	b248      	sxtb	r0, r1
 8000b36:	2800      	cmp	r0, #0
 8000b38:	f001 067f 	and.w	r6, r1, #127	; 0x7f
 8000b3c:	f04f 0520 	mov.w	r5, #32
  {
    ep = &hpcd->IN_ep[ep_addr & 0x7F];
 8000b40:	bfb5      	itete	lt
 8000b42:	fb05 4106 	mlalt	r1, r5, r6, r4
  }
  else
  {
    ep = &hpcd->OUT_ep[ep_addr & 0x7F];
 8000b46:	fb05 4101 	mlage	r1, r5, r1, r4
    ep = &hpcd->IN_ep[ep_addr & 0x7F];
 8000b4a:	312c      	addlt	r1, #44	; 0x2c
    ep = &hpcd->OUT_ep[ep_addr & 0x7F];
 8000b4c:	f501 7103 	addge.w	r1, r1, #524	; 0x20c
  }
  ep->num   = ep_addr & 0x7F;
  
  ep->is_in = (0x80 & ep_addr) != 0;
 8000b50:	0fc0      	lsrs	r0, r0, #31
  ep->num   = ep_addr & 0x7F;
 8000b52:	700e      	strb	r6, [r1, #0]
  ep->is_in = (0x80 & ep_addr) != 0;
 8000b54:	7048      	strb	r0, [r1, #1]
  ep->maxpacket = ep_mps;
  ep->type = ep_type;
 8000b56:	70cb      	strb	r3, [r1, #3]
    
  __HAL_LOCK(hpcd);
 8000b58:	f894 33ec 	ldrb.w	r3, [r4, #1004]	; 0x3ec
  ep->maxpacket = ep_mps;
 8000b5c:	610a      	str	r2, [r1, #16]
  __HAL_LOCK(hpcd);
 8000b5e:	2b01      	cmp	r3, #1
 8000b60:	d009      	beq.n	8000b76 <HAL_PCD_EP_Open+0x46>
 8000b62:	2301      	movs	r3, #1
 8000b64:	f884 33ec 	strb.w	r3, [r4, #1004]	; 0x3ec
  USB_ActivateEndpoint(hpcd->Instance , ep);
 8000b68:	6820      	ldr	r0, [r4, #0]
 8000b6a:	f001 ff6d 	bl	8002a48 <USB_ActivateEndpoint>
  __HAL_UNLOCK(hpcd);
 8000b6e:	2000      	movs	r0, #0
 8000b70:	f884 03ec 	strb.w	r0, [r4, #1004]	; 0x3ec
  return ret;
 8000b74:	bd70      	pop	{r4, r5, r6, pc}
  __HAL_LOCK(hpcd);
 8000b76:	2002      	movs	r0, #2

}
 8000b78:	bd70      	pop	{r4, r5, r6, pc}

08000b7a <HAL_PCD_EP_Close>:
  */
HAL_StatusTypeDef HAL_PCD_EP_Close(PCD_HandleTypeDef *hpcd, uint8_t ep_addr)
{  
  PCD_EPTypeDef *ep = NULL;
  
  if ((ep_addr & 0x80) == 0x80)
 8000b7a:	b24b      	sxtb	r3, r1
 8000b7c:	2b00      	cmp	r3, #0
{  
 8000b7e:	b510      	push	{r4, lr}
 8000b80:	f04f 0220 	mov.w	r2, #32
 8000b84:	4604      	mov	r4, r0
 8000b86:	f001 007f 	and.w	r0, r1, #127	; 0x7f
  {
    ep = &hpcd->IN_ep[ep_addr & 0x7F];
 8000b8a:	bfb5      	itete	lt
 8000b8c:	fb02 4100 	mlalt	r1, r2, r0, r4
  }
  else
  {
    ep = &hpcd->OUT_ep[ep_addr & 0x7F];
 8000b90:	fb02 4101 	mlage	r1, r2, r1, r4
    ep = &hpcd->IN_ep[ep_addr & 0x7F];
 8000b94:	312c      	addlt	r1, #44	; 0x2c
    ep = &hpcd->OUT_ep[ep_addr & 0x7F];
 8000b96:	f501 7103 	addge.w	r1, r1, #524	; 0x20c
  }
  ep->num   = ep_addr & 0x7F;
  
  ep->is_in = (0x80 & ep_addr) != 0;
 8000b9a:	0fdb      	lsrs	r3, r3, #31
  ep->num   = ep_addr & 0x7F;
 8000b9c:	7008      	strb	r0, [r1, #0]
  ep->is_in = (0x80 & ep_addr) != 0;
 8000b9e:	704b      	strb	r3, [r1, #1]
  
  __HAL_LOCK(hpcd); 
 8000ba0:	f894 33ec 	ldrb.w	r3, [r4, #1004]	; 0x3ec
 8000ba4:	2b01      	cmp	r3, #1
 8000ba6:	d009      	beq.n	8000bbc <HAL_PCD_EP_Close+0x42>
 8000ba8:	2301      	movs	r3, #1
 8000baa:	f884 33ec 	strb.w	r3, [r4, #1004]	; 0x3ec
  USB_DeactivateEndpoint(hpcd->Instance , ep);
 8000bae:	6820      	ldr	r0, [r4, #0]
 8000bb0:	f002 f8be 	bl	8002d30 <USB_DeactivateEndpoint>
  __HAL_UNLOCK(hpcd);   
 8000bb4:	2000      	movs	r0, #0
 8000bb6:	f884 03ec 	strb.w	r0, [r4, #1004]	; 0x3ec
  return HAL_OK;
 8000bba:	bd10      	pop	{r4, pc}
  __HAL_LOCK(hpcd); 
 8000bbc:	2002      	movs	r0, #2
}
 8000bbe:	bd10      	pop	{r4, pc}

08000bc0 <HAL_PCD_EP_Receive>:
  * @param  pBuf: pointer to the reception buffer   
  * @param  len: amount of data to be received
  * @retval HAL status
  */
HAL_StatusTypeDef HAL_PCD_EP_Receive(PCD_HandleTypeDef *hpcd, uint8_t ep_addr, uint8_t *pBuf, uint32_t len)
{
 8000bc0:	b570      	push	{r4, r5, r6, lr}
 8000bc2:	f001 017f 	and.w	r1, r1, #127	; 0x7f
  PCD_EPTypeDef *ep = NULL;
  
  ep = &hpcd->OUT_ep[ep_addr & 0x7F];
  
  /*setup and start the Xfer */
  ep->xfer_buff = pBuf;  
 8000bc6:	eb00 1641 	add.w	r6, r0, r1, lsl #5
  ep->xfer_len = len;
  ep->xfer_count = 0;
 8000bca:	2500      	movs	r5, #0
 8000bcc:	014c      	lsls	r4, r1, #5
  ep->is_in = 0;
  ep->num = ep_addr & 0x7F;
 8000bce:	f886 120c 	strb.w	r1, [r6, #524]	; 0x20c
  ep->xfer_buff = pBuf;  
 8000bd2:	f8c6 2220 	str.w	r2, [r6, #544]	; 0x220
  ep->xfer_len = len;
 8000bd6:	f8c6 3224 	str.w	r3, [r6, #548]	; 0x224
  ep->xfer_count = 0;
 8000bda:	f8c6 5228 	str.w	r5, [r6, #552]	; 0x228
  ep->is_in = 0;
 8000bde:	f886 520d 	strb.w	r5, [r6, #525]	; 0x20d
  ep = &hpcd->OUT_ep[ep_addr & 0x7F];
 8000be2:	f504 7103 	add.w	r1, r4, #524	; 0x20c
  {
    USB_EP0StartXfer(hpcd->Instance, ep, hpcd->Init.dma_enable);
  }
  else
  {
    USB_EPStartXfer(hpcd->Instance, ep, hpcd->Init.dma_enable);
 8000be6:	7b02      	ldrb	r2, [r0, #12]
 8000be8:	4401      	add	r1, r0
 8000bea:	6800      	ldr	r0, [r0, #0]
 8000bec:	f002 fa20 	bl	8003030 <USB_EPStartXfer>
  }

  return HAL_OK;
}
 8000bf0:	4628      	mov	r0, r5
 8000bf2:	bd70      	pop	{r4, r5, r6, pc}

08000bf4 <HAL_PCD_EP_GetRxCount>:
  * @param  ep_addr: endpoint address
  * @retval Data Size
  */
uint16_t HAL_PCD_EP_GetRxCount(PCD_HandleTypeDef *hpcd, uint8_t ep_addr)
{
  return hpcd->OUT_ep[ep_addr & 0x7F].xfer_count;
 8000bf4:	f001 017f 	and.w	r1, r1, #127	; 0x7f
 8000bf8:	eb00 1141 	add.w	r1, r0, r1, lsl #5
}
 8000bfc:	f8b1 0228 	ldrh.w	r0, [r1, #552]	; 0x228
 8000c00:	4770      	bx	lr

08000c02 <HAL_PCD_EP_Transmit>:
  * @param  pBuf: pointer to the transmission buffer   
  * @param  len: amount of data to be sent
  * @retval HAL status
  */
HAL_StatusTypeDef HAL_PCD_EP_Transmit(PCD_HandleTypeDef *hpcd, uint8_t ep_addr, uint8_t *pBuf, uint32_t len)
{
 8000c02:	f001 017f 	and.w	r1, r1, #127	; 0x7f
 8000c06:	b570      	push	{r4, r5, r6, lr}
  PCD_EPTypeDef *ep = NULL;
  
  ep = &hpcd->IN_ep[ep_addr & 0x7F];
  
  /*setup and start the Xfer */
  ep->xfer_buff = pBuf;  
 8000c08:	eb00 1541 	add.w	r5, r0, r1, lsl #5
  ep->xfer_len = len;
  ep->xfer_count = 0;
 8000c0c:	2600      	movs	r6, #0
  ep->xfer_len = len;
 8000c0e:	646b      	str	r3, [r5, #68]	; 0x44
 8000c10:	014c      	lsls	r4, r1, #5
  ep->is_in = 1;
 8000c12:	2301      	movs	r3, #1
  ep->num = ep_addr & 0x7F;
 8000c14:	f885 102c 	strb.w	r1, [r5, #44]	; 0x2c
  ep->xfer_buff = pBuf;  
 8000c18:	642a      	str	r2, [r5, #64]	; 0x40
  ep->xfer_count = 0;
 8000c1a:	64ae      	str	r6, [r5, #72]	; 0x48
  ep->is_in = 1;
 8000c1c:	f885 302d 	strb.w	r3, [r5, #45]	; 0x2d
  ep = &hpcd->IN_ep[ep_addr & 0x7F];
 8000c20:	f104 012c 	add.w	r1, r4, #44	; 0x2c
  {
    USB_EP0StartXfer(hpcd->Instance,ep,  hpcd->Init.dma_enable);
  }
  else
  {
    USB_EPStartXfer(hpcd->Instance, ep,  hpcd->Init.dma_enable);
 8000c24:	7b02      	ldrb	r2, [r0, #12]
 8000c26:	4401      	add	r1, r0
 8000c28:	6800      	ldr	r0, [r0, #0]
 8000c2a:	f002 fa01 	bl	8003030 <USB_EPStartXfer>
  }
  
  return HAL_OK;
}
 8000c2e:	4630      	mov	r0, r6
 8000c30:	bd70      	pop	{r4, r5, r6, pc}
	...

08000c34 <HAL_PCD_IRQHandler>:
{
 8000c34:	e92d 4ff7 	stmdb	sp!, {r0, r1, r2, r4, r5, r6, r7, r8, r9, sl, fp, lr}
 8000c38:	4604      	mov	r4, r0
  if (__HAL_PCD_GET_FLAG (hpcd, USB_ISTR_CTR))
 8000c3a:	6800      	ldr	r0, [r0, #0]
 8000c3c:	f002 f9de 	bl	8002ffc <USB_ReadInterrupts>
 8000c40:	0403      	lsls	r3, r0, #16
 8000c42:	f100 80e3 	bmi.w	8000e0c <HAL_PCD_IRQHandler+0x1d8>
  if (__HAL_PCD_GET_FLAG (hpcd, USB_ISTR_RESET))
 8000c46:	6820      	ldr	r0, [r4, #0]
 8000c48:	f002 f9d8 	bl	8002ffc <USB_ReadInterrupts>
 8000c4c:	0547      	lsls	r7, r0, #21
 8000c4e:	d50f      	bpl.n	8000c70 <HAL_PCD_IRQHandler+0x3c>
    __HAL_PCD_CLEAR_FLAG(hpcd, USB_ISTR_RESET);
 8000c50:	6822      	ldr	r2, [r4, #0]
 8000c52:	f8b2 3044 	ldrh.w	r3, [r2, #68]	; 0x44
 8000c56:	f423 6380 	bic.w	r3, r3, #1024	; 0x400
 8000c5a:	041b      	lsls	r3, r3, #16
 8000c5c:	0c1b      	lsrs	r3, r3, #16
    HAL_PCD_ResetCallback(hpcd);
 8000c5e:	4620      	mov	r0, r4
    __HAL_PCD_CLEAR_FLAG(hpcd, USB_ISTR_RESET);
 8000c60:	f8a2 3044 	strh.w	r3, [r2, #68]	; 0x44
    HAL_PCD_ResetCallback(hpcd);
 8000c64:	f003 faef 	bl	8004246 <HAL_PCD_ResetCallback>
    HAL_PCD_SetAddress(hpcd, 0);
 8000c68:	2100      	movs	r1, #0
 8000c6a:	4620      	mov	r0, r4
 8000c6c:	f7ff ff4c 	bl	8000b08 <HAL_PCD_SetAddress>
  if (__HAL_PCD_GET_FLAG (hpcd, USB_ISTR_PMAOVR))
 8000c70:	6820      	ldr	r0, [r4, #0]
 8000c72:	f002 f9c3 	bl	8002ffc <USB_ReadInterrupts>
 8000c76:	0443      	lsls	r3, r0, #17
 8000c78:	d508      	bpl.n	8000c8c <HAL_PCD_IRQHandler+0x58>
    __HAL_PCD_CLEAR_FLAG(hpcd, USB_ISTR_PMAOVR);    
 8000c7a:	6822      	ldr	r2, [r4, #0]
 8000c7c:	f8b2 3044 	ldrh.w	r3, [r2, #68]	; 0x44
 8000c80:	f423 4380 	bic.w	r3, r3, #16384	; 0x4000
 8000c84:	041b      	lsls	r3, r3, #16
 8000c86:	0c1b      	lsrs	r3, r3, #16
 8000c88:	f8a2 3044 	strh.w	r3, [r2, #68]	; 0x44
  if (__HAL_PCD_GET_FLAG (hpcd, USB_ISTR_ERR))
 8000c8c:	6820      	ldr	r0, [r4, #0]
 8000c8e:	f002 f9b5 	bl	8002ffc <USB_ReadInterrupts>
 8000c92:	0487      	lsls	r7, r0, #18
 8000c94:	d508      	bpl.n	8000ca8 <HAL_PCD_IRQHandler+0x74>
    __HAL_PCD_CLEAR_FLAG(hpcd, USB_ISTR_ERR); 
 8000c96:	6822      	ldr	r2, [r4, #0]
 8000c98:	f8b2 3044 	ldrh.w	r3, [r2, #68]	; 0x44
 8000c9c:	f423 5300 	bic.w	r3, r3, #8192	; 0x2000
 8000ca0:	041b      	lsls	r3, r3, #16
 8000ca2:	0c1b      	lsrs	r3, r3, #16
 8000ca4:	f8a2 3044 	strh.w	r3, [r2, #68]	; 0x44
  if (__HAL_PCD_GET_FLAG (hpcd, USB_ISTR_WKUP))
 8000ca8:	6820      	ldr	r0, [r4, #0]
 8000caa:	f002 f9a7 	bl	8002ffc <USB_ReadInterrupts>
 8000cae:	04c6      	lsls	r6, r0, #19
 8000cb0:	d538      	bpl.n	8000d24 <HAL_PCD_IRQHandler+0xf0>
    hpcd->Instance->CNTR &= ~(USB_CNTR_LPMODE);
 8000cb2:	6823      	ldr	r3, [r4, #0]
 8000cb4:	f8b3 2040 	ldrh.w	r2, [r3, #64]	; 0x40
 8000cb8:	f022 0204 	bic.w	r2, r2, #4
 8000cbc:	0412      	lsls	r2, r2, #16
 8000cbe:	0c12      	lsrs	r2, r2, #16
 8000cc0:	f8a3 2040 	strh.w	r2, [r3, #64]	; 0x40
    hpcd->Instance->CNTR = wInterrupt_Mask;
 8000cc4:	f44f 423f 	mov.w	r2, #48896	; 0xbf00
 8000cc8:	f8a3 2040 	strh.w	r2, [r3, #64]	; 0x40
    if (hpcd->Init.lpm_enable ==1)
 8000ccc:	6a22      	ldr	r2, [r4, #32]
 8000cce:	2a01      	cmp	r2, #1
 8000cd0:	d112      	bne.n	8000cf8 <HAL_PCD_IRQHandler+0xc4>
      hpcd->lpm_active = ENABLE;
 8000cd2:	f8c4 2428 	str.w	r2, [r4, #1064]	; 0x428
      hpcd->LPM_State = LPM_L0;
 8000cd6:	2200      	movs	r2, #0
 8000cd8:	f884 2420 	strb.w	r2, [r4, #1056]	; 0x420
      USBx->LPMCSR |= (USB_LPMCSR_LMPEN);
 8000cdc:	f8b3 2054 	ldrh.w	r2, [r3, #84]	; 0x54
 8000ce0:	b292      	uxth	r2, r2
 8000ce2:	f042 0201 	orr.w	r2, r2, #1
 8000ce6:	f8a3 2054 	strh.w	r2, [r3, #84]	; 0x54
      USBx->LPMCSR |= (USB_LPMCSR_LPMACK);
 8000cea:	f8b3 2054 	ldrh.w	r2, [r3, #84]	; 0x54
 8000cee:	b292      	uxth	r2, r2
 8000cf0:	f042 0202 	orr.w	r2, r2, #2
 8000cf4:	f8a3 2054 	strh.w	r2, [r3, #84]	; 0x54
    if(hpcd->LPM_State == LPM_L1)
 8000cf8:	f894 3420 	ldrb.w	r3, [r4, #1056]	; 0x420
 8000cfc:	2b01      	cmp	r3, #1
 8000cfe:	d105      	bne.n	8000d0c <HAL_PCD_IRQHandler+0xd8>
      hpcd->LPM_State = LPM_L0;
 8000d00:	2100      	movs	r1, #0
 8000d02:	f884 1420 	strb.w	r1, [r4, #1056]	; 0x420
      HAL_PCDEx_LPM_Callback(hpcd, PCD_LPM_L0_ACTIVE);
 8000d06:	4620      	mov	r0, r4
 8000d08:	f003 fba8 	bl	800445c <HAL_PCDEx_LPM_Callback>
    HAL_PCD_ResumeCallback(hpcd);
 8000d0c:	4620      	mov	r0, r4
 8000d0e:	f003 fab7 	bl	8004280 <HAL_PCD_ResumeCallback>
    __HAL_PCD_CLEAR_FLAG(hpcd, USB_ISTR_WKUP);     
 8000d12:	6822      	ldr	r2, [r4, #0]
 8000d14:	f8b2 3044 	ldrh.w	r3, [r2, #68]	; 0x44
 8000d18:	f423 5380 	bic.w	r3, r3, #4096	; 0x1000
 8000d1c:	041b      	lsls	r3, r3, #16
 8000d1e:	0c1b      	lsrs	r3, r3, #16
 8000d20:	f8a2 3044 	strh.w	r3, [r2, #68]	; 0x44
  if (__HAL_PCD_GET_FLAG (hpcd, USB_ISTR_SUSP))
 8000d24:	6820      	ldr	r0, [r4, #0]
 8000d26:	f002 f969 	bl	8002ffc <USB_ReadInterrupts>
 8000d2a:	0505      	lsls	r5, r0, #20
 8000d2c:	d51d      	bpl.n	8000d6a <HAL_PCD_IRQHandler+0x136>
    __HAL_PCD_CLEAR_FLAG(hpcd, USB_ISTR_SUSP);  
 8000d2e:	6820      	ldr	r0, [r4, #0]
 8000d30:	f8b0 3044 	ldrh.w	r3, [r0, #68]	; 0x44
 8000d34:	f423 6300 	bic.w	r3, r3, #2048	; 0x800
 8000d38:	041b      	lsls	r3, r3, #16
 8000d3a:	0c1b      	lsrs	r3, r3, #16
 8000d3c:	f8a0 3044 	strh.w	r3, [r0, #68]	; 0x44
    hpcd->Instance->CNTR |= USB_CNTR_FSUSP;
 8000d40:	f8b0 3040 	ldrh.w	r3, [r0, #64]	; 0x40
 8000d44:	b29b      	uxth	r3, r3
 8000d46:	f043 0308 	orr.w	r3, r3, #8
 8000d4a:	f8a0 3040 	strh.w	r3, [r0, #64]	; 0x40
    hpcd->Instance->CNTR |= USB_CNTR_LPMODE;
 8000d4e:	f8b0 3040 	ldrh.w	r3, [r0, #64]	; 0x40
 8000d52:	b29b      	uxth	r3, r3
 8000d54:	f043 0304 	orr.w	r3, r3, #4
 8000d58:	f8a0 3040 	strh.w	r3, [r0, #64]	; 0x40
    if (__HAL_PCD_GET_FLAG (hpcd, USB_ISTR_WKUP) == 0)
 8000d5c:	f002 f94e 	bl	8002ffc <USB_ReadInterrupts>
 8000d60:	04c0      	lsls	r0, r0, #19
 8000d62:	d402      	bmi.n	8000d6a <HAL_PCD_IRQHandler+0x136>
      HAL_PCD_SuspendCallback(hpcd);
 8000d64:	4620      	mov	r0, r4
 8000d66:	f003 fa7b 	bl	8004260 <HAL_PCD_SuspendCallback>
  if(__HAL_PCD_GET_FLAG(hpcd, USB_ISTR_L1REQ))
 8000d6a:	6820      	ldr	r0, [r4, #0]
 8000d6c:	f002 f946 	bl	8002ffc <USB_ReadInterrupts>
 8000d70:	0601      	lsls	r1, r0, #24
 8000d72:	d529      	bpl.n	8000dc8 <HAL_PCD_IRQHandler+0x194>
    __HAL_PCD_CLEAR_FLAG(hpcd, USB_ISTR_L1REQ);      
 8000d74:	6823      	ldr	r3, [r4, #0]
 8000d76:	f8b3 2044 	ldrh.w	r2, [r3, #68]	; 0x44
 8000d7a:	f022 0280 	bic.w	r2, r2, #128	; 0x80
 8000d7e:	0412      	lsls	r2, r2, #16
 8000d80:	0c12      	lsrs	r2, r2, #16
 8000d82:	f8a3 2044 	strh.w	r2, [r3, #68]	; 0x44
    if( hpcd->LPM_State == LPM_L0)
 8000d86:	f894 2420 	ldrb.w	r2, [r4, #1056]	; 0x420
 8000d8a:	2a00      	cmp	r2, #0
 8000d8c:	f040 8206 	bne.w	800119c <HAL_PCD_IRQHandler+0x568>
      hpcd->Instance->CNTR |= USB_CNTR_LPMODE;
 8000d90:	f8b3 2040 	ldrh.w	r2, [r3, #64]	; 0x40
 8000d94:	b292      	uxth	r2, r2
 8000d96:	f042 0204 	orr.w	r2, r2, #4
 8000d9a:	f8a3 2040 	strh.w	r2, [r3, #64]	; 0x40
      hpcd->Instance->CNTR |= USB_CNTR_FSUSP;
 8000d9e:	f8b3 2040 	ldrh.w	r2, [r3, #64]	; 0x40
 8000da2:	b292      	uxth	r2, r2
 8000da4:	f042 0208 	orr.w	r2, r2, #8
 8000da8:	f8a3 2040 	strh.w	r2, [r3, #64]	; 0x40
      hpcd->BESL = (hpcd->Instance->LPMCSR & USB_LPMCSR_BESL) >>2 ;  
 8000dac:	f8b3 3054 	ldrh.w	r3, [r3, #84]	; 0x54
 8000db0:	f3c3 038d 	ubfx	r3, r3, #2, #14
      hpcd->LPM_State = LPM_L1;
 8000db4:	2101      	movs	r1, #1
      hpcd->BESL = (hpcd->Instance->LPMCSR & USB_LPMCSR_BESL) >>2 ;  
 8000db6:	f003 033c 	and.w	r3, r3, #60	; 0x3c
      hpcd->LPM_State = LPM_L1;
 8000dba:	f884 1420 	strb.w	r1, [r4, #1056]	; 0x420
      hpcd->BESL = (hpcd->Instance->LPMCSR & USB_LPMCSR_BESL) >>2 ;  
 8000dbe:	f8c4 3424 	str.w	r3, [r4, #1060]	; 0x424
      HAL_PCDEx_LPM_Callback(hpcd, PCD_LPM_L1_ACTIVE);
 8000dc2:	4620      	mov	r0, r4
 8000dc4:	f003 fb4a 	bl	800445c <HAL_PCDEx_LPM_Callback>
  if (__HAL_PCD_GET_FLAG (hpcd, USB_ISTR_SOF))
 8000dc8:	6820      	ldr	r0, [r4, #0]
 8000dca:	f002 f917 	bl	8002ffc <USB_ReadInterrupts>
 8000dce:	0582      	lsls	r2, r0, #22
 8000dd0:	d50b      	bpl.n	8000dea <HAL_PCD_IRQHandler+0x1b6>
    __HAL_PCD_CLEAR_FLAG(hpcd, USB_ISTR_SOF); 
 8000dd2:	6822      	ldr	r2, [r4, #0]
 8000dd4:	f8b2 3044 	ldrh.w	r3, [r2, #68]	; 0x44
 8000dd8:	f423 7300 	bic.w	r3, r3, #512	; 0x200
 8000ddc:	041b      	lsls	r3, r3, #16
 8000dde:	0c1b      	lsrs	r3, r3, #16
 8000de0:	f8a2 3044 	strh.w	r3, [r2, #68]	; 0x44
    HAL_PCD_SOFCallback(hpcd);
 8000de4:	4620      	mov	r0, r4
 8000de6:	f003 fa2a 	bl	800423e <HAL_PCD_SOFCallback>
  if (__HAL_PCD_GET_FLAG (hpcd, USB_ISTR_ESOF))
 8000dea:	6820      	ldr	r0, [r4, #0]
 8000dec:	f002 f906 	bl	8002ffc <USB_ReadInterrupts>
 8000df0:	05c3      	lsls	r3, r0, #23
 8000df2:	d508      	bpl.n	8000e06 <HAL_PCD_IRQHandler+0x1d2>
    __HAL_PCD_CLEAR_FLAG(hpcd, USB_ISTR_ESOF); 
 8000df4:	6822      	ldr	r2, [r4, #0]
 8000df6:	f8b2 3044 	ldrh.w	r3, [r2, #68]	; 0x44
 8000dfa:	f423 7380 	bic.w	r3, r3, #256	; 0x100
 8000dfe:	041b      	lsls	r3, r3, #16
 8000e00:	0c1b      	lsrs	r3, r3, #16
 8000e02:	f8a2 3044 	strh.w	r3, [r2, #68]	; 0x44
}
 8000e06:	b003      	add	sp, #12
 8000e08:	e8bd 8ff0 	ldmia.w	sp!, {r4, r5, r6, r7, r8, r9, sl, fp, pc}
static HAL_StatusTypeDef PCD_EP_ISR_Handler(PCD_HandleTypeDef *hpcd)
{
  PCD_EPTypeDef *ep = NULL;
  uint16_t count = 0;
  uint8_t epindex = 0;
  __IO uint16_t wIstr = 0;  
 8000e0c:	2300      	movs	r3, #0
      if ((wEPVal & USB_EP_CTR_TX) != 0)
      {
        ep = &hpcd->IN_ep[epindex];
        
        /* clear int flag */
        PCD_CLEAR_TX_EP_CTR(hpcd->Instance, epindex);
 8000e0e:	f8df 9394 	ldr.w	r9, [pc, #916]	; 80011a4 <HAL_PCD_IRQHandler+0x570>
          PCD_SET_EP_RX_STATUS(hpcd->Instance, PCD_ENDP0, USB_EP_RX_VALID);
 8000e12:	f8df a394 	ldr.w	sl, [pc, #916]	; 80011a8 <HAL_PCD_IRQHandler+0x574>
          PCD_SET_EP_RX_CNT(hpcd->Instance, PCD_ENDP0, ep->maxpacket);
 8000e16:	f8df b394 	ldr.w	fp, [pc, #916]	; 80011ac <HAL_PCD_IRQHandler+0x578>
  __IO uint16_t wIstr = 0;  
 8000e1a:	f8ad 3004 	strh.w	r3, [sp, #4]
  __IO uint16_t wEPVal = 0;
 8000e1e:	f8ad 3006 	strh.w	r3, [sp, #6]
  while (((wIstr = hpcd->Instance->ISTR) & USB_ISTR_CTR) != 0)
 8000e22:	6820      	ldr	r0, [r4, #0]
 8000e24:	f8b0 3044 	ldrh.w	r3, [r0, #68]	; 0x44
 8000e28:	b29b      	uxth	r3, r3
 8000e2a:	041a      	lsls	r2, r3, #16
 8000e2c:	f8ad 3004 	strh.w	r3, [sp, #4]
 8000e30:	f57f af09 	bpl.w	8000c46 <HAL_PCD_IRQHandler+0x12>
    epindex = (uint8_t)(wIstr & USB_ISTR_EP_ID);
 8000e34:	f8bd 5004 	ldrh.w	r5, [sp, #4]
    if (epindex == 0)
 8000e38:	f015 050f 	ands.w	r5, r5, #15
 8000e3c:	f040 80a5 	bne.w	8000f8a <HAL_PCD_IRQHandler+0x356>
      if ((wIstr & USB_ISTR_DIR) == 0)
 8000e40:	f8bd 1004 	ldrh.w	r1, [sp, #4]
        PCD_CLEAR_TX_EP_CTR(hpcd->Instance, PCD_ENDP0);
 8000e44:	8803      	ldrh	r3, [r0, #0]
      if ((wIstr & USB_ISTR_DIR) == 0)
 8000e46:	f011 0110 	ands.w	r1, r1, #16
        PCD_CLEAR_TX_EP_CTR(hpcd->Instance, PCD_ENDP0);
 8000e4a:	b29b      	uxth	r3, r3
      if ((wIstr & USB_ISTR_DIR) == 0)
 8000e4c:	d126      	bne.n	8000e9c <HAL_PCD_IRQHandler+0x268>
        PCD_CLEAR_TX_EP_CTR(hpcd->Instance, PCD_ENDP0);
 8000e4e:	ea03 0309 	and.w	r3, r3, r9
 8000e52:	8003      	strh	r3, [r0, #0]
        ep->xfer_count = PCD_GET_EP_TX_CNT(hpcd->Instance, ep->num);
 8000e54:	f8b0 3050 	ldrh.w	r3, [r0, #80]	; 0x50
 8000e58:	f894 202c 	ldrb.w	r2, [r4, #44]	; 0x2c
 8000e5c:	b29b      	uxth	r3, r3
 8000e5e:	eb03 03c2 	add.w	r3, r3, r2, lsl #3
 8000e62:	4418      	add	r0, r3
        ep->xfer_buff += ep->xfer_count;
 8000e64:	6c22      	ldr	r2, [r4, #64]	; 0x40
        ep->xfer_count = PCD_GET_EP_TX_CNT(hpcd->Instance, ep->num);
 8000e66:	f8b0 3402 	ldrh.w	r3, [r0, #1026]	; 0x402
 8000e6a:	f3c3 0309 	ubfx	r3, r3, #0, #10
 8000e6e:	64a3      	str	r3, [r4, #72]	; 0x48
        ep->xfer_buff += ep->xfer_count;
 8000e70:	4413      	add	r3, r2
 8000e72:	6423      	str	r3, [r4, #64]	; 0x40
        HAL_PCD_DataInStageCallback(hpcd, 0);
 8000e74:	4620      	mov	r0, r4
 8000e76:	f003 f9db 	bl	8004230 <HAL_PCD_DataInStageCallback>
        if((hpcd->USB_Address > 0)&& ( ep->xfer_len == 0))
 8000e7a:	f894 3028 	ldrb.w	r3, [r4, #40]	; 0x28
 8000e7e:	2b00      	cmp	r3, #0
 8000e80:	d0cf      	beq.n	8000e22 <HAL_PCD_IRQHandler+0x1ee>
 8000e82:	6c62      	ldr	r2, [r4, #68]	; 0x44
 8000e84:	2a00      	cmp	r2, #0
 8000e86:	d1cc      	bne.n	8000e22 <HAL_PCD_IRQHandler+0x1ee>
          hpcd->Instance->DADDR = (hpcd->USB_Address | USB_DADDR_EF);
 8000e88:	f894 3028 	ldrb.w	r3, [r4, #40]	; 0x28
 8000e8c:	6821      	ldr	r1, [r4, #0]
 8000e8e:	f043 0380 	orr.w	r3, r3, #128	; 0x80
 8000e92:	f8a1 304c 	strh.w	r3, [r1, #76]	; 0x4c
          hpcd->USB_Address = 0;
 8000e96:	f884 2028 	strb.w	r2, [r4, #40]	; 0x28
 8000e9a:	e7c2      	b.n	8000e22 <HAL_PCD_IRQHandler+0x1ee>
        wEPVal = PCD_GET_ENDPOINT(hpcd->Instance, PCD_ENDP0);
 8000e9c:	f8ad 3006 	strh.w	r3, [sp, #6]
        if ((wEPVal & USB_EP_SETUP) != 0)
 8000ea0:	f8bd 3006 	ldrh.w	r3, [sp, #6]
 8000ea4:	051e      	lsls	r6, r3, #20
 8000ea6:	d51e      	bpl.n	8000ee6 <HAL_PCD_IRQHandler+0x2b2>
          ep->xfer_count = PCD_GET_EP_RX_CNT(hpcd->Instance, ep->num);
 8000ea8:	f8b0 3050 	ldrh.w	r3, [r0, #80]	; 0x50
 8000eac:	f894 220c 	ldrb.w	r2, [r4, #524]	; 0x20c
 8000eb0:	b29b      	uxth	r3, r3
 8000eb2:	eb03 03c2 	add.w	r3, r3, r2, lsl #3
 8000eb6:	4403      	add	r3, r0
          USB_ReadPMA(hpcd->Instance, (uint8_t*)hpcd->Setup ,ep->pmaadress , ep->xfer_count);       
 8000eb8:	f8b4 2210 	ldrh.w	r2, [r4, #528]	; 0x210
 8000ebc:	f8b3 3406 	ldrh.w	r3, [r3, #1030]	; 0x406
 8000ec0:	f3c3 0309 	ubfx	r3, r3, #0, #10
          ep->xfer_count = PCD_GET_EP_RX_CNT(hpcd->Instance, ep->num);
 8000ec4:	f8c4 3228 	str.w	r3, [r4, #552]	; 0x228
          USB_ReadPMA(hpcd->Instance, (uint8_t*)hpcd->Setup ,ep->pmaadress , ep->xfer_count);       
 8000ec8:	f504 717c 	add.w	r1, r4, #1008	; 0x3f0
 8000ecc:	f002 f954 	bl	8003178 <USB_ReadPMA>
          PCD_CLEAR_RX_EP_CTR(hpcd->Instance, PCD_ENDP0); 
 8000ed0:	6822      	ldr	r2, [r4, #0]
 8000ed2:	8813      	ldrh	r3, [r2, #0]
 8000ed4:	f023 0370 	bic.w	r3, r3, #112	; 0x70
 8000ed8:	051b      	lsls	r3, r3, #20
 8000eda:	0d1b      	lsrs	r3, r3, #20
 8000edc:	8013      	strh	r3, [r2, #0]
          HAL_PCD_SetupStageCallback(hpcd);
 8000ede:	4620      	mov	r0, r4
 8000ee0:	f003 f998 	bl	8004214 <HAL_PCD_SetupStageCallback>
 8000ee4:	e79d      	b.n	8000e22 <HAL_PCD_IRQHandler+0x1ee>
        else if ((wEPVal & USB_EP_CTR_RX) != 0)
 8000ee6:	f8bd 3006 	ldrh.w	r3, [sp, #6]
 8000eea:	041d      	lsls	r5, r3, #16
 8000eec:	d599      	bpl.n	8000e22 <HAL_PCD_IRQHandler+0x1ee>
          PCD_CLEAR_RX_EP_CTR(hpcd->Instance, PCD_ENDP0);
 8000eee:	8803      	ldrh	r3, [r0, #0]
 8000ef0:	f023 0370 	bic.w	r3, r3, #112	; 0x70
 8000ef4:	051b      	lsls	r3, r3, #20
 8000ef6:	0d1b      	lsrs	r3, r3, #20
 8000ef8:	8003      	strh	r3, [r0, #0]
          ep->xfer_count = PCD_GET_EP_RX_CNT(hpcd->Instance, ep->num);
 8000efa:	f8b0 3050 	ldrh.w	r3, [r0, #80]	; 0x50
 8000efe:	f894 220c 	ldrb.w	r2, [r4, #524]	; 0x20c
 8000f02:	b29b      	uxth	r3, r3
 8000f04:	eb03 03c2 	add.w	r3, r3, r2, lsl #3
 8000f08:	4403      	add	r3, r0
 8000f0a:	f8b3 3406 	ldrh.w	r3, [r3, #1030]	; 0x406
 8000f0e:	f3c3 0309 	ubfx	r3, r3, #0, #10
 8000f12:	f8c4 3228 	str.w	r3, [r4, #552]	; 0x228
          if (ep->xfer_count != 0)
 8000f16:	b163      	cbz	r3, 8000f32 <HAL_PCD_IRQHandler+0x2fe>
            USB_ReadPMA(hpcd->Instance, ep->xfer_buff, ep->pmaadress, ep->xfer_count);
 8000f18:	f8b4 2210 	ldrh.w	r2, [r4, #528]	; 0x210
 8000f1c:	f8d4 1220 	ldr.w	r1, [r4, #544]	; 0x220
 8000f20:	f002 f92a 	bl	8003178 <USB_ReadPMA>
            ep->xfer_buff+=ep->xfer_count;
 8000f24:	f8d4 3220 	ldr.w	r3, [r4, #544]	; 0x220
 8000f28:	f8d4 2228 	ldr.w	r2, [r4, #552]	; 0x228
 8000f2c:	4413      	add	r3, r2
 8000f2e:	f8c4 3220 	str.w	r3, [r4, #544]	; 0x220
           HAL_PCD_DataOutStageCallback(hpcd, 0);
 8000f32:	2100      	movs	r1, #0
 8000f34:	4620      	mov	r0, r4
 8000f36:	f003 f973 	bl	8004220 <HAL_PCD_DataOutStageCallback>
          PCD_SET_EP_RX_CNT(hpcd->Instance, PCD_ENDP0, ep->maxpacket);
 8000f3a:	6822      	ldr	r2, [r4, #0]
 8000f3c:	f8d4 121c 	ldr.w	r1, [r4, #540]	; 0x21c
 8000f40:	f8b2 0050 	ldrh.w	r0, [r2, #80]	; 0x50
 8000f44:	293e      	cmp	r1, #62	; 0x3e
 8000f46:	b280      	uxth	r0, r0
 8000f48:	f202 4506 	addw	r5, r2, #1030	; 0x406
 8000f4c:	d915      	bls.n	8000f7a <HAL_PCD_IRQHandler+0x346>
 8000f4e:	f3c1 134f 	ubfx	r3, r1, #5, #16
 8000f52:	06c9      	lsls	r1, r1, #27
 8000f54:	bf04      	itt	eq
 8000f56:	f103 33ff 	addeq.w	r3, r3, #4294967295
 8000f5a:	b29b      	uxtheq	r3, r3
 8000f5c:	ea4b 2383 	orr.w	r3, fp, r3, lsl #10
 8000f60:	522b      	strh	r3, [r5, r0]
          PCD_SET_EP_RX_STATUS(hpcd->Instance, PCD_ENDP0, USB_EP_RX_VALID);
 8000f62:	8813      	ldrh	r3, [r2, #0]
 8000f64:	b29b      	uxth	r3, r3
 8000f66:	ea03 030a 	and.w	r3, r3, sl
 8000f6a:	f483 5340 	eor.w	r3, r3, #12288	; 0x3000
 8000f6e:	f443 4300 	orr.w	r3, r3, #32768	; 0x8000
 8000f72:	f043 0380 	orr.w	r3, r3, #128	; 0x80
 8000f76:	8013      	strh	r3, [r2, #0]
 8000f78:	e753      	b.n	8000e22 <HAL_PCD_IRQHandler+0x1ee>
          PCD_SET_EP_RX_CNT(hpcd->Instance, PCD_ENDP0, ep->maxpacket);
 8000f7a:	f3c1 034f 	ubfx	r3, r1, #1, #16
 8000f7e:	07cf      	lsls	r7, r1, #31
 8000f80:	bf44      	itt	mi
 8000f82:	3301      	addmi	r3, #1
 8000f84:	b29b      	uxthmi	r3, r3
 8000f86:	029b      	lsls	r3, r3, #10
 8000f88:	e7ea      	b.n	8000f60 <HAL_PCD_IRQHandler+0x32c>
      wEPVal = PCD_GET_ENDPOINT(hpcd->Instance, epindex);
 8000f8a:	b22f      	sxth	r7, r5
 8000f8c:	f830 3027 	ldrh.w	r3, [r0, r7, lsl #2]
 8000f90:	b29b      	uxth	r3, r3
 8000f92:	f8ad 3006 	strh.w	r3, [sp, #6]
      if ((wEPVal & USB_EP_CTR_RX) != 0)
 8000f96:	f8bd 3006 	ldrh.w	r3, [sp, #6]
 8000f9a:	041e      	lsls	r6, r3, #16
 8000f9c:	d53f      	bpl.n	800101e <HAL_PCD_IRQHandler+0x3ea>
        PCD_CLEAR_RX_EP_CTR(hpcd->Instance, epindex);
 8000f9e:	f830 3027 	ldrh.w	r3, [r0, r7, lsl #2]
 8000fa2:	f023 0370 	bic.w	r3, r3, #112	; 0x70
 8000fa6:	051b      	lsls	r3, r3, #20
 8000fa8:	0d1b      	lsrs	r3, r3, #20
        if (ep->doublebuffer == 0)
 8000faa:	ea4f 1845 	mov.w	r8, r5, lsl #5
        PCD_CLEAR_RX_EP_CTR(hpcd->Instance, epindex);
 8000fae:	f820 3027 	strh.w	r3, [r0, r7, lsl #2]
        if (ep->doublebuffer == 0)
 8000fb2:	eb04 0108 	add.w	r1, r4, r8
 8000fb6:	f891 3216 	ldrb.w	r3, [r1, #534]	; 0x216
 8000fba:	2b00      	cmp	r3, #0
 8000fbc:	d174      	bne.n	80010a8 <HAL_PCD_IRQHandler+0x474>
          count = PCD_GET_EP_RX_CNT(hpcd->Instance, ep->num);
 8000fbe:	f8b0 3050 	ldrh.w	r3, [r0, #80]	; 0x50
 8000fc2:	f891 220c 	ldrb.w	r2, [r1, #524]	; 0x20c
 8000fc6:	b29b      	uxth	r3, r3
 8000fc8:	eb03 03c2 	add.w	r3, r3, r2, lsl #3
 8000fcc:	4403      	add	r3, r0
 8000fce:	f8b3 6406 	ldrh.w	r6, [r3, #1030]	; 0x406
 8000fd2:	f3c6 0609 	ubfx	r6, r6, #0, #10
          if (count != 0)
 8000fd6:	b136      	cbz	r6, 8000fe6 <HAL_PCD_IRQHandler+0x3b2>
            USB_ReadPMA(hpcd->Instance, ep->xfer_buff, ep->pmaadress, count);
 8000fd8:	f8b1 2210 	ldrh.w	r2, [r1, #528]	; 0x210
 8000fdc:	f8d1 1220 	ldr.w	r1, [r1, #544]	; 0x220
 8000fe0:	4633      	mov	r3, r6
 8000fe2:	f002 f8c9 	bl	8003178 <USB_ReadPMA>
 8000fe6:	eb04 1347 	add.w	r3, r4, r7, lsl #5
        ep->xfer_buff+=count;
 8000fea:	eb04 0108 	add.w	r1, r4, r8
        ep->xfer_count+=count;
 8000fee:	f8d3 2228 	ldr.w	r2, [r3, #552]	; 0x228
 8000ff2:	4432      	add	r2, r6
 8000ff4:	f8c3 2228 	str.w	r2, [r3, #552]	; 0x228
        ep->xfer_buff+=count;
 8000ff8:	f8d1 2220 	ldr.w	r2, [r1, #544]	; 0x220
 8000ffc:	4432      	add	r2, r6
 8000ffe:	f8c1 2220 	str.w	r2, [r1, #544]	; 0x220
        if ((ep->xfer_len == 0) || (count < ep->maxpacket))
 8001002:	f8d3 3224 	ldr.w	r3, [r3, #548]	; 0x224
 8001006:	b123      	cbz	r3, 8001012 <HAL_PCD_IRQHandler+0x3de>
 8001008:	f8d1 021c 	ldr.w	r0, [r1, #540]	; 0x21c
 800100c:	4286      	cmp	r6, r0
 800100e:	f080 8083 	bcs.w	8001118 <HAL_PCD_IRQHandler+0x4e4>
          HAL_PCD_DataOutStageCallback(hpcd, ep->num);
 8001012:	44a0      	add	r8, r4
 8001014:	4620      	mov	r0, r4
 8001016:	f898 120c 	ldrb.w	r1, [r8, #524]	; 0x20c
 800101a:	f003 f901 	bl	8004220 <HAL_PCD_DataOutStageCallback>
      if ((wEPVal & USB_EP_CTR_TX) != 0)
 800101e:	f8bd 3006 	ldrh.w	r3, [sp, #6]
 8001022:	0619      	lsls	r1, r3, #24
 8001024:	f57f aefd 	bpl.w	8000e22 <HAL_PCD_IRQHandler+0x1ee>
        PCD_CLEAR_TX_EP_CTR(hpcd->Instance, epindex);
 8001028:	6820      	ldr	r0, [r4, #0]
 800102a:	f830 3027 	ldrh.w	r3, [r0, r7, lsl #2]
 800102e:	b29b      	uxth	r3, r3
 8001030:	ea03 0309 	and.w	r3, r3, r9
        
        /* IN double Buffering*/
        if (ep->doublebuffer == 0)
 8001034:	016e      	lsls	r6, r5, #5
        PCD_CLEAR_TX_EP_CTR(hpcd->Instance, epindex);
 8001036:	f820 3027 	strh.w	r3, [r0, r7, lsl #2]
        if (ep->doublebuffer == 0)
 800103a:	19a1      	adds	r1, r4, r6
 800103c:	3502      	adds	r5, #2
 800103e:	f891 3036 	ldrb.w	r3, [r1, #54]	; 0x36
 8001042:	2b00      	cmp	r3, #0
 8001044:	d16e      	bne.n	8001124 <HAL_PCD_IRQHandler+0x4f0>
        {
          ep->xfer_count = PCD_GET_EP_TX_CNT(hpcd->Instance, ep->num);
 8001046:	f8b0 3050 	ldrh.w	r3, [r0, #80]	; 0x50
 800104a:	f891 202c 	ldrb.w	r2, [r1, #44]	; 0x2c
 800104e:	b29b      	uxth	r3, r3
 8001050:	eb03 03c2 	add.w	r3, r3, r2, lsl #3
 8001054:	4403      	add	r3, r0
 8001056:	eb04 1545 	add.w	r5, r4, r5, lsl #5
 800105a:	f8b3 3402 	ldrh.w	r3, [r3, #1026]	; 0x402
 800105e:	f3c3 0309 	ubfx	r3, r3, #0, #10
 8001062:	60ab      	str	r3, [r5, #8]
          if (ep->xfer_count != 0)
 8001064:	b11b      	cbz	r3, 800106e <HAL_PCD_IRQHandler+0x43a>
          {
            USB_WritePMA(hpcd->Instance, ep->xfer_buff, ep->pmaadress, ep->xfer_count);
 8001066:	8e0a      	ldrh	r2, [r1, #48]	; 0x30
 8001068:	6c09      	ldr	r1, [r1, #64]	; 0x40
 800106a:	f001 ffcd 	bl	8003008 <USB_WritePMA>
            }
          }
          PCD_FreeUserBuffer(hpcd->Instance, ep->num, PCD_EP_DBUF_IN);  
        }
        /*multi-packet on the NON control IN endpoint*/
        ep->xfer_count = PCD_GET_EP_TX_CNT(hpcd->Instance, ep->num);
 800106e:	6822      	ldr	r2, [r4, #0]
 8001070:	4426      	add	r6, r4
 8001072:	f8b2 3050 	ldrh.w	r3, [r2, #80]	; 0x50
 8001076:	f896 102c 	ldrb.w	r1, [r6, #44]	; 0x2c
 800107a:	b29b      	uxth	r3, r3
 800107c:	eb03 03c1 	add.w	r3, r3, r1, lsl #3
 8001080:	4413      	add	r3, r2
 8001082:	eb04 1747 	add.w	r7, r4, r7, lsl #5
 8001086:	f8b3 2402 	ldrh.w	r2, [r3, #1026]	; 0x402
 800108a:	f3c2 0209 	ubfx	r2, r2, #0, #10
 800108e:	64ba      	str	r2, [r7, #72]	; 0x48
        ep->xfer_buff+=ep->xfer_count;
 8001090:	6c33      	ldr	r3, [r6, #64]	; 0x40
 8001092:	f896 102c 	ldrb.w	r1, [r6, #44]	; 0x2c
 8001096:	441a      	add	r2, r3
 8001098:	6432      	str	r2, [r6, #64]	; 0x40
       
        /* Zero Length Packet? */
        if (ep->xfer_len == 0)
 800109a:	6c7b      	ldr	r3, [r7, #68]	; 0x44
        {
          /* TX COMPLETE */
          HAL_PCD_DataInStageCallback(hpcd, ep->num);
 800109c:	4620      	mov	r0, r4
        if (ep->xfer_len == 0)
 800109e:	2b00      	cmp	r3, #0
 80010a0:	d179      	bne.n	8001196 <HAL_PCD_IRQHandler+0x562>
          HAL_PCD_DataInStageCallback(hpcd, ep->num);
 80010a2:	f003 f8c5 	bl	8004230 <HAL_PCD_DataInStageCallback>
 80010a6:	e6bc      	b.n	8000e22 <HAL_PCD_IRQHandler+0x1ee>
          if (PCD_GET_ENDPOINT(hpcd->Instance, ep->num) & USB_EP_DTOG_RX)
 80010a8:	f891 620c 	ldrb.w	r6, [r1, #524]	; 0x20c
 80010ac:	b233      	sxth	r3, r6
 80010ae:	2208      	movs	r2, #8
 80010b0:	f830 3023 	ldrh.w	r3, [r0, r3, lsl #2]
 80010b4:	f413 4f80 	tst.w	r3, #16384	; 0x4000
            count = PCD_GET_EP_DBUF0_CNT(hpcd->Instance, ep->num);
 80010b8:	f8b0 3050 	ldrh.w	r3, [r0, #80]	; 0x50
 80010bc:	b29b      	uxth	r3, r3
 80010be:	fb12 3306 	smlabb	r3, r2, r6, r3
          if (PCD_GET_ENDPOINT(hpcd->Instance, ep->num) & USB_EP_DTOG_RX)
 80010c2:	d01e      	beq.n	8001102 <HAL_PCD_IRQHandler+0x4ce>
            count = PCD_GET_EP_DBUF0_CNT(hpcd->Instance, ep->num);
 80010c4:	4403      	add	r3, r0
 80010c6:	f8b3 6402 	ldrh.w	r6, [r3, #1026]	; 0x402
 80010ca:	f3c6 0609 	ubfx	r6, r6, #0, #10
            if (count != 0)
 80010ce:	b136      	cbz	r6, 80010de <HAL_PCD_IRQHandler+0x4aa>
              USB_ReadPMA(hpcd->Instance, ep->xfer_buff, ep->pmaaddr0, count);
 80010d0:	f8b1 2212 	ldrh.w	r2, [r1, #530]	; 0x212
 80010d4:	4633      	mov	r3, r6
              USB_ReadPMA(hpcd->Instance, ep->xfer_buff, ep->pmaaddr1, count);
 80010d6:	f8d1 1220 	ldr.w	r1, [r1, #544]	; 0x220
 80010da:	f002 f84d 	bl	8003178 <USB_ReadPMA>
          PCD_FreeUserBuffer(hpcd->Instance, ep->num, PCD_EP_DBUF_OUT);  
 80010de:	eb04 0308 	add.w	r3, r4, r8
 80010e2:	6822      	ldr	r2, [r4, #0]
 80010e4:	f893 120c 	ldrb.w	r1, [r3, #524]	; 0x20c
 80010e8:	f832 3021 	ldrh.w	r3, [r2, r1, lsl #2]
 80010ec:	f023 03f0 	bic.w	r3, r3, #240	; 0xf0
 80010f0:	051b      	lsls	r3, r3, #20
 80010f2:	0d1b      	lsrs	r3, r3, #20
 80010f4:	f443 4300 	orr.w	r3, r3, #32768	; 0x8000
 80010f8:	f043 03c0 	orr.w	r3, r3, #192	; 0xc0
 80010fc:	f822 3021 	strh.w	r3, [r2, r1, lsl #2]
 8001100:	e771      	b.n	8000fe6 <HAL_PCD_IRQHandler+0x3b2>
            count = PCD_GET_EP_DBUF1_CNT(hpcd->Instance, ep->num);
 8001102:	18c2      	adds	r2, r0, r3
 8001104:	f8b2 6406 	ldrh.w	r6, [r2, #1030]	; 0x406
 8001108:	f3c6 0609 	ubfx	r6, r6, #0, #10
            if (count != 0)
 800110c:	2e00      	cmp	r6, #0
 800110e:	d0e6      	beq.n	80010de <HAL_PCD_IRQHandler+0x4aa>
              USB_ReadPMA(hpcd->Instance, ep->xfer_buff, ep->pmaaddr1, count);
 8001110:	4633      	mov	r3, r6
 8001112:	f8b1 2214 	ldrh.w	r2, [r1, #532]	; 0x214
 8001116:	e7de      	b.n	80010d6 <HAL_PCD_IRQHandler+0x4a2>
          HAL_PCD_EP_Receive(hpcd, ep->num, ep->xfer_buff, ep->xfer_len);
 8001118:	f891 120c 	ldrb.w	r1, [r1, #524]	; 0x20c
 800111c:	4620      	mov	r0, r4
 800111e:	f7ff fd4f 	bl	8000bc0 <HAL_PCD_EP_Receive>
 8001122:	e77c      	b.n	800101e <HAL_PCD_IRQHandler+0x3ea>
          if (PCD_GET_ENDPOINT(hpcd->Instance, ep->num) & USB_EP_DTOG_TX)
 8001124:	f891 e02c 	ldrb.w	lr, [r1, #44]	; 0x2c
 8001128:	fa0f f38e 	sxth.w	r3, lr
 800112c:	2208      	movs	r2, #8
 800112e:	f830 3023 	ldrh.w	r3, [r0, r3, lsl #2]
 8001132:	f013 0f40 	tst.w	r3, #64	; 0x40
            ep->xfer_count = PCD_GET_EP_DBUF0_CNT(hpcd->Instance, ep->num);
 8001136:	f8b0 3050 	ldrh.w	r3, [r0, #80]	; 0x50
 800113a:	b29b      	uxth	r3, r3
 800113c:	fb12 330e 	smlabb	r3, r2, lr, r3
          if (PCD_GET_ENDPOINT(hpcd->Instance, ep->num) & USB_EP_DTOG_TX)
 8001140:	d01d      	beq.n	800117e <HAL_PCD_IRQHandler+0x54a>
            ep->xfer_count = PCD_GET_EP_DBUF0_CNT(hpcd->Instance, ep->num);
 8001142:	4403      	add	r3, r0
 8001144:	eb04 1545 	add.w	r5, r4, r5, lsl #5
 8001148:	f8b3 3402 	ldrh.w	r3, [r3, #1026]	; 0x402
 800114c:	f3c3 0309 	ubfx	r3, r3, #0, #10
 8001150:	60ab      	str	r3, [r5, #8]
            if (ep->xfer_count != 0)
 8001152:	b11b      	cbz	r3, 800115c <HAL_PCD_IRQHandler+0x528>
              USB_WritePMA(hpcd->Instance, ep->xfer_buff, ep->pmaaddr0, ep->xfer_count);
 8001154:	8e4a      	ldrh	r2, [r1, #50]	; 0x32
              USB_WritePMA(hpcd->Instance, ep->xfer_buff, ep->pmaaddr1, ep->xfer_count);
 8001156:	6c09      	ldr	r1, [r1, #64]	; 0x40
 8001158:	f001 ff56 	bl	8003008 <USB_WritePMA>
          PCD_FreeUserBuffer(hpcd->Instance, ep->num, PCD_EP_DBUF_IN);  
 800115c:	19a3      	adds	r3, r4, r6
 800115e:	6822      	ldr	r2, [r4, #0]
 8001160:	f893 102c 	ldrb.w	r1, [r3, #44]	; 0x2c
 8001164:	f832 3021 	ldrh.w	r3, [r2, r1, lsl #2]
 8001168:	f023 03f0 	bic.w	r3, r3, #240	; 0xf0
 800116c:	051b      	lsls	r3, r3, #20
 800116e:	0d1b      	lsrs	r3, r3, #20
 8001170:	f443 4340 	orr.w	r3, r3, #49152	; 0xc000
 8001174:	f043 0380 	orr.w	r3, r3, #128	; 0x80
 8001178:	f822 3021 	strh.w	r3, [r2, r1, lsl #2]
 800117c:	e777      	b.n	800106e <HAL_PCD_IRQHandler+0x43a>
            ep->xfer_count = PCD_GET_EP_DBUF1_CNT(hpcd->Instance, ep->num);
 800117e:	18c2      	adds	r2, r0, r3
 8001180:	eb04 1545 	add.w	r5, r4, r5, lsl #5
 8001184:	f8b2 3406 	ldrh.w	r3, [r2, #1030]	; 0x406
 8001188:	f3c3 0309 	ubfx	r3, r3, #0, #10
 800118c:	60ab      	str	r3, [r5, #8]
            if (ep->xfer_count != 0)
 800118e:	2b00      	cmp	r3, #0
 8001190:	d0e4      	beq.n	800115c <HAL_PCD_IRQHandler+0x528>
              USB_WritePMA(hpcd->Instance, ep->xfer_buff, ep->pmaaddr1, ep->xfer_count);
 8001192:	8e8a      	ldrh	r2, [r1, #52]	; 0x34
 8001194:	e7df      	b.n	8001156 <HAL_PCD_IRQHandler+0x522>
        }
        else
        {
          HAL_PCD_EP_Transmit(hpcd, ep->num, ep->xfer_buff, ep->xfer_len);
 8001196:	f7ff fd34 	bl	8000c02 <HAL_PCD_EP_Transmit>
 800119a:	e642      	b.n	8000e22 <HAL_PCD_IRQHandler+0x1ee>
      HAL_PCD_SuspendCallback(hpcd);
 800119c:	4620      	mov	r0, r4
 800119e:	f003 f85f 	bl	8004260 <HAL_PCD_SuspendCallback>
 80011a2:	e611      	b.n	8000dc8 <HAL_PCD_IRQHandler+0x194>
 80011a4:	ffff8f0f 	.word	0xffff8f0f
 80011a8:	ffffbf8f 	.word	0xffffbf8f
 80011ac:	ffff8000 	.word	0xffff8000

080011b0 <HAL_PCD_EP_SetStall>:
{
 80011b0:	b538      	push	{r3, r4, r5, lr}
  if ((0x80 & ep_addr) == 0x80)
 80011b2:	b24b      	sxtb	r3, r1
 80011b4:	2b00      	cmp	r3, #0
 80011b6:	f001 057f 	and.w	r5, r1, #127	; 0x7f
 80011ba:	f04f 0220 	mov.w	r2, #32
    ep = &hpcd->IN_ep[ep_addr & 0x7F];
 80011be:	bfb5      	itete	lt
 80011c0:	fb02 0105 	mlalt	r1, r2, r5, r0
    ep = &hpcd->OUT_ep[ep_addr];
 80011c4:	fb02 0101 	mlage	r1, r2, r1, r0
    ep = &hpcd->IN_ep[ep_addr & 0x7F];
 80011c8:	312c      	addlt	r1, #44	; 0x2c
    ep = &hpcd->OUT_ep[ep_addr];
 80011ca:	f501 7103 	addge.w	r1, r1, #524	; 0x20c
  ep->is_stall = 1;
 80011ce:	2201      	movs	r2, #1
  ep->is_in = ((ep_addr & 0x80) == 0x80);
 80011d0:	0fdb      	lsrs	r3, r3, #31
  ep->num   = ep_addr & 0x7F;
 80011d2:	b2ed      	uxtb	r5, r5
  ep->is_stall = 1;
 80011d4:	708a      	strb	r2, [r1, #2]
  ep->num   = ep_addr & 0x7F;
 80011d6:	700d      	strb	r5, [r1, #0]
  ep->is_in = ((ep_addr & 0x80) == 0x80);
 80011d8:	704b      	strb	r3, [r1, #1]
  __HAL_LOCK(hpcd);
 80011da:	f890 33ec 	ldrb.w	r3, [r0, #1004]	; 0x3ec
 80011de:	4293      	cmp	r3, r2
{
 80011e0:	4604      	mov	r4, r0
  __HAL_LOCK(hpcd);
 80011e2:	d00f      	beq.n	8001204 <HAL_PCD_EP_SetStall+0x54>
 80011e4:	f880 23ec 	strb.w	r2, [r0, #1004]	; 0x3ec
  USB_EPSetStall(hpcd->Instance , ep);
 80011e8:	6800      	ldr	r0, [r0, #0]
 80011ea:	f001 fe70 	bl	8002ece <USB_EPSetStall>
  if((ep_addr & 0x7F) == 0)
 80011ee:	b92d      	cbnz	r5, 80011fc <HAL_PCD_EP_SetStall+0x4c>
    USB_EP0_OutStart(hpcd->Instance,  hpcd->Init.dma_enable, (uint8_t *)hpcd->Setup);
 80011f0:	f504 727c 	add.w	r2, r4, #1008	; 0x3f0
 80011f4:	7b21      	ldrb	r1, [r4, #12]
 80011f6:	6820      	ldr	r0, [r4, #0]
 80011f8:	f001 ff04 	bl	8003004 <USB_EP0_OutStart>
  __HAL_UNLOCK(hpcd); 
 80011fc:	2000      	movs	r0, #0
 80011fe:	f884 03ec 	strb.w	r0, [r4, #1004]	; 0x3ec
  return HAL_OK;
 8001202:	bd38      	pop	{r3, r4, r5, pc}
  __HAL_LOCK(hpcd);
 8001204:	2002      	movs	r0, #2
}
 8001206:	bd38      	pop	{r3, r4, r5, pc}

08001208 <HAL_PCD_EP_ClrStall>:
{
 8001208:	b538      	push	{r3, r4, r5, lr}
  if ((0x80 & ep_addr) == 0x80)
 800120a:	b24b      	sxtb	r3, r1
 800120c:	2b00      	cmp	r3, #0
{
 800120e:	4605      	mov	r5, r0
 8001210:	f04f 0220 	mov.w	r2, #32
 8001214:	f001 007f 	and.w	r0, r1, #127	; 0x7f
    ep = &hpcd->IN_ep[ep_addr & 0x7F];
 8001218:	bfb5      	itete	lt
 800121a:	fb02 5100 	mlalt	r1, r2, r0, r5
    ep = &hpcd->OUT_ep[ep_addr];
 800121e:	fb02 5101 	mlage	r1, r2, r1, r5
    ep = &hpcd->IN_ep[ep_addr & 0x7F];
 8001222:	312c      	addlt	r1, #44	; 0x2c
    ep = &hpcd->OUT_ep[ep_addr];
 8001224:	f501 7103 	addge.w	r1, r1, #524	; 0x20c
  ep->is_in = ((ep_addr & 0x80) == 0x80);
 8001228:	0fdb      	lsrs	r3, r3, #31
  ep->is_stall = 0;
 800122a:	2400      	movs	r4, #0
 800122c:	708c      	strb	r4, [r1, #2]
  ep->num   = ep_addr & 0x7F;
 800122e:	7008      	strb	r0, [r1, #0]
  ep->is_in = ((ep_addr & 0x80) == 0x80);
 8001230:	704b      	strb	r3, [r1, #1]
  __HAL_LOCK(hpcd); 
 8001232:	f895 33ec 	ldrb.w	r3, [r5, #1004]	; 0x3ec
 8001236:	2b01      	cmp	r3, #1
 8001238:	d009      	beq.n	800124e <HAL_PCD_EP_ClrStall+0x46>
 800123a:	2301      	movs	r3, #1
 800123c:	f885 33ec 	strb.w	r3, [r5, #1004]	; 0x3ec
  USB_EPClearStall(hpcd->Instance , ep);
 8001240:	6828      	ldr	r0, [r5, #0]
 8001242:	f001 fe77 	bl	8002f34 <USB_EPClearStall>
  __HAL_UNLOCK(hpcd); 
 8001246:	f885 43ec 	strb.w	r4, [r5, #1004]	; 0x3ec
  return HAL_OK;
 800124a:	4620      	mov	r0, r4
 800124c:	bd38      	pop	{r3, r4, r5, pc}
  __HAL_LOCK(hpcd); 
 800124e:	2002      	movs	r0, #2
}
 8001250:	bd38      	pop	{r3, r4, r5, pc}

08001252 <HAL_PCDEx_PMAConfig>:

{
  PCD_EPTypeDef *ep = NULL;
  
  /* initialize ep structure*/
  if ((0x80 & ep_addr) == 0x80)
 8001252:	f011 0f80 	tst.w	r1, #128	; 0x80
  {
    ep = &hpcd->IN_ep[ep_addr & 0x7F];
 8001256:	bf1b      	ittet	ne
 8001258:	f001 017f 	andne.w	r1, r1, #127	; 0x7f
 800125c:	eb00 1041 	addne.w	r0, r0, r1, lsl #5
  }
  else
  {
    ep = &hpcd->OUT_ep[ep_addr];
 8001260:	eb00 1041 	addeq.w	r0, r0, r1, lsl #5
    ep = &hpcd->IN_ep[ep_addr & 0x7F];
 8001264:	302c      	addne	r0, #44	; 0x2c
    ep = &hpcd->OUT_ep[ep_addr];
 8001266:	bf08      	it	eq
 8001268:	f500 7003 	addeq.w	r0, r0, #524	; 0x20c
  }
  
  /* Here we check if the endpoint is single or double Buffer*/
  if (ep_kind == PCD_SNG_BUF)
 800126c:	b91a      	cbnz	r2, 8001276 <HAL_PCDEx_PMAConfig+0x24>
  {
    /*Single Buffer*/
    ep->doublebuffer = 0;
 800126e:	7282      	strb	r2, [r0, #10]
    /*Configure te PMA*/
    ep->pmaadress = (uint16_t)pmaadress;
 8001270:	8083      	strh	r3, [r0, #4]
    ep->pmaaddr0 =  pmaadress & 0xFFFF;
    ep->pmaaddr1 =  (pmaadress & 0xFFFF0000) >> 16;
  }
  
  return HAL_OK; 
}
 8001272:	2000      	movs	r0, #0
 8001274:	4770      	bx	lr
    ep->doublebuffer = 1;
 8001276:	2201      	movs	r2, #1
    ep->pmaaddr0 =  pmaadress & 0xFFFF;
 8001278:	80c3      	strh	r3, [r0, #6]
    ep->pmaaddr1 =  (pmaadress & 0xFFFF0000) >> 16;
 800127a:	0c1b      	lsrs	r3, r3, #16
    ep->doublebuffer = 1;
 800127c:	7282      	strb	r2, [r0, #10]
    ep->pmaaddr1 =  (pmaadress & 0xFFFF0000) >> 16;
 800127e:	8103      	strh	r3, [r0, #8]
 8001280:	e7f7      	b.n	8001272 <HAL_PCDEx_PMAConfig+0x20>

08001282 <HAL_PCDEx_ActivateBCD>:
  * @param  hpcd: PCD handle
  * @retval HAL status
  */
HAL_StatusTypeDef HAL_PCDEx_ActivateBCD(PCD_HandleTypeDef *hpcd)
{
  USB_TypeDef *USBx = hpcd->Instance;
 8001282:	6802      	ldr	r2, [r0, #0]
  hpcd->battery_charging_active = ENABLE;
 8001284:	2301      	movs	r3, #1
 8001286:	f8c0 342c 	str.w	r3, [r0, #1068]	; 0x42c
  
  USBx->BCDR |= (USB_BCDR_BCDEN);
 800128a:	f8b2 3058 	ldrh.w	r3, [r2, #88]	; 0x58
 800128e:	b29b      	uxth	r3, r3
 8001290:	f043 0301 	orr.w	r3, r3, #1
 8001294:	f8a2 3058 	strh.w	r3, [r2, #88]	; 0x58
  /* Enable DCD : Data Contact Detect */
  USBx->BCDR |= (USB_BCDR_DCDEN);
 8001298:	f8b2 3058 	ldrh.w	r3, [r2, #88]	; 0x58
 800129c:	b29b      	uxth	r3, r3
 800129e:	f043 0302 	orr.w	r3, r3, #2
 80012a2:	f8a2 3058 	strh.w	r3, [r2, #88]	; 0x58
  
  return HAL_OK;  
}
 80012a6:	2000      	movs	r0, #0
 80012a8:	4770      	bx	lr

080012aa <HAL_PCDEx_ActivateLPM>:
  * @retval HAL status
  */
HAL_StatusTypeDef HAL_PCDEx_ActivateLPM(PCD_HandleTypeDef *hpcd)
{

  USB_TypeDef *USBx = hpcd->Instance;
 80012aa:	6802      	ldr	r2, [r0, #0]
{
 80012ac:	4603      	mov	r3, r0
  hpcd->lpm_active = ENABLE;
 80012ae:	2101      	movs	r1, #1
 80012b0:	f8c0 1428 	str.w	r1, [r0, #1064]	; 0x428
  hpcd->LPM_State = LPM_L0;
 80012b4:	2000      	movs	r0, #0
 80012b6:	f883 0420 	strb.w	r0, [r3, #1056]	; 0x420
  
  USBx->LPMCSR |= (USB_LPMCSR_LMPEN);
 80012ba:	f8b2 3054 	ldrh.w	r3, [r2, #84]	; 0x54
 80012be:	b29b      	uxth	r3, r3
 80012c0:	430b      	orrs	r3, r1
 80012c2:	f8a2 3054 	strh.w	r3, [r2, #84]	; 0x54
  USBx->LPMCSR |= (USB_LPMCSR_LPMACK);
 80012c6:	f8b2 3054 	ldrh.w	r3, [r2, #84]	; 0x54
 80012ca:	b29b      	uxth	r3, r3
 80012cc:	f043 0302 	orr.w	r3, r3, #2
 80012d0:	f8a2 3054 	strh.w	r3, [r2, #84]	; 0x54
    
 
  return HAL_OK;  
}
 80012d4:	4770      	bx	lr
	...

080012d8 <HAL_PWREx_GetVoltageRange>:
    else
    {
      return PWR_REGULATOR_VOLTAGE_SCALE1_BOOST;
    }
#else
  return  (PWR->CR1 & PWR_CR1_VOS);
 80012d8:	4b02      	ldr	r3, [pc, #8]	; (80012e4 <HAL_PWREx_GetVoltageRange+0xc>)
 80012da:	6818      	ldr	r0, [r3, #0]
#endif  
}
 80012dc:	f400 60c0 	and.w	r0, r0, #1536	; 0x600
 80012e0:	4770      	bx	lr
 80012e2:	bf00      	nop
 80012e4:	40007000 	.word	0x40007000

080012e8 <HAL_PWREx_ControlVoltageScaling>:
  *        cleared before returning the status. If the flag is not cleared within
  *        50 microseconds, HAL_TIMEOUT status is reported.                    
  * @retval HAL Status
  */
HAL_StatusTypeDef HAL_PWREx_ControlVoltageScaling(uint32_t VoltageScaling)
{
 80012e8:	4b16      	ldr	r3, [pc, #88]	; (8001344 <HAL_PWREx_ControlVoltageScaling+0x5c>)
#else

  /* If Set Range 1 */
  if (VoltageScaling == PWR_REGULATOR_VOLTAGE_SCALE1)
  {
    if (READ_BIT(PWR->CR1, PWR_CR1_VOS) != PWR_REGULATOR_VOLTAGE_SCALE1)
 80012ea:	681a      	ldr	r2, [r3, #0]
  if (VoltageScaling == PWR_REGULATOR_VOLTAGE_SCALE1)
 80012ec:	f5b0 7f00 	cmp.w	r0, #512	; 0x200
    if (READ_BIT(PWR->CR1, PWR_CR1_VOS) != PWR_REGULATOR_VOLTAGE_SCALE1)
 80012f0:	f402 62c0 	and.w	r2, r2, #1536	; 0x600
  if (VoltageScaling == PWR_REGULATOR_VOLTAGE_SCALE1)
 80012f4:	d11a      	bne.n	800132c <HAL_PWREx_ControlVoltageScaling+0x44>
    if (READ_BIT(PWR->CR1, PWR_CR1_VOS) != PWR_REGULATOR_VOLTAGE_SCALE1)
 80012f6:	f5b2 7f00 	cmp.w	r2, #512	; 0x200
 80012fa:	d013      	beq.n	8001324 <HAL_PWREx_ControlVoltageScaling+0x3c>
    {
      /* Set Range 1 */
      MODIFY_REG(PWR->CR1, PWR_CR1_VOS, PWR_REGULATOR_VOLTAGE_SCALE1);
 80012fc:	681a      	ldr	r2, [r3, #0]
      
      /* Wait until VOSF is cleared */      
      wait_loop_index = (PWR_FLAG_SETTING_DELAY_US * (SystemCoreClock / 1000000));
 80012fe:	4912      	ldr	r1, [pc, #72]	; (8001348 <HAL_PWREx_ControlVoltageScaling+0x60>)
      MODIFY_REG(PWR->CR1, PWR_CR1_VOS, PWR_REGULATOR_VOLTAGE_SCALE1);
 8001300:	f422 62c0 	bic.w	r2, r2, #1536	; 0x600
 8001304:	f442 7200 	orr.w	r2, r2, #512	; 0x200
 8001308:	601a      	str	r2, [r3, #0]
      wait_loop_index = (PWR_FLAG_SETTING_DELAY_US * (SystemCoreClock / 1000000));
 800130a:	4a10      	ldr	r2, [pc, #64]	; (800134c <HAL_PWREx_ControlVoltageScaling+0x64>)
 800130c:	6812      	ldr	r2, [r2, #0]
 800130e:	fbb2 f1f1 	udiv	r1, r2, r1
 8001312:	2232      	movs	r2, #50	; 0x32
 8001314:	434a      	muls	r2, r1
      while ((wait_loop_index != 0) && (HAL_IS_BIT_SET(PWR->SR2, PWR_SR2_VOSF)))
 8001316:	b112      	cbz	r2, 800131e <HAL_PWREx_ControlVoltageScaling+0x36>
 8001318:	6959      	ldr	r1, [r3, #20]
 800131a:	0549      	lsls	r1, r1, #21
 800131c:	d404      	bmi.n	8001328 <HAL_PWREx_ControlVoltageScaling+0x40>
      {
        wait_loop_index--;
      }
      if (HAL_IS_BIT_SET(PWR->SR2, PWR_SR2_VOSF))
 800131e:	695b      	ldr	r3, [r3, #20]
 8001320:	055b      	lsls	r3, r3, #21
 8001322:	d40d      	bmi.n	8001340 <HAL_PWREx_ControlVoltageScaling+0x58>
      /* No need to wait for VOSF to be cleared for this transition */
    }
  }
#endif  
  
  return HAL_OK;
 8001324:	2000      	movs	r0, #0
 8001326:	4770      	bx	lr
        wait_loop_index--;
 8001328:	3a01      	subs	r2, #1
 800132a:	e7f4      	b.n	8001316 <HAL_PWREx_ControlVoltageScaling+0x2e>
    if (READ_BIT(PWR->CR1, PWR_CR1_VOS) != PWR_REGULATOR_VOLTAGE_SCALE2)
 800132c:	f5b2 6f80 	cmp.w	r2, #1024	; 0x400
      MODIFY_REG(PWR->CR1, PWR_CR1_VOS, PWR_REGULATOR_VOLTAGE_SCALE2);
 8001330:	bf1f      	itttt	ne
 8001332:	681a      	ldrne	r2, [r3, #0]
 8001334:	f422 62c0 	bicne.w	r2, r2, #1536	; 0x600
 8001338:	f442 6280 	orrne.w	r2, r2, #1024	; 0x400
 800133c:	601a      	strne	r2, [r3, #0]
 800133e:	e7f1      	b.n	8001324 <HAL_PWREx_ControlVoltageScaling+0x3c>
        return HAL_TIMEOUT;
 8001340:	2003      	movs	r0, #3
}  
 8001342:	4770      	bx	lr
 8001344:	40007000 	.word	0x40007000
 8001348:	000f4240 	.word	0x000f4240
 800134c:	200001f8 	.word	0x200001f8

08001350 <HAL_PWREx_EnableVddUSB>:
  * @note  Remove VDDUSB electrical and logical isolation, once VDDUSB supply is present.  
  * @retval None
  */
void HAL_PWREx_EnableVddUSB(void)
{
  SET_BIT(PWR->CR2, PWR_CR2_USV);
 8001350:	4a02      	ldr	r2, [pc, #8]	; (800135c <HAL_PWREx_EnableVddUSB+0xc>)
 8001352:	6853      	ldr	r3, [r2, #4]
 8001354:	f443 6380 	orr.w	r3, r3, #1024	; 0x400
 8001358:	6053      	str	r3, [r2, #4]
 800135a:	4770      	bx	lr
 800135c:	40007000 	.word	0x40007000

08001360 <RCC_SetFlashLatencyFromMSIRange>:
            voltage range.
  * @param  msirange  MSI range value from RCC_MSIRANGE_0 to RCC_MSIRANGE_11
  * @retval HAL status
  */
static HAL_StatusTypeDef RCC_SetFlashLatencyFromMSIRange(uint32_t msirange)
{
 8001360:	b537      	push	{r0, r1, r2, r4, r5, lr}
  uint32_t vos = 0;
  uint32_t latency = FLASH_LATENCY_0;  /* default value 0WS */

  if(__HAL_RCC_PWR_IS_CLK_ENABLED())
 8001362:	4d1e      	ldr	r5, [pc, #120]	; (80013dc <RCC_SetFlashLatencyFromMSIRange+0x7c>)
 8001364:	6dab      	ldr	r3, [r5, #88]	; 0x58
 8001366:	00da      	lsls	r2, r3, #3
{
 8001368:	4604      	mov	r4, r0
  if(__HAL_RCC_PWR_IS_CLK_ENABLED())
 800136a:	d518      	bpl.n	800139e <RCC_SetFlashLatencyFromMSIRange+0x3e>
  {
    vos = HAL_PWREx_GetVoltageRange();
 800136c:	f7ff ffb4 	bl	80012d8 <HAL_PWREx_GetVoltageRange>
    __HAL_RCC_PWR_CLK_ENABLE();
    vos = HAL_PWREx_GetVoltageRange();
    __HAL_RCC_PWR_CLK_DISABLE();
  }

  if(vos == PWR_REGULATOR_VOLTAGE_SCALE1)
 8001370:	f5b0 7f00 	cmp.w	r0, #512	; 0x200
 8001374:	d123      	bne.n	80013be <RCC_SetFlashLatencyFromMSIRange+0x5e>
  {
    if(msirange > RCC_MSIRANGE_8)
 8001376:	2c80      	cmp	r4, #128	; 0x80
 8001378:	d929      	bls.n	80013ce <RCC_SetFlashLatencyFromMSIRange+0x6e>
    {
      /* MSI > 16Mhz */
      if(msirange > RCC_MSIRANGE_10)
 800137a:	2ca0      	cmp	r4, #160	; 0xa0
        latency = FLASH_LATENCY_2; /* 2WS */
      }
      else
      {
        /* MSI 24Mhz or 32Mhz */
        latency = FLASH_LATENCY_1; /* 1WS */
 800137c:	bf8c      	ite	hi
 800137e:	2002      	movhi	r0, #2
 8001380:	2001      	movls	r0, #1
      /* else MSI < 8Mhz default FLASH_LATENCY_0 0WS */
    }
#endif
  }

  __HAL_FLASH_SET_LATENCY(latency);
 8001382:	4a17      	ldr	r2, [pc, #92]	; (80013e0 <RCC_SetFlashLatencyFromMSIRange+0x80>)
 8001384:	6813      	ldr	r3, [r2, #0]
 8001386:	f023 0307 	bic.w	r3, r3, #7
 800138a:	4303      	orrs	r3, r0
 800138c:	6013      	str	r3, [r2, #0]

  /* Check that the new number of wait states is taken into account to access the Flash
     memory by reading the FLASH_ACR register */
  if(READ_BIT(FLASH->ACR, FLASH_ACR_LATENCY) != latency)
 800138e:	6813      	ldr	r3, [r2, #0]
 8001390:	f003 0307 	and.w	r3, r3, #7
  {
    return HAL_ERROR;
  }

  return HAL_OK;
}
 8001394:	1a18      	subs	r0, r3, r0
 8001396:	bf18      	it	ne
 8001398:	2001      	movne	r0, #1
 800139a:	b003      	add	sp, #12
 800139c:	bd30      	pop	{r4, r5, pc}
    __HAL_RCC_PWR_CLK_ENABLE();
 800139e:	6dab      	ldr	r3, [r5, #88]	; 0x58
 80013a0:	f043 5380 	orr.w	r3, r3, #268435456	; 0x10000000
 80013a4:	65ab      	str	r3, [r5, #88]	; 0x58
 80013a6:	6dab      	ldr	r3, [r5, #88]	; 0x58
 80013a8:	f003 5380 	and.w	r3, r3, #268435456	; 0x10000000
 80013ac:	9301      	str	r3, [sp, #4]
 80013ae:	9b01      	ldr	r3, [sp, #4]
    vos = HAL_PWREx_GetVoltageRange();
 80013b0:	f7ff ff92 	bl	80012d8 <HAL_PWREx_GetVoltageRange>
    __HAL_RCC_PWR_CLK_DISABLE();
 80013b4:	6dab      	ldr	r3, [r5, #88]	; 0x58
 80013b6:	f023 5380 	bic.w	r3, r3, #268435456	; 0x10000000
 80013ba:	65ab      	str	r3, [r5, #88]	; 0x58
 80013bc:	e7d8      	b.n	8001370 <RCC_SetFlashLatencyFromMSIRange+0x10>
    if(msirange > RCC_MSIRANGE_8)
 80013be:	2c80      	cmp	r4, #128	; 0x80
 80013c0:	d807      	bhi.n	80013d2 <RCC_SetFlashLatencyFromMSIRange+0x72>
      if(msirange == RCC_MSIRANGE_8)
 80013c2:	d008      	beq.n	80013d6 <RCC_SetFlashLatencyFromMSIRange+0x76>
      else if(msirange == RCC_MSIRANGE_7)
 80013c4:	f1a4 0370 	sub.w	r3, r4, #112	; 0x70
 80013c8:	4258      	negs	r0, r3
 80013ca:	4158      	adcs	r0, r3
 80013cc:	e7d9      	b.n	8001382 <RCC_SetFlashLatencyFromMSIRange+0x22>
  uint32_t latency = FLASH_LATENCY_0;  /* default value 0WS */
 80013ce:	2000      	movs	r0, #0
 80013d0:	e7d7      	b.n	8001382 <RCC_SetFlashLatencyFromMSIRange+0x22>
      latency = FLASH_LATENCY_3; /* 3WS */
 80013d2:	2003      	movs	r0, #3
 80013d4:	e7d5      	b.n	8001382 <RCC_SetFlashLatencyFromMSIRange+0x22>
        latency = FLASH_LATENCY_2; /* 2WS */
 80013d6:	2002      	movs	r0, #2
 80013d8:	e7d3      	b.n	8001382 <RCC_SetFlashLatencyFromMSIRange+0x22>
 80013da:	bf00      	nop
 80013dc:	40021000 	.word	0x40021000
 80013e0:	40022000 	.word	0x40022000

080013e4 <HAL_RCC_GetSysClockFreq>:
  if((__HAL_RCC_GET_SYSCLK_SOURCE() == RCC_CFGR_SWS_MSI) ||
 80013e4:	4b2f      	ldr	r3, [pc, #188]	; (80014a4 <HAL_RCC_GetSysClockFreq+0xc0>)
 80013e6:	689a      	ldr	r2, [r3, #8]
 80013e8:	f012 0f0c 	tst.w	r2, #12
{
 80013ec:	b510      	push	{r4, lr}
  if((__HAL_RCC_GET_SYSCLK_SOURCE() == RCC_CFGR_SWS_MSI) ||
 80013ee:	d009      	beq.n	8001404 <HAL_RCC_GetSysClockFreq+0x20>
     ((__HAL_RCC_GET_SYSCLK_SOURCE() == RCC_CFGR_SWS_PLL) && (__HAL_RCC_GET_PLL_OSCSOURCE() == RCC_PLLSOURCE_MSI)))
 80013f0:	689a      	ldr	r2, [r3, #8]
 80013f2:	f002 020c 	and.w	r2, r2, #12
  if((__HAL_RCC_GET_SYSCLK_SOURCE() == RCC_CFGR_SWS_MSI) ||
 80013f6:	2a0c      	cmp	r2, #12
 80013f8:	d12d      	bne.n	8001456 <HAL_RCC_GetSysClockFreq+0x72>
     ((__HAL_RCC_GET_SYSCLK_SOURCE() == RCC_CFGR_SWS_PLL) && (__HAL_RCC_GET_PLL_OSCSOURCE() == RCC_PLLSOURCE_MSI)))
 80013fa:	68da      	ldr	r2, [r3, #12]
 80013fc:	f002 0203 	and.w	r2, r2, #3
 8001400:	2a01      	cmp	r2, #1
 8001402:	d128      	bne.n	8001456 <HAL_RCC_GetSysClockFreq+0x72>
    if(READ_BIT(RCC->CR, RCC_CR_MSIRGSEL) == RESET)
 8001404:	681a      	ldr	r2, [r3, #0]
    msirange = MSIRangeTable[msirange];
 8001406:	4928      	ldr	r1, [pc, #160]	; (80014a8 <HAL_RCC_GetSysClockFreq+0xc4>)
    if(READ_BIT(RCC->CR, RCC_CR_MSIRGSEL) == RESET)
 8001408:	0712      	lsls	r2, r2, #28
      msirange = READ_BIT(RCC->CSR, RCC_CSR_MSISRANGE) >> RCC_CSR_MSISRANGE_Pos;
 800140a:	bf55      	itete	pl
 800140c:	f8d3 2094 	ldrpl.w	r2, [r3, #148]	; 0x94
      msirange = READ_BIT(RCC->CR, RCC_CR_MSIRANGE) >> RCC_CR_MSIRANGE_Pos;
 8001410:	681a      	ldrmi	r2, [r3, #0]
      msirange = READ_BIT(RCC->CSR, RCC_CSR_MSISRANGE) >> RCC_CSR_MSISRANGE_Pos;
 8001412:	f3c2 2203 	ubfxpl	r2, r2, #8, #4
      msirange = READ_BIT(RCC->CR, RCC_CR_MSIRANGE) >> RCC_CR_MSIRANGE_Pos;
 8001416:	f3c2 1203 	ubfxmi	r2, r2, #4, #4
    msirange = MSIRangeTable[msirange];
 800141a:	f851 2022 	ldr.w	r2, [r1, r2, lsl #2]
    if(__HAL_RCC_GET_SYSCLK_SOURCE() == RCC_CFGR_SWS_MSI)
 800141e:	6899      	ldr	r1, [r3, #8]
      sysclockfreq = msirange;
 8001420:	f011 0f0c 	tst.w	r1, #12
 8001424:	bf0c      	ite	eq
 8001426:	4610      	moveq	r0, r2
 8001428:	2000      	movne	r0, #0
  if(__HAL_RCC_GET_SYSCLK_SOURCE() == RCC_CFGR_SWS_PLL)
 800142a:	6899      	ldr	r1, [r3, #8]
 800142c:	f001 010c 	and.w	r1, r1, #12
 8001430:	290c      	cmp	r1, #12
 8001432:	d130      	bne.n	8001496 <HAL_RCC_GetSysClockFreq+0xb2>
    pllsource = READ_BIT(RCC->PLLCFGR, RCC_PLLCFGR_PLLSRC);
 8001434:	68dc      	ldr	r4, [r3, #12]
    pllm = (READ_BIT(RCC->PLLCFGR, RCC_PLLCFGR_PLLM) >> RCC_PLLCFGR_PLLM_Pos) + 1U ;
 8001436:	68d8      	ldr	r0, [r3, #12]
 8001438:	f3c0 1002 	ubfx	r0, r0, #4, #3
 800143c:	1c41      	adds	r1, r0, #1
    pllsource = READ_BIT(RCC->PLLCFGR, RCC_PLLCFGR_PLLSRC);
 800143e:	f004 0003 	and.w	r0, r4, #3
    switch (pllsource)
 8001442:	2802      	cmp	r0, #2
 8001444:	d019      	beq.n	800147a <HAL_RCC_GetSysClockFreq+0x96>
 8001446:	2803      	cmp	r0, #3
 8001448:	d026      	beq.n	8001498 <HAL_RCC_GetSysClockFreq+0xb4>
      pllvco = (msirange / pllm) * (READ_BIT(RCC->PLLCFGR, RCC_PLLCFGR_PLLN) >> RCC_PLLCFGR_PLLN_Pos);
 800144a:	fbb2 f2f1 	udiv	r2, r2, r1
 800144e:	68d8      	ldr	r0, [r3, #12]
 8001450:	f3c0 2006 	ubfx	r0, r0, #8, #7
 8001454:	e017      	b.n	8001486 <HAL_RCC_GetSysClockFreq+0xa2>
  else if(__HAL_RCC_GET_SYSCLK_SOURCE() == RCC_CFGR_SWS_HSI)
 8001456:	689a      	ldr	r2, [r3, #8]
 8001458:	f002 020c 	and.w	r2, r2, #12
 800145c:	2a04      	cmp	r2, #4
 800145e:	d007      	beq.n	8001470 <HAL_RCC_GetSysClockFreq+0x8c>
  else if(__HAL_RCC_GET_SYSCLK_SOURCE() == RCC_CFGR_SWS_HSE)
 8001460:	689a      	ldr	r2, [r3, #8]
 8001462:	f002 020c 	and.w	r2, r2, #12
 8001466:	2a08      	cmp	r2, #8
 8001468:	d104      	bne.n	8001474 <HAL_RCC_GetSysClockFreq+0x90>
    sysclockfreq = HSE_VALUE;
 800146a:	4810      	ldr	r0, [pc, #64]	; (80014ac <HAL_RCC_GetSysClockFreq+0xc8>)
  uint32_t msirange = 0U, pllvco = 0U, pllsource = 0U, pllr = 2U, pllm = 2U;
 800146c:	2200      	movs	r2, #0
 800146e:	e7dc      	b.n	800142a <HAL_RCC_GetSysClockFreq+0x46>
    sysclockfreq = HSI_VALUE;
 8001470:	480f      	ldr	r0, [pc, #60]	; (80014b0 <HAL_RCC_GetSysClockFreq+0xcc>)
 8001472:	e7fb      	b.n	800146c <HAL_RCC_GetSysClockFreq+0x88>
  uint32_t sysclockfreq = 0U;
 8001474:	2000      	movs	r0, #0
  uint32_t msirange = 0U, pllvco = 0U, pllsource = 0U, pllr = 2U, pllm = 2U;
 8001476:	4602      	mov	r2, r0
 8001478:	e7d7      	b.n	800142a <HAL_RCC_GetSysClockFreq+0x46>
      pllvco = (HSI_VALUE / pllm) * (READ_BIT(RCC->PLLCFGR, RCC_PLLCFGR_PLLN) >> RCC_PLLCFGR_PLLN_Pos);
 800147a:	68da      	ldr	r2, [r3, #12]
 800147c:	480c      	ldr	r0, [pc, #48]	; (80014b0 <HAL_RCC_GetSysClockFreq+0xcc>)
 800147e:	f3c2 2206 	ubfx	r2, r2, #8, #7
      pllvco = (HSE_VALUE / pllm) * (READ_BIT(RCC->PLLCFGR, RCC_PLLCFGR_PLLN) >> RCC_PLLCFGR_PLLN_Pos);
 8001482:	fbb0 f0f1 	udiv	r0, r0, r1
    pllr = ((READ_BIT(RCC->PLLCFGR, RCC_PLLCFGR_PLLR) >> RCC_PLLCFGR_PLLR_Pos) + 1U ) * 2U;
 8001486:	68db      	ldr	r3, [r3, #12]
 8001488:	f3c3 6341 	ubfx	r3, r3, #25, #2
 800148c:	3301      	adds	r3, #1
      pllvco = (msirange / pllm) * (READ_BIT(RCC->PLLCFGR, RCC_PLLCFGR_PLLN) >> RCC_PLLCFGR_PLLN_Pos);
 800148e:	4350      	muls	r0, r2
    pllr = ((READ_BIT(RCC->PLLCFGR, RCC_PLLCFGR_PLLR) >> RCC_PLLCFGR_PLLR_Pos) + 1U ) * 2U;
 8001490:	005b      	lsls	r3, r3, #1
    sysclockfreq = pllvco/pllr;
 8001492:	fbb0 f0f3 	udiv	r0, r0, r3
}
 8001496:	bd10      	pop	{r4, pc}
      pllvco = (HSE_VALUE / pllm) * (READ_BIT(RCC->PLLCFGR, RCC_PLLCFGR_PLLN) >> RCC_PLLCFGR_PLLN_Pos);
 8001498:	68da      	ldr	r2, [r3, #12]
 800149a:	4804      	ldr	r0, [pc, #16]	; (80014ac <HAL_RCC_GetSysClockFreq+0xc8>)
 800149c:	f3c2 2206 	ubfx	r2, r2, #8, #7
 80014a0:	e7ef      	b.n	8001482 <HAL_RCC_GetSysClockFreq+0x9e>
 80014a2:	bf00      	nop
 80014a4:	40021000 	.word	0x40021000
 80014a8:	080046d0 	.word	0x080046d0
 80014ac:	007a1200 	.word	0x007a1200
 80014b0:	00f42400 	.word	0x00f42400

080014b4 <HAL_RCC_OscConfig>:
  if(((RCC_OscInitStruct->OscillatorType) & RCC_OSCILLATORTYPE_MSI) == RCC_OSCILLATORTYPE_MSI)
 80014b4:	6803      	ldr	r3, [r0, #0]
{
 80014b6:	e92d 41f3 	stmdb	sp!, {r0, r1, r4, r5, r6, r7, r8, lr}
 80014ba:	4605      	mov	r5, r0
  if(((RCC_OscInitStruct->OscillatorType) & RCC_OSCILLATORTYPE_MSI) == RCC_OSCILLATORTYPE_MSI)
 80014bc:	06d8      	lsls	r0, r3, #27
 80014be:	d539      	bpl.n	8001534 <HAL_RCC_OscConfig+0x80>
    if((__HAL_RCC_GET_SYSCLK_SOURCE() == RCC_CFGR_SWS_MSI) )
 80014c0:	4cab      	ldr	r4, [pc, #684]	; (8001770 <HAL_RCC_OscConfig+0x2bc>)
 80014c2:	68a3      	ldr	r3, [r4, #8]
 80014c4:	f013 0f0c 	tst.w	r3, #12
 80014c8:	d162      	bne.n	8001590 <HAL_RCC_OscConfig+0xdc>
      if((READ_BIT(RCC->CR, RCC_CR_MSIRDY) != RESET) && (RCC_OscInitStruct->MSIState == RCC_MSI_OFF))
 80014ca:	6823      	ldr	r3, [r4, #0]
 80014cc:	0799      	lsls	r1, r3, #30
 80014ce:	d503      	bpl.n	80014d8 <HAL_RCC_OscConfig+0x24>
 80014d0:	69ab      	ldr	r3, [r5, #24]
 80014d2:	b90b      	cbnz	r3, 80014d8 <HAL_RCC_OscConfig+0x24>
      return HAL_ERROR;
 80014d4:	2001      	movs	r0, #1
 80014d6:	e07f      	b.n	80015d8 <HAL_RCC_OscConfig+0x124>
        if(RCC_OscInitStruct->MSIClockRange > __HAL_RCC_GET_MSI_RANGE())
 80014d8:	6823      	ldr	r3, [r4, #0]
 80014da:	6a28      	ldr	r0, [r5, #32]
 80014dc:	071a      	lsls	r2, r3, #28
 80014de:	bf56      	itet	pl
 80014e0:	f8d4 3094 	ldrpl.w	r3, [r4, #148]	; 0x94
 80014e4:	6823      	ldrmi	r3, [r4, #0]
 80014e6:	091b      	lsrpl	r3, r3, #4
 80014e8:	f003 03f0 	and.w	r3, r3, #240	; 0xf0
 80014ec:	4283      	cmp	r3, r0
 80014ee:	d23a      	bcs.n	8001566 <HAL_RCC_OscConfig+0xb2>
          if(RCC_SetFlashLatencyFromMSIRange(RCC_OscInitStruct->MSIClockRange) != HAL_OK)
 80014f0:	f7ff ff36 	bl	8001360 <RCC_SetFlashLatencyFromMSIRange>
 80014f4:	2800      	cmp	r0, #0
 80014f6:	d1ed      	bne.n	80014d4 <HAL_RCC_OscConfig+0x20>
          __HAL_RCC_MSI_RANGE_CONFIG(RCC_OscInitStruct->MSIClockRange);
 80014f8:	6823      	ldr	r3, [r4, #0]
 80014fa:	f043 0308 	orr.w	r3, r3, #8
 80014fe:	6023      	str	r3, [r4, #0]
 8001500:	6823      	ldr	r3, [r4, #0]
 8001502:	6a2a      	ldr	r2, [r5, #32]
 8001504:	f023 03f0 	bic.w	r3, r3, #240	; 0xf0
 8001508:	4313      	orrs	r3, r2
 800150a:	6023      	str	r3, [r4, #0]
          __HAL_RCC_MSI_CALIBRATIONVALUE_ADJUST(RCC_OscInitStruct->MSICalibrationValue);
 800150c:	6863      	ldr	r3, [r4, #4]
 800150e:	69ea      	ldr	r2, [r5, #28]
 8001510:	f423 437f 	bic.w	r3, r3, #65280	; 0xff00
 8001514:	ea43 2302 	orr.w	r3, r3, r2, lsl #8
 8001518:	6063      	str	r3, [r4, #4]
        SystemCoreClock = HAL_RCC_GetSysClockFreq() >> AHBPrescTable[READ_BIT(RCC->CFGR, RCC_CFGR_HPRE) >> RCC_CFGR_HPRE_Pos];
 800151a:	f7ff ff63 	bl	80013e4 <HAL_RCC_GetSysClockFreq>
 800151e:	68a3      	ldr	r3, [r4, #8]
 8001520:	4a94      	ldr	r2, [pc, #592]	; (8001774 <HAL_RCC_OscConfig+0x2c0>)
 8001522:	f3c3 1303 	ubfx	r3, r3, #4, #4
 8001526:	5cd3      	ldrb	r3, [r2, r3]
 8001528:	40d8      	lsrs	r0, r3
 800152a:	4b93      	ldr	r3, [pc, #588]	; (8001778 <HAL_RCC_OscConfig+0x2c4>)
 800152c:	6018      	str	r0, [r3, #0]
        HAL_InitTick (TICK_INT_PRIORITY);
 800152e:	2000      	movs	r0, #0
 8001530:	f7fe ffd4 	bl	80004dc <HAL_InitTick>
  if(((RCC_OscInitStruct->OscillatorType) & RCC_OSCILLATORTYPE_HSE) == RCC_OSCILLATORTYPE_HSE)
 8001534:	682b      	ldr	r3, [r5, #0]
 8001536:	07d8      	lsls	r0, r3, #31
 8001538:	d461      	bmi.n	80015fe <HAL_RCC_OscConfig+0x14a>
  if(((RCC_OscInitStruct->OscillatorType) & RCC_OSCILLATORTYPE_HSI) == RCC_OSCILLATORTYPE_HSI)
 800153a:	682b      	ldr	r3, [r5, #0]
 800153c:	0799      	lsls	r1, r3, #30
 800153e:	f100 80a9 	bmi.w	8001694 <HAL_RCC_OscConfig+0x1e0>
  if(((RCC_OscInitStruct->OscillatorType) & RCC_OSCILLATORTYPE_LSI) == RCC_OSCILLATORTYPE_LSI)
 8001542:	682b      	ldr	r3, [r5, #0]
 8001544:	071a      	lsls	r2, r3, #28
 8001546:	f100 80e7 	bmi.w	8001718 <HAL_RCC_OscConfig+0x264>
  if(((RCC_OscInitStruct->OscillatorType) & RCC_OSCILLATORTYPE_LSE) == RCC_OSCILLATORTYPE_LSE)
 800154a:	682b      	ldr	r3, [r5, #0]
 800154c:	075b      	lsls	r3, r3, #29
 800154e:	f100 8115 	bmi.w	800177c <HAL_RCC_OscConfig+0x2c8>
  if(((RCC_OscInitStruct->OscillatorType) & RCC_OSCILLATORTYPE_HSI48) == RCC_OSCILLATORTYPE_HSI48)
 8001552:	682b      	ldr	r3, [r5, #0]
 8001554:	069a      	lsls	r2, r3, #26
 8001556:	f100 817c 	bmi.w	8001852 <HAL_RCC_OscConfig+0x39e>
  if(RCC_OscInitStruct->PLL.PLLState != RCC_PLL_NONE)
 800155a:	6aaa      	ldr	r2, [r5, #40]	; 0x28
 800155c:	2a00      	cmp	r2, #0
 800155e:	f040 81a3 	bne.w	80018a8 <HAL_RCC_OscConfig+0x3f4>
  return HAL_OK;
 8001562:	2000      	movs	r0, #0
 8001564:	e038      	b.n	80015d8 <HAL_RCC_OscConfig+0x124>
          __HAL_RCC_MSI_RANGE_CONFIG(RCC_OscInitStruct->MSIClockRange);
 8001566:	6823      	ldr	r3, [r4, #0]
 8001568:	f043 0308 	orr.w	r3, r3, #8
 800156c:	6023      	str	r3, [r4, #0]
 800156e:	6823      	ldr	r3, [r4, #0]
 8001570:	f023 03f0 	bic.w	r3, r3, #240	; 0xf0
 8001574:	4303      	orrs	r3, r0
 8001576:	6023      	str	r3, [r4, #0]
          __HAL_RCC_MSI_CALIBRATIONVALUE_ADJUST(RCC_OscInitStruct->MSICalibrationValue);
 8001578:	6863      	ldr	r3, [r4, #4]
 800157a:	69ea      	ldr	r2, [r5, #28]
 800157c:	f423 437f 	bic.w	r3, r3, #65280	; 0xff00
 8001580:	ea43 2302 	orr.w	r3, r3, r2, lsl #8
 8001584:	6063      	str	r3, [r4, #4]
          if(RCC_SetFlashLatencyFromMSIRange(RCC_OscInitStruct->MSIClockRange) != HAL_OK)
 8001586:	f7ff feeb 	bl	8001360 <RCC_SetFlashLatencyFromMSIRange>
 800158a:	2800      	cmp	r0, #0
 800158c:	d0c5      	beq.n	800151a <HAL_RCC_OscConfig+0x66>
 800158e:	e7a1      	b.n	80014d4 <HAL_RCC_OscConfig+0x20>
      if(RCC_OscInitStruct->MSIState != RCC_MSI_OFF)
 8001590:	69ab      	ldr	r3, [r5, #24]
 8001592:	b323      	cbz	r3, 80015de <HAL_RCC_OscConfig+0x12a>
        __HAL_RCC_MSI_ENABLE();
 8001594:	6823      	ldr	r3, [r4, #0]
 8001596:	f043 0301 	orr.w	r3, r3, #1
 800159a:	6023      	str	r3, [r4, #0]
        tickstart = HAL_GetTick();
 800159c:	f7fe ffc6 	bl	800052c <HAL_GetTick>
 80015a0:	4606      	mov	r6, r0
        while(READ_BIT(RCC->CR, RCC_CR_MSIRDY) == RESET)
 80015a2:	6823      	ldr	r3, [r4, #0]
 80015a4:	079b      	lsls	r3, r3, #30
 80015a6:	d511      	bpl.n	80015cc <HAL_RCC_OscConfig+0x118>
        __HAL_RCC_MSI_RANGE_CONFIG(RCC_OscInitStruct->MSIClockRange);
 80015a8:	6823      	ldr	r3, [r4, #0]
 80015aa:	f043 0308 	orr.w	r3, r3, #8
 80015ae:	6023      	str	r3, [r4, #0]
 80015b0:	6823      	ldr	r3, [r4, #0]
 80015b2:	6a2a      	ldr	r2, [r5, #32]
 80015b4:	f023 03f0 	bic.w	r3, r3, #240	; 0xf0
 80015b8:	4313      	orrs	r3, r2
 80015ba:	6023      	str	r3, [r4, #0]
        __HAL_RCC_MSI_CALIBRATIONVALUE_ADJUST(RCC_OscInitStruct->MSICalibrationValue);
 80015bc:	6863      	ldr	r3, [r4, #4]
 80015be:	69ea      	ldr	r2, [r5, #28]
 80015c0:	f423 437f 	bic.w	r3, r3, #65280	; 0xff00
 80015c4:	ea43 2302 	orr.w	r3, r3, r2, lsl #8
 80015c8:	6063      	str	r3, [r4, #4]
 80015ca:	e7b3      	b.n	8001534 <HAL_RCC_OscConfig+0x80>
          if((HAL_GetTick() - tickstart) > MSI_TIMEOUT_VALUE)
 80015cc:	f7fe ffae 	bl	800052c <HAL_GetTick>
 80015d0:	1b80      	subs	r0, r0, r6
 80015d2:	2802      	cmp	r0, #2
 80015d4:	d9e5      	bls.n	80015a2 <HAL_RCC_OscConfig+0xee>
            return HAL_TIMEOUT;
 80015d6:	2003      	movs	r0, #3
}
 80015d8:	b002      	add	sp, #8
 80015da:	e8bd 81f0 	ldmia.w	sp!, {r4, r5, r6, r7, r8, pc}
        __HAL_RCC_MSI_DISABLE();
 80015de:	6823      	ldr	r3, [r4, #0]
 80015e0:	f023 0301 	bic.w	r3, r3, #1
 80015e4:	6023      	str	r3, [r4, #0]
        tickstart = HAL_GetTick();
 80015e6:	f7fe ffa1 	bl	800052c <HAL_GetTick>
 80015ea:	4606      	mov	r6, r0
        while(READ_BIT(RCC->CR, RCC_CR_MSIRDY) != RESET)
 80015ec:	6823      	ldr	r3, [r4, #0]
 80015ee:	079f      	lsls	r7, r3, #30
 80015f0:	d5a0      	bpl.n	8001534 <HAL_RCC_OscConfig+0x80>
          if((HAL_GetTick() - tickstart) > MSI_TIMEOUT_VALUE)
 80015f2:	f7fe ff9b 	bl	800052c <HAL_GetTick>
 80015f6:	1b80      	subs	r0, r0, r6
 80015f8:	2802      	cmp	r0, #2
 80015fa:	d9f7      	bls.n	80015ec <HAL_RCC_OscConfig+0x138>
 80015fc:	e7eb      	b.n	80015d6 <HAL_RCC_OscConfig+0x122>
    if((__HAL_RCC_GET_SYSCLK_SOURCE() == RCC_CFGR_SWS_HSE) ||
 80015fe:	4c5c      	ldr	r4, [pc, #368]	; (8001770 <HAL_RCC_OscConfig+0x2bc>)
 8001600:	68a3      	ldr	r3, [r4, #8]
 8001602:	f003 030c 	and.w	r3, r3, #12
 8001606:	2b08      	cmp	r3, #8
 8001608:	d009      	beq.n	800161e <HAL_RCC_OscConfig+0x16a>
       ((__HAL_RCC_GET_SYSCLK_SOURCE() == RCC_CFGR_SWS_PLL) && (__HAL_RCC_GET_PLL_OSCSOURCE() == RCC_PLLSOURCE_HSE)))
 800160a:	68a3      	ldr	r3, [r4, #8]
 800160c:	f003 030c 	and.w	r3, r3, #12
    if((__HAL_RCC_GET_SYSCLK_SOURCE() == RCC_CFGR_SWS_HSE) ||
 8001610:	2b0c      	cmp	r3, #12
 8001612:	d10b      	bne.n	800162c <HAL_RCC_OscConfig+0x178>
       ((__HAL_RCC_GET_SYSCLK_SOURCE() == RCC_CFGR_SWS_PLL) && (__HAL_RCC_GET_PLL_OSCSOURCE() == RCC_PLLSOURCE_HSE)))
 8001614:	68e3      	ldr	r3, [r4, #12]
 8001616:	f003 0303 	and.w	r3, r3, #3
 800161a:	2b03      	cmp	r3, #3
 800161c:	d106      	bne.n	800162c <HAL_RCC_OscConfig+0x178>
      if((READ_BIT(RCC->CR, RCC_CR_HSERDY) != RESET) && (RCC_OscInitStruct->HSEState == RCC_HSE_OFF))
 800161e:	6823      	ldr	r3, [r4, #0]
 8001620:	039a      	lsls	r2, r3, #14
 8001622:	d58a      	bpl.n	800153a <HAL_RCC_OscConfig+0x86>
 8001624:	686b      	ldr	r3, [r5, #4]
 8001626:	2b00      	cmp	r3, #0
 8001628:	d187      	bne.n	800153a <HAL_RCC_OscConfig+0x86>
 800162a:	e753      	b.n	80014d4 <HAL_RCC_OscConfig+0x20>
      __HAL_RCC_HSE_CONFIG(RCC_OscInitStruct->HSEState);
 800162c:	686b      	ldr	r3, [r5, #4]
 800162e:	f5b3 3f80 	cmp.w	r3, #65536	; 0x10000
 8001632:	d110      	bne.n	8001656 <HAL_RCC_OscConfig+0x1a2>
 8001634:	6823      	ldr	r3, [r4, #0]
 8001636:	f443 3380 	orr.w	r3, r3, #65536	; 0x10000
 800163a:	6023      	str	r3, [r4, #0]
        tickstart = HAL_GetTick();
 800163c:	f7fe ff76 	bl	800052c <HAL_GetTick>
 8001640:	4606      	mov	r6, r0
        while(READ_BIT(RCC->CR, RCC_CR_HSERDY) == RESET)
 8001642:	6823      	ldr	r3, [r4, #0]
 8001644:	039b      	lsls	r3, r3, #14
 8001646:	f53f af78 	bmi.w	800153a <HAL_RCC_OscConfig+0x86>
          if((HAL_GetTick() - tickstart) > HSE_TIMEOUT_VALUE)
 800164a:	f7fe ff6f 	bl	800052c <HAL_GetTick>
 800164e:	1b80      	subs	r0, r0, r6
 8001650:	2864      	cmp	r0, #100	; 0x64
 8001652:	d9f6      	bls.n	8001642 <HAL_RCC_OscConfig+0x18e>
 8001654:	e7bf      	b.n	80015d6 <HAL_RCC_OscConfig+0x122>
      __HAL_RCC_HSE_CONFIG(RCC_OscInitStruct->HSEState);
 8001656:	f5b3 2fa0 	cmp.w	r3, #327680	; 0x50000
 800165a:	d104      	bne.n	8001666 <HAL_RCC_OscConfig+0x1b2>
 800165c:	6823      	ldr	r3, [r4, #0]
 800165e:	f443 2380 	orr.w	r3, r3, #262144	; 0x40000
 8001662:	6023      	str	r3, [r4, #0]
 8001664:	e7e6      	b.n	8001634 <HAL_RCC_OscConfig+0x180>
 8001666:	6822      	ldr	r2, [r4, #0]
 8001668:	f422 3280 	bic.w	r2, r2, #65536	; 0x10000
 800166c:	6022      	str	r2, [r4, #0]
 800166e:	6822      	ldr	r2, [r4, #0]
 8001670:	f422 2280 	bic.w	r2, r2, #262144	; 0x40000
 8001674:	6022      	str	r2, [r4, #0]
      if(RCC_OscInitStruct->HSEState != RCC_HSE_OFF)
 8001676:	2b00      	cmp	r3, #0
 8001678:	d1e0      	bne.n	800163c <HAL_RCC_OscConfig+0x188>
        tickstart = HAL_GetTick();
 800167a:	f7fe ff57 	bl	800052c <HAL_GetTick>
 800167e:	4606      	mov	r6, r0
        while(READ_BIT(RCC->CR, RCC_CR_HSERDY) != RESET)
 8001680:	6823      	ldr	r3, [r4, #0]
 8001682:	039f      	lsls	r7, r3, #14
 8001684:	f57f af59 	bpl.w	800153a <HAL_RCC_OscConfig+0x86>
          if((HAL_GetTick() - tickstart) > HSE_TIMEOUT_VALUE)
 8001688:	f7fe ff50 	bl	800052c <HAL_GetTick>
 800168c:	1b80      	subs	r0, r0, r6
 800168e:	2864      	cmp	r0, #100	; 0x64
 8001690:	d9f6      	bls.n	8001680 <HAL_RCC_OscConfig+0x1cc>
 8001692:	e7a0      	b.n	80015d6 <HAL_RCC_OscConfig+0x122>
    if((__HAL_RCC_GET_SYSCLK_SOURCE() == RCC_CFGR_SWS_HSI) ||
 8001694:	4c36      	ldr	r4, [pc, #216]	; (8001770 <HAL_RCC_OscConfig+0x2bc>)
 8001696:	68a3      	ldr	r3, [r4, #8]
 8001698:	f003 030c 	and.w	r3, r3, #12
 800169c:	2b04      	cmp	r3, #4
 800169e:	d009      	beq.n	80016b4 <HAL_RCC_OscConfig+0x200>
       ((__HAL_RCC_GET_SYSCLK_SOURCE() == RCC_CFGR_SWS_PLL) && (__HAL_RCC_GET_PLL_OSCSOURCE() == RCC_PLLSOURCE_HSI)))
 80016a0:	68a3      	ldr	r3, [r4, #8]
 80016a2:	f003 030c 	and.w	r3, r3, #12
    if((__HAL_RCC_GET_SYSCLK_SOURCE() == RCC_CFGR_SWS_HSI) ||
 80016a6:	2b0c      	cmp	r3, #12
 80016a8:	d113      	bne.n	80016d2 <HAL_RCC_OscConfig+0x21e>
       ((__HAL_RCC_GET_SYSCLK_SOURCE() == RCC_CFGR_SWS_PLL) && (__HAL_RCC_GET_PLL_OSCSOURCE() == RCC_PLLSOURCE_HSI)))
 80016aa:	68e3      	ldr	r3, [r4, #12]
 80016ac:	f003 0303 	and.w	r3, r3, #3
 80016b0:	2b02      	cmp	r3, #2
 80016b2:	d10e      	bne.n	80016d2 <HAL_RCC_OscConfig+0x21e>
      if((READ_BIT(RCC->CR, RCC_CR_HSIRDY) != RESET) && (RCC_OscInitStruct->HSIState == RCC_HSI_OFF))
 80016b4:	6823      	ldr	r3, [r4, #0]
 80016b6:	055e      	lsls	r6, r3, #21
 80016b8:	d503      	bpl.n	80016c2 <HAL_RCC_OscConfig+0x20e>
 80016ba:	68eb      	ldr	r3, [r5, #12]
 80016bc:	2b00      	cmp	r3, #0
 80016be:	f43f af09 	beq.w	80014d4 <HAL_RCC_OscConfig+0x20>
        __HAL_RCC_HSI_CALIBRATIONVALUE_ADJUST(RCC_OscInitStruct->HSICalibrationValue);
 80016c2:	6863      	ldr	r3, [r4, #4]
 80016c4:	692a      	ldr	r2, [r5, #16]
 80016c6:	f023 53f8 	bic.w	r3, r3, #520093696	; 0x1f000000
 80016ca:	ea43 6302 	orr.w	r3, r3, r2, lsl #24
 80016ce:	6063      	str	r3, [r4, #4]
 80016d0:	e737      	b.n	8001542 <HAL_RCC_OscConfig+0x8e>
      if(RCC_OscInitStruct->HSIState != RCC_HSI_OFF)
 80016d2:	68eb      	ldr	r3, [r5, #12]
 80016d4:	b17b      	cbz	r3, 80016f6 <HAL_RCC_OscConfig+0x242>
        __HAL_RCC_HSI_ENABLE();
 80016d6:	6823      	ldr	r3, [r4, #0]
 80016d8:	f443 7380 	orr.w	r3, r3, #256	; 0x100
 80016dc:	6023      	str	r3, [r4, #0]
        tickstart = HAL_GetTick();
 80016de:	f7fe ff25 	bl	800052c <HAL_GetTick>
 80016e2:	4606      	mov	r6, r0
        while(READ_BIT(RCC->CR, RCC_CR_HSIRDY) == RESET)
 80016e4:	6823      	ldr	r3, [r4, #0]
 80016e6:	0558      	lsls	r0, r3, #21
 80016e8:	d4eb      	bmi.n	80016c2 <HAL_RCC_OscConfig+0x20e>
          if((HAL_GetTick() - tickstart) > HSI_TIMEOUT_VALUE)
 80016ea:	f7fe ff1f 	bl	800052c <HAL_GetTick>
 80016ee:	1b80      	subs	r0, r0, r6
 80016f0:	2802      	cmp	r0, #2
 80016f2:	d9f7      	bls.n	80016e4 <HAL_RCC_OscConfig+0x230>
 80016f4:	e76f      	b.n	80015d6 <HAL_RCC_OscConfig+0x122>
        __HAL_RCC_HSI_DISABLE();
 80016f6:	6823      	ldr	r3, [r4, #0]
 80016f8:	f423 7380 	bic.w	r3, r3, #256	; 0x100
 80016fc:	6023      	str	r3, [r4, #0]
        tickstart = HAL_GetTick();
 80016fe:	f7fe ff15 	bl	800052c <HAL_GetTick>
 8001702:	4606      	mov	r6, r0
        while(READ_BIT(RCC->CR, RCC_CR_HSIRDY) != RESET)
 8001704:	6823      	ldr	r3, [r4, #0]
 8001706:	0559      	lsls	r1, r3, #21
 8001708:	f57f af1b 	bpl.w	8001542 <HAL_RCC_OscConfig+0x8e>
          if((HAL_GetTick() - tickstart) > HSI_TIMEOUT_VALUE)
 800170c:	f7fe ff0e 	bl	800052c <HAL_GetTick>
 8001710:	1b80      	subs	r0, r0, r6
 8001712:	2802      	cmp	r0, #2
 8001714:	d9f6      	bls.n	8001704 <HAL_RCC_OscConfig+0x250>
 8001716:	e75e      	b.n	80015d6 <HAL_RCC_OscConfig+0x122>
    if(RCC_OscInitStruct->LSIState != RCC_LSI_OFF)
 8001718:	696b      	ldr	r3, [r5, #20]
 800171a:	4c15      	ldr	r4, [pc, #84]	; (8001770 <HAL_RCC_OscConfig+0x2bc>)
 800171c:	b19b      	cbz	r3, 8001746 <HAL_RCC_OscConfig+0x292>
      __HAL_RCC_LSI_ENABLE();
 800171e:	f8d4 3094 	ldr.w	r3, [r4, #148]	; 0x94
 8001722:	f043 0301 	orr.w	r3, r3, #1
 8001726:	f8c4 3094 	str.w	r3, [r4, #148]	; 0x94
      tickstart = HAL_GetTick();
 800172a:	f7fe feff 	bl	800052c <HAL_GetTick>
 800172e:	4606      	mov	r6, r0
      while(READ_BIT(RCC->CSR, RCC_CSR_LSIRDY) == RESET)
 8001730:	f8d4 3094 	ldr.w	r3, [r4, #148]	; 0x94
 8001734:	079f      	lsls	r7, r3, #30
 8001736:	f53f af08 	bmi.w	800154a <HAL_RCC_OscConfig+0x96>
        if((HAL_GetTick() - tickstart) > LSI_TIMEOUT_VALUE)
 800173a:	f7fe fef7 	bl	800052c <HAL_GetTick>
 800173e:	1b80      	subs	r0, r0, r6
 8001740:	2802      	cmp	r0, #2
 8001742:	d9f5      	bls.n	8001730 <HAL_RCC_OscConfig+0x27c>
 8001744:	e747      	b.n	80015d6 <HAL_RCC_OscConfig+0x122>
      __HAL_RCC_LSI_DISABLE();
 8001746:	f8d4 3094 	ldr.w	r3, [r4, #148]	; 0x94
 800174a:	f023 0301 	bic.w	r3, r3, #1
 800174e:	f8c4 3094 	str.w	r3, [r4, #148]	; 0x94
      tickstart = HAL_GetTick();
 8001752:	f7fe feeb 	bl	800052c <HAL_GetTick>
 8001756:	4606      	mov	r6, r0
      while(READ_BIT(RCC->CSR, RCC_CSR_LSIRDY) != RESET)
 8001758:	f8d4 3094 	ldr.w	r3, [r4, #148]	; 0x94
 800175c:	0798      	lsls	r0, r3, #30
 800175e:	f57f aef4 	bpl.w	800154a <HAL_RCC_OscConfig+0x96>
        if((HAL_GetTick() - tickstart) > LSI_TIMEOUT_VALUE)
 8001762:	f7fe fee3 	bl	800052c <HAL_GetTick>
 8001766:	1b80      	subs	r0, r0, r6
 8001768:	2802      	cmp	r0, #2
 800176a:	d9f5      	bls.n	8001758 <HAL_RCC_OscConfig+0x2a4>
 800176c:	e733      	b.n	80015d6 <HAL_RCC_OscConfig+0x122>
 800176e:	bf00      	nop
 8001770:	40021000 	.word	0x40021000
 8001774:	080046b7 	.word	0x080046b7
 8001778:	200001f8 	.word	0x200001f8
    if(HAL_IS_BIT_CLR(RCC->APB1ENR1, RCC_APB1ENR1_PWREN))
 800177c:	4c79      	ldr	r4, [pc, #484]	; (8001964 <HAL_RCC_OscConfig+0x4b0>)
 800177e:	6da3      	ldr	r3, [r4, #88]	; 0x58
 8001780:	00d9      	lsls	r1, r3, #3
 8001782:	d427      	bmi.n	80017d4 <HAL_RCC_OscConfig+0x320>
      __HAL_RCC_PWR_CLK_ENABLE();
 8001784:	6da3      	ldr	r3, [r4, #88]	; 0x58
 8001786:	f043 5380 	orr.w	r3, r3, #268435456	; 0x10000000
 800178a:	65a3      	str	r3, [r4, #88]	; 0x58
 800178c:	6da3      	ldr	r3, [r4, #88]	; 0x58
 800178e:	f003 5380 	and.w	r3, r3, #268435456	; 0x10000000
 8001792:	9301      	str	r3, [sp, #4]
 8001794:	9b01      	ldr	r3, [sp, #4]
      pwrclkchanged = SET;
 8001796:	2701      	movs	r7, #1
    if(HAL_IS_BIT_CLR(PWR->CR1, PWR_CR1_DBP))
 8001798:	4e73      	ldr	r6, [pc, #460]	; (8001968 <HAL_RCC_OscConfig+0x4b4>)
 800179a:	6833      	ldr	r3, [r6, #0]
 800179c:	05da      	lsls	r2, r3, #23
 800179e:	d51b      	bpl.n	80017d8 <HAL_RCC_OscConfig+0x324>
    __HAL_RCC_LSE_CONFIG(RCC_OscInitStruct->LSEState);
 80017a0:	68ab      	ldr	r3, [r5, #8]
 80017a2:	2b01      	cmp	r3, #1
 80017a4:	d129      	bne.n	80017fa <HAL_RCC_OscConfig+0x346>
 80017a6:	f8d4 3090 	ldr.w	r3, [r4, #144]	; 0x90
 80017aa:	f043 0301 	orr.w	r3, r3, #1
 80017ae:	f8c4 3090 	str.w	r3, [r4, #144]	; 0x90
      tickstart = HAL_GetTick();
 80017b2:	f7fe febb 	bl	800052c <HAL_GetTick>
        if((HAL_GetTick() - tickstart) > RCC_LSE_TIMEOUT_VALUE)
 80017b6:	f241 3888 	movw	r8, #5000	; 0x1388
      tickstart = HAL_GetTick();
 80017ba:	4606      	mov	r6, r0
      while(READ_BIT(RCC->BDCR, RCC_BDCR_LSERDY) == RESET)
 80017bc:	f8d4 3090 	ldr.w	r3, [r4, #144]	; 0x90
 80017c0:	0798      	lsls	r0, r3, #30
 80017c2:	d540      	bpl.n	8001846 <HAL_RCC_OscConfig+0x392>
    if(pwrclkchanged == SET)
 80017c4:	2f00      	cmp	r7, #0
 80017c6:	f43f aec4 	beq.w	8001552 <HAL_RCC_OscConfig+0x9e>
      __HAL_RCC_PWR_CLK_DISABLE();
 80017ca:	6da3      	ldr	r3, [r4, #88]	; 0x58
 80017cc:	f023 5380 	bic.w	r3, r3, #268435456	; 0x10000000
 80017d0:	65a3      	str	r3, [r4, #88]	; 0x58
 80017d2:	e6be      	b.n	8001552 <HAL_RCC_OscConfig+0x9e>
    FlagStatus       pwrclkchanged = RESET;
 80017d4:	2700      	movs	r7, #0
 80017d6:	e7df      	b.n	8001798 <HAL_RCC_OscConfig+0x2e4>
      SET_BIT(PWR->CR1, PWR_CR1_DBP);
 80017d8:	6833      	ldr	r3, [r6, #0]
 80017da:	f443 7380 	orr.w	r3, r3, #256	; 0x100
 80017de:	6033      	str	r3, [r6, #0]
      tickstart = HAL_GetTick();
 80017e0:	f7fe fea4 	bl	800052c <HAL_GetTick>
 80017e4:	4680      	mov	r8, r0
      while(HAL_IS_BIT_CLR(PWR->CR1, PWR_CR1_DBP))
 80017e6:	6833      	ldr	r3, [r6, #0]
 80017e8:	05db      	lsls	r3, r3, #23
 80017ea:	d4d9      	bmi.n	80017a0 <HAL_RCC_OscConfig+0x2ec>
        if((HAL_GetTick() - tickstart) > RCC_DBP_TIMEOUT_VALUE)
 80017ec:	f7fe fe9e 	bl	800052c <HAL_GetTick>
 80017f0:	eba0 0008 	sub.w	r0, r0, r8
 80017f4:	2802      	cmp	r0, #2
 80017f6:	d9f6      	bls.n	80017e6 <HAL_RCC_OscConfig+0x332>
 80017f8:	e6ed      	b.n	80015d6 <HAL_RCC_OscConfig+0x122>
    __HAL_RCC_LSE_CONFIG(RCC_OscInitStruct->LSEState);
 80017fa:	2b05      	cmp	r3, #5
 80017fc:	d106      	bne.n	800180c <HAL_RCC_OscConfig+0x358>
 80017fe:	f8d4 3090 	ldr.w	r3, [r4, #144]	; 0x90
 8001802:	f043 0304 	orr.w	r3, r3, #4
 8001806:	f8c4 3090 	str.w	r3, [r4, #144]	; 0x90
 800180a:	e7cc      	b.n	80017a6 <HAL_RCC_OscConfig+0x2f2>
 800180c:	f8d4 2090 	ldr.w	r2, [r4, #144]	; 0x90
 8001810:	f022 0201 	bic.w	r2, r2, #1
 8001814:	f8c4 2090 	str.w	r2, [r4, #144]	; 0x90
 8001818:	f8d4 2090 	ldr.w	r2, [r4, #144]	; 0x90
 800181c:	f022 0204 	bic.w	r2, r2, #4
 8001820:	f8c4 2090 	str.w	r2, [r4, #144]	; 0x90
    if(RCC_OscInitStruct->LSEState != RCC_LSE_OFF)
 8001824:	2b00      	cmp	r3, #0
 8001826:	d1c4      	bne.n	80017b2 <HAL_RCC_OscConfig+0x2fe>
      tickstart = HAL_GetTick();
 8001828:	f7fe fe80 	bl	800052c <HAL_GetTick>
        if((HAL_GetTick() - tickstart) > RCC_LSE_TIMEOUT_VALUE)
 800182c:	f241 3888 	movw	r8, #5000	; 0x1388
      tickstart = HAL_GetTick();
 8001830:	4606      	mov	r6, r0
      while(READ_BIT(RCC->BDCR, RCC_BDCR_LSERDY) != RESET)
 8001832:	f8d4 3090 	ldr.w	r3, [r4, #144]	; 0x90
 8001836:	0799      	lsls	r1, r3, #30
 8001838:	d5c4      	bpl.n	80017c4 <HAL_RCC_OscConfig+0x310>
        if((HAL_GetTick() - tickstart) > RCC_LSE_TIMEOUT_VALUE)
 800183a:	f7fe fe77 	bl	800052c <HAL_GetTick>
 800183e:	1b80      	subs	r0, r0, r6
 8001840:	4540      	cmp	r0, r8
 8001842:	d9f6      	bls.n	8001832 <HAL_RCC_OscConfig+0x37e>
 8001844:	e6c7      	b.n	80015d6 <HAL_RCC_OscConfig+0x122>
        if((HAL_GetTick() - tickstart) > RCC_LSE_TIMEOUT_VALUE)
 8001846:	f7fe fe71 	bl	800052c <HAL_GetTick>
 800184a:	1b80      	subs	r0, r0, r6
 800184c:	4540      	cmp	r0, r8
 800184e:	d9b5      	bls.n	80017bc <HAL_RCC_OscConfig+0x308>
 8001850:	e6c1      	b.n	80015d6 <HAL_RCC_OscConfig+0x122>
    if(RCC_OscInitStruct->HSI48State != RCC_HSI48_OFF)
 8001852:	6a6b      	ldr	r3, [r5, #36]	; 0x24
 8001854:	4c43      	ldr	r4, [pc, #268]	; (8001964 <HAL_RCC_OscConfig+0x4b0>)
 8001856:	b19b      	cbz	r3, 8001880 <HAL_RCC_OscConfig+0x3cc>
      __HAL_RCC_HSI48_ENABLE();
 8001858:	f8d4 3098 	ldr.w	r3, [r4, #152]	; 0x98
 800185c:	f043 0301 	orr.w	r3, r3, #1
 8001860:	f8c4 3098 	str.w	r3, [r4, #152]	; 0x98
      tickstart = HAL_GetTick();
 8001864:	f7fe fe62 	bl	800052c <HAL_GetTick>
 8001868:	4606      	mov	r6, r0
      while(READ_BIT(RCC->CRRCR, RCC_CRRCR_HSI48RDY) == RESET)
 800186a:	f8d4 3098 	ldr.w	r3, [r4, #152]	; 0x98
 800186e:	079b      	lsls	r3, r3, #30
 8001870:	f53f ae73 	bmi.w	800155a <HAL_RCC_OscConfig+0xa6>
        if((HAL_GetTick() - tickstart) > HSI48_TIMEOUT_VALUE)
 8001874:	f7fe fe5a 	bl	800052c <HAL_GetTick>
 8001878:	1b80      	subs	r0, r0, r6
 800187a:	2802      	cmp	r0, #2
 800187c:	d9f5      	bls.n	800186a <HAL_RCC_OscConfig+0x3b6>
 800187e:	e6aa      	b.n	80015d6 <HAL_RCC_OscConfig+0x122>
      __HAL_RCC_HSI48_DISABLE();
 8001880:	f8d4 3098 	ldr.w	r3, [r4, #152]	; 0x98
 8001884:	f023 0301 	bic.w	r3, r3, #1
 8001888:	f8c4 3098 	str.w	r3, [r4, #152]	; 0x98
      tickstart = HAL_GetTick();
 800188c:	f7fe fe4e 	bl	800052c <HAL_GetTick>
 8001890:	4606      	mov	r6, r0
      while(READ_BIT(RCC->CRRCR, RCC_CRRCR_HSI48RDY) != RESET)
 8001892:	f8d4 3098 	ldr.w	r3, [r4, #152]	; 0x98
 8001896:	079f      	lsls	r7, r3, #30
 8001898:	f57f ae5f 	bpl.w	800155a <HAL_RCC_OscConfig+0xa6>
        if((HAL_GetTick() - tickstart) > HSI48_TIMEOUT_VALUE)
 800189c:	f7fe fe46 	bl	800052c <HAL_GetTick>
 80018a0:	1b80      	subs	r0, r0, r6
 80018a2:	2802      	cmp	r0, #2
 80018a4:	d9f5      	bls.n	8001892 <HAL_RCC_OscConfig+0x3de>
 80018a6:	e696      	b.n	80015d6 <HAL_RCC_OscConfig+0x122>
    if(__HAL_RCC_GET_SYSCLK_SOURCE() != RCC_CFGR_SWS_PLL)
 80018a8:	4c2e      	ldr	r4, [pc, #184]	; (8001964 <HAL_RCC_OscConfig+0x4b0>)
 80018aa:	68a3      	ldr	r3, [r4, #8]
 80018ac:	f003 030c 	and.w	r3, r3, #12
 80018b0:	2b0c      	cmp	r3, #12
 80018b2:	f43f ae0f 	beq.w	80014d4 <HAL_RCC_OscConfig+0x20>
        __HAL_RCC_PLL_DISABLE();
 80018b6:	6823      	ldr	r3, [r4, #0]
      if(RCC_OscInitStruct->PLL.PLLState == RCC_PLL_ON)
 80018b8:	2a02      	cmp	r2, #2
        __HAL_RCC_PLL_DISABLE();
 80018ba:	f023 7380 	bic.w	r3, r3, #16777216	; 0x1000000
 80018be:	6023      	str	r3, [r4, #0]
      if(RCC_OscInitStruct->PLL.PLLState == RCC_PLL_ON)
 80018c0:	d136      	bne.n	8001930 <HAL_RCC_OscConfig+0x47c>
        tickstart = HAL_GetTick();
 80018c2:	f7fe fe33 	bl	800052c <HAL_GetTick>
 80018c6:	4606      	mov	r6, r0
        while(READ_BIT(RCC->CR, RCC_CR_PLLRDY) != RESET)
 80018c8:	6823      	ldr	r3, [r4, #0]
 80018ca:	0198      	lsls	r0, r3, #6
 80018cc:	d42a      	bmi.n	8001924 <HAL_RCC_OscConfig+0x470>
        __HAL_RCC_PLL_CONFIG(RCC_OscInitStruct->PLL.PLLSource,
 80018ce:	6bab      	ldr	r3, [r5, #56]	; 0x38
 80018d0:	6b6a      	ldr	r2, [r5, #52]	; 0x34
 80018d2:	06db      	lsls	r3, r3, #27
 80018d4:	ea43 2302 	orr.w	r3, r3, r2, lsl #8
 80018d8:	6aea      	ldr	r2, [r5, #44]	; 0x2c
 80018da:	4313      	orrs	r3, r2
 80018dc:	6b2a      	ldr	r2, [r5, #48]	; 0x30
 80018de:	3a01      	subs	r2, #1
 80018e0:	ea43 1302 	orr.w	r3, r3, r2, lsl #4
 80018e4:	6bea      	ldr	r2, [r5, #60]	; 0x3c
 80018e6:	0852      	lsrs	r2, r2, #1
 80018e8:	3a01      	subs	r2, #1
 80018ea:	ea43 5342 	orr.w	r3, r3, r2, lsl #21
 80018ee:	6c2a      	ldr	r2, [r5, #64]	; 0x40
 80018f0:	0852      	lsrs	r2, r2, #1
 80018f2:	3a01      	subs	r2, #1
 80018f4:	ea43 6342 	orr.w	r3, r3, r2, lsl #25
 80018f8:	60e3      	str	r3, [r4, #12]
        __HAL_RCC_PLL_ENABLE();
 80018fa:	6823      	ldr	r3, [r4, #0]
 80018fc:	f043 7380 	orr.w	r3, r3, #16777216	; 0x1000000
 8001900:	6023      	str	r3, [r4, #0]
         __HAL_RCC_PLLCLKOUT_ENABLE(RCC_PLL_SYSCLK);
 8001902:	68e3      	ldr	r3, [r4, #12]
 8001904:	f043 7380 	orr.w	r3, r3, #16777216	; 0x1000000
 8001908:	60e3      	str	r3, [r4, #12]
        tickstart = HAL_GetTick();
 800190a:	f7fe fe0f 	bl	800052c <HAL_GetTick>
 800190e:	4605      	mov	r5, r0
        while(READ_BIT(RCC->CR, RCC_CR_PLLRDY) == RESET)
 8001910:	6823      	ldr	r3, [r4, #0]
 8001912:	0199      	lsls	r1, r3, #6
 8001914:	f53f ae25 	bmi.w	8001562 <HAL_RCC_OscConfig+0xae>
          if((HAL_GetTick() - tickstart) > PLL_TIMEOUT_VALUE)
 8001918:	f7fe fe08 	bl	800052c <HAL_GetTick>
 800191c:	1b40      	subs	r0, r0, r5
 800191e:	2802      	cmp	r0, #2
 8001920:	d9f6      	bls.n	8001910 <HAL_RCC_OscConfig+0x45c>
 8001922:	e658      	b.n	80015d6 <HAL_RCC_OscConfig+0x122>
          if((HAL_GetTick() - tickstart) > PLL_TIMEOUT_VALUE)
 8001924:	f7fe fe02 	bl	800052c <HAL_GetTick>
 8001928:	1b80      	subs	r0, r0, r6
 800192a:	2802      	cmp	r0, #2
 800192c:	d9cc      	bls.n	80018c8 <HAL_RCC_OscConfig+0x414>
 800192e:	e652      	b.n	80015d6 <HAL_RCC_OscConfig+0x122>
        if((READ_BIT(RCC->CR, RCC_CR_PLLSAI1RDY) == RESET)
 8001930:	6823      	ldr	r3, [r4, #0]
 8001932:	011a      	lsls	r2, r3, #4
          MODIFY_REG(RCC->PLLCFGR, RCC_PLLCFGR_PLLSRC, RCC_PLLSOURCE_NONE);
 8001934:	bf5e      	ittt	pl
 8001936:	68e3      	ldrpl	r3, [r4, #12]
 8001938:	f023 0303 	bicpl.w	r3, r3, #3
 800193c:	60e3      	strpl	r3, [r4, #12]
        __HAL_RCC_PLLCLKOUT_DISABLE(RCC_PLL_SYSCLK | RCC_PLL_48M1CLK | RCC_PLL_SAI2CLK);
 800193e:	68e3      	ldr	r3, [r4, #12]
 8001940:	f023 7388 	bic.w	r3, r3, #17825792	; 0x1100000
 8001944:	f423 3380 	bic.w	r3, r3, #65536	; 0x10000
 8001948:	60e3      	str	r3, [r4, #12]
        tickstart = HAL_GetTick();
 800194a:	f7fe fdef 	bl	800052c <HAL_GetTick>
 800194e:	4605      	mov	r5, r0
        while(READ_BIT(RCC->CR, RCC_CR_PLLRDY) != RESET)
 8001950:	6823      	ldr	r3, [r4, #0]
 8001952:	019b      	lsls	r3, r3, #6
 8001954:	f57f ae05 	bpl.w	8001562 <HAL_RCC_OscConfig+0xae>
          if((HAL_GetTick() - tickstart) > PLL_TIMEOUT_VALUE)
 8001958:	f7fe fde8 	bl	800052c <HAL_GetTick>
 800195c:	1b40      	subs	r0, r0, r5
 800195e:	2802      	cmp	r0, #2
 8001960:	d9f6      	bls.n	8001950 <HAL_RCC_OscConfig+0x49c>
 8001962:	e638      	b.n	80015d6 <HAL_RCC_OscConfig+0x122>
 8001964:	40021000 	.word	0x40021000
 8001968:	40007000 	.word	0x40007000

0800196c <HAL_RCC_ClockConfig>:
  if(FLatency > READ_BIT(FLASH->ACR, FLASH_ACR_LATENCY))
 800196c:	4a56      	ldr	r2, [pc, #344]	; (8001ac8 <HAL_RCC_ClockConfig+0x15c>)
 800196e:	6813      	ldr	r3, [r2, #0]
 8001970:	f003 0307 	and.w	r3, r3, #7
 8001974:	428b      	cmp	r3, r1
{
 8001976:	e92d 41f0 	stmdb	sp!, {r4, r5, r6, r7, r8, lr}
 800197a:	4605      	mov	r5, r0
 800197c:	460e      	mov	r6, r1
  if(FLatency > READ_BIT(FLASH->ACR, FLASH_ACR_LATENCY))
 800197e:	d32b      	bcc.n	80019d8 <HAL_RCC_ClockConfig+0x6c>
  if(((RCC_ClkInitStruct->ClockType) & RCC_CLOCKTYPE_SYSCLK) == RCC_CLOCKTYPE_SYSCLK)
 8001980:	682b      	ldr	r3, [r5, #0]
 8001982:	07d9      	lsls	r1, r3, #31
 8001984:	d435      	bmi.n	80019f2 <HAL_RCC_ClockConfig+0x86>
  if(((RCC_ClkInitStruct->ClockType) & RCC_CLOCKTYPE_HCLK) == RCC_CLOCKTYPE_HCLK)
 8001986:	6829      	ldr	r1, [r5, #0]
 8001988:	078a      	lsls	r2, r1, #30
 800198a:	f100 8083 	bmi.w	8001a94 <HAL_RCC_ClockConfig+0x128>
  if(FLatency < READ_BIT(FLASH->ACR, FLASH_ACR_LATENCY))
 800198e:	4a4e      	ldr	r2, [pc, #312]	; (8001ac8 <HAL_RCC_ClockConfig+0x15c>)
 8001990:	6813      	ldr	r3, [r2, #0]
 8001992:	f003 0307 	and.w	r3, r3, #7
 8001996:	429e      	cmp	r6, r3
 8001998:	f0c0 8084 	bcc.w	8001aa4 <HAL_RCC_ClockConfig+0x138>
  if(((RCC_ClkInitStruct->ClockType) & RCC_CLOCKTYPE_PCLK1) == RCC_CLOCKTYPE_PCLK1)
 800199c:	f011 0f04 	tst.w	r1, #4
 80019a0:	4c4a      	ldr	r4, [pc, #296]	; (8001acc <HAL_RCC_ClockConfig+0x160>)
 80019a2:	f040 808a 	bne.w	8001aba <HAL_RCC_ClockConfig+0x14e>
  if(((RCC_ClkInitStruct->ClockType) & RCC_CLOCKTYPE_PCLK2) == RCC_CLOCKTYPE_PCLK2)
 80019a6:	070b      	lsls	r3, r1, #28
 80019a8:	d506      	bpl.n	80019b8 <HAL_RCC_ClockConfig+0x4c>
    MODIFY_REG(RCC->CFGR, RCC_CFGR_PPRE2, ((RCC_ClkInitStruct->APB2CLKDivider) << 3U));
 80019aa:	68a3      	ldr	r3, [r4, #8]
 80019ac:	692a      	ldr	r2, [r5, #16]
 80019ae:	f423 5360 	bic.w	r3, r3, #14336	; 0x3800
 80019b2:	ea43 03c2 	orr.w	r3, r3, r2, lsl #3
 80019b6:	60a3      	str	r3, [r4, #8]
  SystemCoreClock = HAL_RCC_GetSysClockFreq() >> AHBPrescTable[READ_BIT(RCC->CFGR, RCC_CFGR_HPRE) >> RCC_CFGR_HPRE_Pos];
 80019b8:	f7ff fd14 	bl	80013e4 <HAL_RCC_GetSysClockFreq>
 80019bc:	68a3      	ldr	r3, [r4, #8]
 80019be:	4a44      	ldr	r2, [pc, #272]	; (8001ad0 <HAL_RCC_ClockConfig+0x164>)
 80019c0:	f3c3 1303 	ubfx	r3, r3, #4, #4
 80019c4:	5cd3      	ldrb	r3, [r2, r3]
 80019c6:	40d8      	lsrs	r0, r3
 80019c8:	4b42      	ldr	r3, [pc, #264]	; (8001ad4 <HAL_RCC_ClockConfig+0x168>)
 80019ca:	6018      	str	r0, [r3, #0]
  HAL_InitTick (TICK_INT_PRIORITY);
 80019cc:	2000      	movs	r0, #0
 80019ce:	f7fe fd85 	bl	80004dc <HAL_InitTick>
  return HAL_OK;
 80019d2:	2000      	movs	r0, #0
}
 80019d4:	e8bd 81f0 	ldmia.w	sp!, {r4, r5, r6, r7, r8, pc}
    __HAL_FLASH_SET_LATENCY(FLatency);
 80019d8:	6813      	ldr	r3, [r2, #0]
 80019da:	f023 0307 	bic.w	r3, r3, #7
 80019de:	430b      	orrs	r3, r1
 80019e0:	6013      	str	r3, [r2, #0]
    if(READ_BIT(FLASH->ACR, FLASH_ACR_LATENCY) != FLatency)
 80019e2:	6813      	ldr	r3, [r2, #0]
 80019e4:	f003 0307 	and.w	r3, r3, #7
 80019e8:	4299      	cmp	r1, r3
 80019ea:	d0c9      	beq.n	8001980 <HAL_RCC_ClockConfig+0x14>
      return HAL_ERROR;
 80019ec:	2001      	movs	r0, #1
 80019ee:	e8bd 81f0 	ldmia.w	sp!, {r4, r5, r6, r7, r8, pc}
    if(RCC_ClkInitStruct->SYSCLKSource == RCC_SYSCLKSOURCE_PLLCLK)
 80019f2:	686a      	ldr	r2, [r5, #4]
 80019f4:	4c35      	ldr	r4, [pc, #212]	; (8001acc <HAL_RCC_ClockConfig+0x160>)
 80019f6:	2a03      	cmp	r2, #3
      if(READ_BIT(RCC->CR, RCC_CR_PLLRDY) == RESET)
 80019f8:	6823      	ldr	r3, [r4, #0]
    if(RCC_ClkInitStruct->SYSCLKSource == RCC_SYSCLKSOURCE_PLLCLK)
 80019fa:	d11c      	bne.n	8001a36 <HAL_RCC_ClockConfig+0xca>
      if(READ_BIT(RCC->CR, RCC_CR_PLLRDY) == RESET)
 80019fc:	f013 7f00 	tst.w	r3, #33554432	; 0x2000000
        if(READ_BIT(RCC->CR, RCC_CR_HSIRDY) == RESET)
 8001a00:	d0f4      	beq.n	80019ec <HAL_RCC_ClockConfig+0x80>
    MODIFY_REG(RCC->CFGR, RCC_CFGR_SW, RCC_ClkInitStruct->SYSCLKSource);
 8001a02:	68a3      	ldr	r3, [r4, #8]
 8001a04:	f023 0303 	bic.w	r3, r3, #3
 8001a08:	4313      	orrs	r3, r2
 8001a0a:	60a3      	str	r3, [r4, #8]
    tickstart = HAL_GetTick();
 8001a0c:	f7fe fd8e 	bl	800052c <HAL_GetTick>
    if(RCC_ClkInitStruct->SYSCLKSource == RCC_SYSCLKSOURCE_PLLCLK)
 8001a10:	686b      	ldr	r3, [r5, #4]
 8001a12:	2b03      	cmp	r3, #3
    tickstart = HAL_GetTick();
 8001a14:	4607      	mov	r7, r0
        if((HAL_GetTick() - tickstart) > CLOCKSWITCH_TIMEOUT_VALUE)
 8001a16:	f241 3888 	movw	r8, #5000	; 0x1388
    if(RCC_ClkInitStruct->SYSCLKSource == RCC_SYSCLKSOURCE_PLLCLK)
 8001a1a:	d118      	bne.n	8001a4e <HAL_RCC_ClockConfig+0xe2>
      while (__HAL_RCC_GET_SYSCLK_SOURCE() != RCC_CFGR_SWS_PLL)
 8001a1c:	68a3      	ldr	r3, [r4, #8]
 8001a1e:	f003 030c 	and.w	r3, r3, #12
 8001a22:	2b0c      	cmp	r3, #12
 8001a24:	d0af      	beq.n	8001986 <HAL_RCC_ClockConfig+0x1a>
        if((HAL_GetTick() - tickstart) > CLOCKSWITCH_TIMEOUT_VALUE)
 8001a26:	f7fe fd81 	bl	800052c <HAL_GetTick>
 8001a2a:	1bc0      	subs	r0, r0, r7
 8001a2c:	4540      	cmp	r0, r8
 8001a2e:	d9f5      	bls.n	8001a1c <HAL_RCC_ClockConfig+0xb0>
          return HAL_TIMEOUT;
 8001a30:	2003      	movs	r0, #3
 8001a32:	e8bd 81f0 	ldmia.w	sp!, {r4, r5, r6, r7, r8, pc}
      if(RCC_ClkInitStruct->SYSCLKSource == RCC_SYSCLKSOURCE_HSE)
 8001a36:	2a02      	cmp	r2, #2
 8001a38:	d102      	bne.n	8001a40 <HAL_RCC_ClockConfig+0xd4>
        if(READ_BIT(RCC->CR, RCC_CR_HSERDY) == RESET)
 8001a3a:	f413 3f00 	tst.w	r3, #131072	; 0x20000
 8001a3e:	e7df      	b.n	8001a00 <HAL_RCC_ClockConfig+0x94>
      else if(RCC_ClkInitStruct->SYSCLKSource == RCC_SYSCLKSOURCE_MSI)
 8001a40:	b912      	cbnz	r2, 8001a48 <HAL_RCC_ClockConfig+0xdc>
        if(READ_BIT(RCC->CR, RCC_CR_MSIRDY) == RESET)
 8001a42:	f013 0f02 	tst.w	r3, #2
 8001a46:	e7db      	b.n	8001a00 <HAL_RCC_ClockConfig+0x94>
        if(READ_BIT(RCC->CR, RCC_CR_HSIRDY) == RESET)
 8001a48:	f413 6f80 	tst.w	r3, #1024	; 0x400
 8001a4c:	e7d8      	b.n	8001a00 <HAL_RCC_ClockConfig+0x94>
      if(RCC_ClkInitStruct->SYSCLKSource == RCC_SYSCLKSOURCE_HSE)
 8001a4e:	2b02      	cmp	r3, #2
 8001a50:	d10a      	bne.n	8001a68 <HAL_RCC_ClockConfig+0xfc>
        while (__HAL_RCC_GET_SYSCLK_SOURCE() != RCC_CFGR_SWS_HSE)
 8001a52:	68a3      	ldr	r3, [r4, #8]
 8001a54:	f003 030c 	and.w	r3, r3, #12
 8001a58:	2b08      	cmp	r3, #8
 8001a5a:	d094      	beq.n	8001986 <HAL_RCC_ClockConfig+0x1a>
          if((HAL_GetTick() - tickstart) > CLOCKSWITCH_TIMEOUT_VALUE)
 8001a5c:	f7fe fd66 	bl	800052c <HAL_GetTick>
 8001a60:	1bc0      	subs	r0, r0, r7
 8001a62:	4540      	cmp	r0, r8
 8001a64:	d9f5      	bls.n	8001a52 <HAL_RCC_ClockConfig+0xe6>
 8001a66:	e7e3      	b.n	8001a30 <HAL_RCC_ClockConfig+0xc4>
      else if(RCC_ClkInitStruct->SYSCLKSource == RCC_SYSCLKSOURCE_MSI)
 8001a68:	b973      	cbnz	r3, 8001a88 <HAL_RCC_ClockConfig+0x11c>
        while (__HAL_RCC_GET_SYSCLK_SOURCE() != RCC_CFGR_SWS_MSI)
 8001a6a:	68a3      	ldr	r3, [r4, #8]
 8001a6c:	f013 0f0c 	tst.w	r3, #12
 8001a70:	d089      	beq.n	8001986 <HAL_RCC_ClockConfig+0x1a>
          if((HAL_GetTick() - tickstart) > CLOCKSWITCH_TIMEOUT_VALUE)
 8001a72:	f7fe fd5b 	bl	800052c <HAL_GetTick>
 8001a76:	1bc0      	subs	r0, r0, r7
 8001a78:	4540      	cmp	r0, r8
 8001a7a:	d9f6      	bls.n	8001a6a <HAL_RCC_ClockConfig+0xfe>
 8001a7c:	e7d8      	b.n	8001a30 <HAL_RCC_ClockConfig+0xc4>
          if((HAL_GetTick() - tickstart) > CLOCKSWITCH_TIMEOUT_VALUE)
 8001a7e:	f7fe fd55 	bl	800052c <HAL_GetTick>
 8001a82:	1bc0      	subs	r0, r0, r7
 8001a84:	4540      	cmp	r0, r8
 8001a86:	d8d3      	bhi.n	8001a30 <HAL_RCC_ClockConfig+0xc4>
        while(__HAL_RCC_GET_SYSCLK_SOURCE() != RCC_CFGR_SWS_HSI)
 8001a88:	68a3      	ldr	r3, [r4, #8]
 8001a8a:	f003 030c 	and.w	r3, r3, #12
 8001a8e:	2b04      	cmp	r3, #4
 8001a90:	d1f5      	bne.n	8001a7e <HAL_RCC_ClockConfig+0x112>
 8001a92:	e778      	b.n	8001986 <HAL_RCC_ClockConfig+0x1a>
    MODIFY_REG(RCC->CFGR, RCC_CFGR_HPRE, RCC_ClkInitStruct->AHBCLKDivider);
 8001a94:	4a0d      	ldr	r2, [pc, #52]	; (8001acc <HAL_RCC_ClockConfig+0x160>)
 8001a96:	68a8      	ldr	r0, [r5, #8]
 8001a98:	6893      	ldr	r3, [r2, #8]
 8001a9a:	f023 03f0 	bic.w	r3, r3, #240	; 0xf0
 8001a9e:	4303      	orrs	r3, r0
 8001aa0:	6093      	str	r3, [r2, #8]
 8001aa2:	e774      	b.n	800198e <HAL_RCC_ClockConfig+0x22>
    __HAL_FLASH_SET_LATENCY(FLatency);
 8001aa4:	6813      	ldr	r3, [r2, #0]
 8001aa6:	f023 0307 	bic.w	r3, r3, #7
 8001aaa:	4333      	orrs	r3, r6
 8001aac:	6013      	str	r3, [r2, #0]
    if(READ_BIT(FLASH->ACR, FLASH_ACR_LATENCY) != FLatency)
 8001aae:	6813      	ldr	r3, [r2, #0]
 8001ab0:	f003 0307 	and.w	r3, r3, #7
 8001ab4:	429e      	cmp	r6, r3
 8001ab6:	d199      	bne.n	80019ec <HAL_RCC_ClockConfig+0x80>
 8001ab8:	e770      	b.n	800199c <HAL_RCC_ClockConfig+0x30>
    MODIFY_REG(RCC->CFGR, RCC_CFGR_PPRE1, RCC_ClkInitStruct->APB1CLKDivider);
 8001aba:	68a3      	ldr	r3, [r4, #8]
 8001abc:	68ea      	ldr	r2, [r5, #12]
 8001abe:	f423 63e0 	bic.w	r3, r3, #1792	; 0x700
 8001ac2:	4313      	orrs	r3, r2
 8001ac4:	60a3      	str	r3, [r4, #8]
 8001ac6:	e76e      	b.n	80019a6 <HAL_RCC_ClockConfig+0x3a>
 8001ac8:	40022000 	.word	0x40022000
 8001acc:	40021000 	.word	0x40021000
 8001ad0:	080046b7 	.word	0x080046b7
 8001ad4:	200001f8 	.word	0x200001f8

08001ad8 <HAL_RCC_GetHCLKFreq>:
}
 8001ad8:	4b01      	ldr	r3, [pc, #4]	; (8001ae0 <HAL_RCC_GetHCLKFreq+0x8>)
 8001ada:	6818      	ldr	r0, [r3, #0]
 8001adc:	4770      	bx	lr
 8001ade:	bf00      	nop
 8001ae0:	200001f8 	.word	0x200001f8

08001ae4 <HAL_RCC_GetPCLK1Freq>:
  return (HAL_RCC_GetHCLKFreq() >> APBPrescTable[READ_BIT(RCC->CFGR, RCC_CFGR_PPRE1) >> RCC_CFGR_PPRE1_Pos]);
 8001ae4:	4b04      	ldr	r3, [pc, #16]	; (8001af8 <HAL_RCC_GetPCLK1Freq+0x14>)
 8001ae6:	4a05      	ldr	r2, [pc, #20]	; (8001afc <HAL_RCC_GetPCLK1Freq+0x18>)
 8001ae8:	689b      	ldr	r3, [r3, #8]
 8001aea:	f3c3 2302 	ubfx	r3, r3, #8, #3
 8001aee:	5cd3      	ldrb	r3, [r2, r3]
 8001af0:	4a03      	ldr	r2, [pc, #12]	; (8001b00 <HAL_RCC_GetPCLK1Freq+0x1c>)
 8001af2:	6810      	ldr	r0, [r2, #0]
}
 8001af4:	40d8      	lsrs	r0, r3
 8001af6:	4770      	bx	lr
 8001af8:	40021000 	.word	0x40021000
 8001afc:	080046c7 	.word	0x080046c7
 8001b00:	200001f8 	.word	0x200001f8

08001b04 <HAL_RCC_GetPCLK2Freq>:
  return (HAL_RCC_GetHCLKFreq()>> APBPrescTable[READ_BIT(RCC->CFGR, RCC_CFGR_PPRE2) >> RCC_CFGR_PPRE2_Pos]);
 8001b04:	4b04      	ldr	r3, [pc, #16]	; (8001b18 <HAL_RCC_GetPCLK2Freq+0x14>)
 8001b06:	4a05      	ldr	r2, [pc, #20]	; (8001b1c <HAL_RCC_GetPCLK2Freq+0x18>)
 8001b08:	689b      	ldr	r3, [r3, #8]
 8001b0a:	f3c3 23c2 	ubfx	r3, r3, #11, #3
 8001b0e:	5cd3      	ldrb	r3, [r2, r3]
 8001b10:	4a03      	ldr	r2, [pc, #12]	; (8001b20 <HAL_RCC_GetPCLK2Freq+0x1c>)
 8001b12:	6810      	ldr	r0, [r2, #0]
}
 8001b14:	40d8      	lsrs	r0, r3
 8001b16:	4770      	bx	lr
 8001b18:	40021000 	.word	0x40021000
 8001b1c:	080046c7 	.word	0x080046c7
 8001b20:	200001f8 	.word	0x200001f8

08001b24 <RCCEx_PLLSAI1_Config>:
  * @note   PLLSAI1 is temporary disable to apply new parameters
  *
  * @retval HAL status
  */
static HAL_StatusTypeDef RCCEx_PLLSAI1_Config(RCC_PLLSAI1InitTypeDef *PllSai1, uint32_t Divider)
{
 8001b24:	b5f8      	push	{r3, r4, r5, r6, r7, lr}
  assert_param(IS_RCC_PLLSAI1M_VALUE(PllSai1->PLLSAI1M));
  assert_param(IS_RCC_PLLSAI1N_VALUE(PllSai1->PLLSAI1N));
  assert_param(IS_RCC_PLLSAI1CLOCKOUT_VALUE(PllSai1->PLLSAI1ClockOut));

  /* Check that PLLSAI1 clock source and divider M can be applied */
  if(__HAL_RCC_GET_PLL_OSCSOURCE() != RCC_PLLSOURCE_NONE)
 8001b26:	4b44      	ldr	r3, [pc, #272]	; (8001c38 <RCCEx_PLLSAI1_Config+0x114>)
 8001b28:	68da      	ldr	r2, [r3, #12]
 8001b2a:	f012 0f03 	tst.w	r2, #3
{
 8001b2e:	4605      	mov	r5, r0
 8001b30:	460e      	mov	r6, r1
 8001b32:	461c      	mov	r4, r3
 8001b34:	6800      	ldr	r0, [r0, #0]
  if(__HAL_RCC_GET_PLL_OSCSOURCE() != RCC_PLLSOURCE_NONE)
 8001b36:	d039      	beq.n	8001bac <RCCEx_PLLSAI1_Config+0x88>
  {
    /* PLL clock source and divider M already set, check that no request for change  */
    if((__HAL_RCC_GET_PLL_OSCSOURCE() != PllSai1->PLLSAI1Source)
 8001b38:	68da      	ldr	r2, [r3, #12]
 8001b3a:	f002 0203 	and.w	r2, r2, #3
 8001b3e:	4282      	cmp	r2, r0
 8001b40:	d14b      	bne.n	8001bda <RCCEx_PLLSAI1_Config+0xb6>
       ||
 8001b42:	2a00      	cmp	r2, #0
 8001b44:	d049      	beq.n	8001bda <RCCEx_PLLSAI1_Config+0xb6>
       (PllSai1->PLLSAI1Source == RCC_PLLSOURCE_NONE)
#if !defined(RCC_PLLSAI1M_DIV_1_16_SUPPORT)
       ||
       (((READ_BIT(RCC->PLLCFGR, RCC_PLLCFGR_PLLM) >> RCC_PLLCFGR_PLLM_Pos) + 1U) != PllSai1->PLLSAI1M)
 8001b46:	68db      	ldr	r3, [r3, #12]
       ||
 8001b48:	686a      	ldr	r2, [r5, #4]
       (((READ_BIT(RCC->PLLCFGR, RCC_PLLCFGR_PLLM) >> RCC_PLLCFGR_PLLM_Pos) + 1U) != PllSai1->PLLSAI1M)
 8001b4a:	f3c3 1302 	ubfx	r3, r3, #4, #3
 8001b4e:	3301      	adds	r3, #1
       ||
 8001b50:	4293      	cmp	r3, r2
 8001b52:	d142      	bne.n	8001bda <RCCEx_PLLSAI1_Config+0xb6>
  }

  if(status == HAL_OK)
  {
    /* Disable the PLLSAI1 */
    __HAL_RCC_PLLSAI1_DISABLE();
 8001b54:	6823      	ldr	r3, [r4, #0]
 8001b56:	f023 6380 	bic.w	r3, r3, #67108864	; 0x4000000
 8001b5a:	6023      	str	r3, [r4, #0]

    /* Get Start Tick*/
    tickstart = HAL_GetTick();
 8001b5c:	f7fe fce6 	bl	800052c <HAL_GetTick>
 8001b60:	4607      	mov	r7, r0

    /* Wait till PLLSAI1 is ready to be updated */
    while(READ_BIT(RCC->CR, RCC_CR_PLLSAI1RDY) != RESET)
 8001b62:	6823      	ldr	r3, [r4, #0]
 8001b64:	011a      	lsls	r2, r3, #4
 8001b66:	d441      	bmi.n	8001bec <RCCEx_PLLSAI1_Config+0xc8>
 8001b68:	68af      	ldr	r7, [r5, #8]
      }
    }

    if(status == HAL_OK)
    {
      if(Divider == DIVIDER_P_UPDATE)
 8001b6a:	2e00      	cmp	r6, #0
 8001b6c:	d045      	beq.n	8001bfa <RCCEx_PLLSAI1_Config+0xd6>
                   ((PllSai1->PLLSAI1P >> 4U) << RCC_PLLSAI1CFGR_PLLSAI1P_Pos));
#endif /* RCC_PLLSAI1P_DIV_2_31_SUPPORT */

#endif /* RCC_PLLSAI1M_DIV_1_16_SUPPORT */
      }
      else if(Divider == DIVIDER_Q_UPDATE)
 8001b6e:	2e01      	cmp	r6, #1
 8001b70:	d14f      	bne.n	8001c12 <RCCEx_PLLSAI1_Config+0xee>
                   (PllSai1->PLLSAI1N << RCC_PLLSAI1CFGR_PLLSAI1N_Pos) |
                   (((PllSai1->PLLSAI1Q >> 1U) - 1U) << RCC_PLLSAI1CFGR_PLLSAI1Q_Pos) |
                   ((PllSai1->PLLSAI1M - 1U) << RCC_PLLSAI1CFGR_PLLSAI1M_Pos));
#else
        /* Configure the PLLSAI1 Division factor Q and Multiplication factor N*/
        MODIFY_REG(RCC->PLLSAI1CFGR,
 8001b72:	6922      	ldr	r2, [r4, #16]
 8001b74:	6928      	ldr	r0, [r5, #16]
 8001b76:	f422 02c0 	bic.w	r2, r2, #6291456	; 0x600000
 8001b7a:	0840      	lsrs	r0, r0, #1
 8001b7c:	f422 42fe 	bic.w	r2, r2, #32512	; 0x7f00
 8001b80:	3801      	subs	r0, #1
 8001b82:	ea42 2207 	orr.w	r2, r2, r7, lsl #8
 8001b86:	ea42 5240 	orr.w	r2, r2, r0, lsl #21
 8001b8a:	6122      	str	r2, [r4, #16]
                   (((PllSai1->PLLSAI1R >> 1U) - 1U) << RCC_PLLSAI1CFGR_PLLSAI1R_Pos));
#endif /* RCC_PLLSAI1M_DIV_1_16_SUPPORT */
      }

      /* Enable the PLLSAI1 again by setting PLLSAI1ON to 1*/
      __HAL_RCC_PLLSAI1_ENABLE();
 8001b8c:	6823      	ldr	r3, [r4, #0]
 8001b8e:	f043 6380 	orr.w	r3, r3, #67108864	; 0x4000000
 8001b92:	6023      	str	r3, [r4, #0]

      /* Get Start Tick*/
      tickstart = HAL_GetTick();
 8001b94:	f7fe fcca 	bl	800052c <HAL_GetTick>
 8001b98:	4606      	mov	r6, r0

      /* Wait till PLLSAI1 is ready */
      while(READ_BIT(RCC->CR, RCC_CR_PLLSAI1RDY) == RESET)
 8001b9a:	6823      	ldr	r3, [r4, #0]
 8001b9c:	011b      	lsls	r3, r3, #4
 8001b9e:	d545      	bpl.n	8001c2c <RCCEx_PLLSAI1_Config+0x108>
      }

      if(status == HAL_OK)
      {
        /* Configure the PLLSAI1 Clock output(s) */
        __HAL_RCC_PLLSAI1CLKOUT_ENABLE(PllSai1->PLLSAI1ClockOut);
 8001ba0:	6923      	ldr	r3, [r4, #16]
 8001ba2:	69aa      	ldr	r2, [r5, #24]
 8001ba4:	4313      	orrs	r3, r2
 8001ba6:	6123      	str	r3, [r4, #16]
 8001ba8:	2000      	movs	r0, #0
      }
    }
  }

  return status;
}
 8001baa:	bdf8      	pop	{r3, r4, r5, r6, r7, pc}
    switch(PllSai1->PLLSAI1Source)
 8001bac:	2802      	cmp	r0, #2
 8001bae:	d010      	beq.n	8001bd2 <RCCEx_PLLSAI1_Config+0xae>
 8001bb0:	2803      	cmp	r0, #3
 8001bb2:	d014      	beq.n	8001bde <RCCEx_PLLSAI1_Config+0xba>
 8001bb4:	2801      	cmp	r0, #1
 8001bb6:	d110      	bne.n	8001bda <RCCEx_PLLSAI1_Config+0xb6>
      if(HAL_IS_BIT_CLR(RCC->CR, RCC_CR_MSIRDY))
 8001bb8:	681b      	ldr	r3, [r3, #0]
 8001bba:	079f      	lsls	r7, r3, #30
 8001bbc:	d5f5      	bpl.n	8001baa <RCCEx_PLLSAI1_Config+0x86>
      MODIFY_REG(RCC->PLLCFGR, RCC_PLLCFGR_PLLSRC | RCC_PLLCFGR_PLLM, PllSai1->PLLSAI1Source | (PllSai1->PLLSAI1M - 1U) << RCC_PLLCFGR_PLLM_Pos);
 8001bbe:	68e3      	ldr	r3, [r4, #12]
 8001bc0:	686a      	ldr	r2, [r5, #4]
 8001bc2:	f023 0373 	bic.w	r3, r3, #115	; 0x73
 8001bc6:	3a01      	subs	r2, #1
 8001bc8:	4318      	orrs	r0, r3
 8001bca:	ea40 1002 	orr.w	r0, r0, r2, lsl #4
 8001bce:	60e0      	str	r0, [r4, #12]
 8001bd0:	e7c0      	b.n	8001b54 <RCCEx_PLLSAI1_Config+0x30>
      if(HAL_IS_BIT_CLR(RCC->CR, RCC_CR_HSIRDY))
 8001bd2:	681b      	ldr	r3, [r3, #0]
 8001bd4:	f413 6f80 	tst.w	r3, #1024	; 0x400
      if(HAL_IS_BIT_CLR(RCC->CR, RCC_CR_HSERDY) && HAL_IS_BIT_CLR(RCC->CR, RCC_CR_HSEBYP))
 8001bd8:	d1f1      	bne.n	8001bbe <RCCEx_PLLSAI1_Config+0x9a>
 8001bda:	2001      	movs	r0, #1
 8001bdc:	bdf8      	pop	{r3, r4, r5, r6, r7, pc}
 8001bde:	681a      	ldr	r2, [r3, #0]
 8001be0:	0391      	lsls	r1, r2, #14
 8001be2:	d4ec      	bmi.n	8001bbe <RCCEx_PLLSAI1_Config+0x9a>
 8001be4:	681b      	ldr	r3, [r3, #0]
 8001be6:	f413 2f80 	tst.w	r3, #262144	; 0x40000
 8001bea:	e7f5      	b.n	8001bd8 <RCCEx_PLLSAI1_Config+0xb4>
      if((HAL_GetTick() - tickstart) > PLLSAI1_TIMEOUT_VALUE)
 8001bec:	f7fe fc9e 	bl	800052c <HAL_GetTick>
 8001bf0:	1bc0      	subs	r0, r0, r7
 8001bf2:	2802      	cmp	r0, #2
 8001bf4:	d9b5      	bls.n	8001b62 <RCCEx_PLLSAI1_Config+0x3e>
        status = HAL_TIMEOUT;
 8001bf6:	2003      	movs	r0, #3
 8001bf8:	bdf8      	pop	{r3, r4, r5, r6, r7, pc}
        MODIFY_REG(RCC->PLLSAI1CFGR,
 8001bfa:	6922      	ldr	r2, [r4, #16]
 8001bfc:	68e9      	ldr	r1, [r5, #12]
 8001bfe:	f022 4278 	bic.w	r2, r2, #4160749568	; 0xf8000000
 8001c02:	06c9      	lsls	r1, r1, #27
 8001c04:	ea41 2307 	orr.w	r3, r1, r7, lsl #8
 8001c08:	f422 42fe 	bic.w	r2, r2, #32512	; 0x7f00
 8001c0c:	4313      	orrs	r3, r2
        MODIFY_REG(RCC->PLLSAI1CFGR,
 8001c0e:	6123      	str	r3, [r4, #16]
 8001c10:	e7bc      	b.n	8001b8c <RCCEx_PLLSAI1_Config+0x68>
 8001c12:	6923      	ldr	r3, [r4, #16]
 8001c14:	6968      	ldr	r0, [r5, #20]
 8001c16:	f023 63c0 	bic.w	r3, r3, #100663296	; 0x6000000
 8001c1a:	0840      	lsrs	r0, r0, #1
 8001c1c:	f423 43fe 	bic.w	r3, r3, #32512	; 0x7f00
 8001c20:	3801      	subs	r0, #1
 8001c22:	ea43 2307 	orr.w	r3, r3, r7, lsl #8
 8001c26:	ea43 6340 	orr.w	r3, r3, r0, lsl #25
 8001c2a:	e7f0      	b.n	8001c0e <RCCEx_PLLSAI1_Config+0xea>
        if((HAL_GetTick() - tickstart) > PLLSAI1_TIMEOUT_VALUE)
 8001c2c:	f7fe fc7e 	bl	800052c <HAL_GetTick>
 8001c30:	1b80      	subs	r0, r0, r6
 8001c32:	2802      	cmp	r0, #2
 8001c34:	d9b1      	bls.n	8001b9a <RCCEx_PLLSAI1_Config+0x76>
 8001c36:	e7de      	b.n	8001bf6 <RCCEx_PLLSAI1_Config+0xd2>
 8001c38:	40021000 	.word	0x40021000

08001c3c <HAL_RCCEx_PeriphCLKConfig>:
{
 8001c3c:	e92d 43f7 	stmdb	sp!, {r0, r1, r2, r4, r5, r6, r7, r8, r9, lr}
  if((((PeriphClkInit->PeriphClockSelection) & RCC_PERIPHCLK_SAI1) == RCC_PERIPHCLK_SAI1))
 8001c40:	6805      	ldr	r5, [r0, #0]
 8001c42:	f415 6500 	ands.w	r5, r5, #2048	; 0x800
{
 8001c46:	4604      	mov	r4, r0
  if((((PeriphClkInit->PeriphClockSelection) & RCC_PERIPHCLK_SAI1) == RCC_PERIPHCLK_SAI1))
 8001c48:	d00e      	beq.n	8001c68 <HAL_RCCEx_PeriphCLKConfig+0x2c>
    switch(PeriphClkInit->Sai1ClockSelection)
 8001c4a:	6bc1      	ldr	r1, [r0, #60]	; 0x3c
 8001c4c:	f5b1 0f00 	cmp.w	r1, #8388608	; 0x800000
 8001c50:	d05b      	beq.n	8001d0a <HAL_RCCEx_PeriphCLKConfig+0xce>
 8001c52:	f5b1 0f40 	cmp.w	r1, #12582912	; 0xc00000
 8001c56:	d05d      	beq.n	8001d14 <HAL_RCCEx_PeriphCLKConfig+0xd8>
 8001c58:	2900      	cmp	r1, #0
 8001c5a:	d166      	bne.n	8001d2a <HAL_RCCEx_PeriphCLKConfig+0xee>
      ret = RCCEx_PLLSAI1_Config(&(PeriphClkInit->PLLSAI1), DIVIDER_P_UPDATE);
 8001c5c:	3004      	adds	r0, #4
 8001c5e:	f7ff ff61 	bl	8001b24 <RCCEx_PLLSAI1_Config>
    if(ret == HAL_OK)
 8001c62:	4605      	mov	r5, r0
 8001c64:	2800      	cmp	r0, #0
 8001c66:	d055      	beq.n	8001d14 <HAL_RCCEx_PeriphCLKConfig+0xd8>
  if((PeriphClkInit->PeriphClockSelection & RCC_PERIPHCLK_RTC) == RCC_PERIPHCLK_RTC)
 8001c68:	6823      	ldr	r3, [r4, #0]
 8001c6a:	039e      	lsls	r6, r3, #14
 8001c6c:	d56d      	bpl.n	8001d4a <HAL_RCCEx_PeriphCLKConfig+0x10e>
    if(__HAL_RCC_PWR_IS_CLK_DISABLED())
 8001c6e:	4e92      	ldr	r6, [pc, #584]	; (8001eb8 <HAL_RCCEx_PeriphCLKConfig+0x27c>)
 8001c70:	6db3      	ldr	r3, [r6, #88]	; 0x58
 8001c72:	00d8      	lsls	r0, r3, #3
 8001c74:	d45b      	bmi.n	8001d2e <HAL_RCCEx_PeriphCLKConfig+0xf2>
      __HAL_RCC_PWR_CLK_ENABLE();
 8001c76:	6db3      	ldr	r3, [r6, #88]	; 0x58
 8001c78:	f043 5380 	orr.w	r3, r3, #268435456	; 0x10000000
 8001c7c:	65b3      	str	r3, [r6, #88]	; 0x58
 8001c7e:	6db3      	ldr	r3, [r6, #88]	; 0x58
 8001c80:	f003 5380 	and.w	r3, r3, #268435456	; 0x10000000
 8001c84:	9301      	str	r3, [sp, #4]
 8001c86:	9b01      	ldr	r3, [sp, #4]
      pwrclkchanged = SET;
 8001c88:	2701      	movs	r7, #1
    SET_BIT(PWR->CR1, PWR_CR1_DBP);
 8001c8a:	f8df 8230 	ldr.w	r8, [pc, #560]	; 8001ebc <HAL_RCCEx_PeriphCLKConfig+0x280>
 8001c8e:	f8d8 3000 	ldr.w	r3, [r8]
 8001c92:	f443 7380 	orr.w	r3, r3, #256	; 0x100
 8001c96:	f8c8 3000 	str.w	r3, [r8]
    tickstart = HAL_GetTick();
 8001c9a:	f7fe fc47 	bl	800052c <HAL_GetTick>
 8001c9e:	4681      	mov	r9, r0
    while(READ_BIT(PWR->CR1, PWR_CR1_DBP) == RESET)
 8001ca0:	f8d8 3000 	ldr.w	r3, [r8]
 8001ca4:	05d9      	lsls	r1, r3, #23
 8001ca6:	d544      	bpl.n	8001d32 <HAL_RCCEx_PeriphCLKConfig+0xf6>
    if(ret == HAL_OK)
 8001ca8:	2d00      	cmp	r5, #0
 8001caa:	d149      	bne.n	8001d40 <HAL_RCCEx_PeriphCLKConfig+0x104>
      tmpregister = READ_BIT(RCC->BDCR, RCC_BDCR_RTCSEL);
 8001cac:	f8d6 3090 	ldr.w	r3, [r6, #144]	; 0x90
      if((tmpregister != RCC_RTCCLKSOURCE_NONE) && (tmpregister != PeriphClkInit->RTCClockSelection))
 8001cb0:	f413 7340 	ands.w	r3, r3, #768	; 0x300
 8001cb4:	d014      	beq.n	8001ce0 <HAL_RCCEx_PeriphCLKConfig+0xa4>
 8001cb6:	6d22      	ldr	r2, [r4, #80]	; 0x50
 8001cb8:	4293      	cmp	r3, r2
 8001cba:	d011      	beq.n	8001ce0 <HAL_RCCEx_PeriphCLKConfig+0xa4>
        tmpregister = READ_BIT(RCC->BDCR, ~(RCC_BDCR_RTCSEL));
 8001cbc:	f8d6 3090 	ldr.w	r3, [r6, #144]	; 0x90
        __HAL_RCC_BACKUPRESET_FORCE();
 8001cc0:	f8d6 2090 	ldr.w	r2, [r6, #144]	; 0x90
 8001cc4:	f442 3280 	orr.w	r2, r2, #65536	; 0x10000
 8001cc8:	f8c6 2090 	str.w	r2, [r6, #144]	; 0x90
        __HAL_RCC_BACKUPRESET_RELEASE();
 8001ccc:	f8d6 2090 	ldr.w	r2, [r6, #144]	; 0x90
        tmpregister = READ_BIT(RCC->BDCR, ~(RCC_BDCR_RTCSEL));
 8001cd0:	f423 7340 	bic.w	r3, r3, #768	; 0x300
        __HAL_RCC_BACKUPRESET_RELEASE();
 8001cd4:	f422 3280 	bic.w	r2, r2, #65536	; 0x10000
 8001cd8:	f8c6 2090 	str.w	r2, [r6, #144]	; 0x90
        RCC->BDCR = tmpregister;
 8001cdc:	f8c6 3090 	str.w	r3, [r6, #144]	; 0x90
      if (HAL_IS_BIT_SET(tmpregister, RCC_BDCR_LSEON))
 8001ce0:	07da      	lsls	r2, r3, #31
 8001ce2:	d509      	bpl.n	8001cf8 <HAL_RCCEx_PeriphCLKConfig+0xbc>
        tickstart = HAL_GetTick();
 8001ce4:	f7fe fc22 	bl	800052c <HAL_GetTick>
          if((HAL_GetTick() - tickstart) > RCC_LSE_TIMEOUT_VALUE)
 8001ce8:	f241 3988 	movw	r9, #5000	; 0x1388
        tickstart = HAL_GetTick();
 8001cec:	4680      	mov	r8, r0
        while(READ_BIT(RCC->BDCR, RCC_BDCR_LSERDY) == RESET)
 8001cee:	f8d6 3090 	ldr.w	r3, [r6, #144]	; 0x90
 8001cf2:	079b      	lsls	r3, r3, #30
 8001cf4:	f140 80c2 	bpl.w	8001e7c <HAL_RCCEx_PeriphCLKConfig+0x240>
        __HAL_RCC_RTC_CONFIG(PeriphClkInit->RTCClockSelection);
 8001cf8:	f8d6 3090 	ldr.w	r3, [r6, #144]	; 0x90
 8001cfc:	6d22      	ldr	r2, [r4, #80]	; 0x50
 8001cfe:	f423 7340 	bic.w	r3, r3, #768	; 0x300
 8001d02:	4313      	orrs	r3, r2
 8001d04:	f8c6 3090 	str.w	r3, [r6, #144]	; 0x90
 8001d08:	e01a      	b.n	8001d40 <HAL_RCCEx_PeriphCLKConfig+0x104>
      __HAL_RCC_PLLCLKOUT_ENABLE(RCC_PLL_SAI2CLK);
 8001d0a:	4a6b      	ldr	r2, [pc, #428]	; (8001eb8 <HAL_RCCEx_PeriphCLKConfig+0x27c>)
 8001d0c:	68d3      	ldr	r3, [r2, #12]
 8001d0e:	f443 3380 	orr.w	r3, r3, #65536	; 0x10000
 8001d12:	60d3      	str	r3, [r2, #12]
      __HAL_RCC_SAI1_CONFIG(PeriphClkInit->Sai1ClockSelection);
 8001d14:	4a68      	ldr	r2, [pc, #416]	; (8001eb8 <HAL_RCCEx_PeriphCLKConfig+0x27c>)
 8001d16:	6be1      	ldr	r1, [r4, #60]	; 0x3c
 8001d18:	f8d2 3088 	ldr.w	r3, [r2, #136]	; 0x88
 8001d1c:	f423 0340 	bic.w	r3, r3, #12582912	; 0xc00000
 8001d20:	430b      	orrs	r3, r1
 8001d22:	f8c2 3088 	str.w	r3, [r2, #136]	; 0x88
 8001d26:	2500      	movs	r5, #0
 8001d28:	e79e      	b.n	8001c68 <HAL_RCCEx_PeriphCLKConfig+0x2c>
      ret = HAL_ERROR;
 8001d2a:	2501      	movs	r5, #1
 8001d2c:	e79c      	b.n	8001c68 <HAL_RCCEx_PeriphCLKConfig+0x2c>
    FlagStatus       pwrclkchanged = RESET;
 8001d2e:	2700      	movs	r7, #0
 8001d30:	e7ab      	b.n	8001c8a <HAL_RCCEx_PeriphCLKConfig+0x4e>
      if((HAL_GetTick() - tickstart) > RCC_DBP_TIMEOUT_VALUE)
 8001d32:	f7fe fbfb 	bl	800052c <HAL_GetTick>
 8001d36:	eba0 0009 	sub.w	r0, r0, r9
 8001d3a:	2802      	cmp	r0, #2
 8001d3c:	d9b0      	bls.n	8001ca0 <HAL_RCCEx_PeriphCLKConfig+0x64>
        ret = HAL_TIMEOUT;
 8001d3e:	2503      	movs	r5, #3
    if(pwrclkchanged == SET)
 8001d40:	b11f      	cbz	r7, 8001d4a <HAL_RCCEx_PeriphCLKConfig+0x10e>
      __HAL_RCC_PWR_CLK_DISABLE();
 8001d42:	6db3      	ldr	r3, [r6, #88]	; 0x58
 8001d44:	f023 5380 	bic.w	r3, r3, #268435456	; 0x10000000
 8001d48:	65b3      	str	r3, [r6, #88]	; 0x58
  if(((PeriphClkInit->PeriphClockSelection) & RCC_PERIPHCLK_USART1) == RCC_PERIPHCLK_USART1)
 8001d4a:	6823      	ldr	r3, [r4, #0]
 8001d4c:	07df      	lsls	r7, r3, #31
 8001d4e:	d508      	bpl.n	8001d62 <HAL_RCCEx_PeriphCLKConfig+0x126>
    __HAL_RCC_USART1_CONFIG(PeriphClkInit->Usart1ClockSelection);
 8001d50:	4959      	ldr	r1, [pc, #356]	; (8001eb8 <HAL_RCCEx_PeriphCLKConfig+0x27c>)
 8001d52:	6a20      	ldr	r0, [r4, #32]
 8001d54:	f8d1 2088 	ldr.w	r2, [r1, #136]	; 0x88
 8001d58:	f022 0203 	bic.w	r2, r2, #3
 8001d5c:	4302      	orrs	r2, r0
 8001d5e:	f8c1 2088 	str.w	r2, [r1, #136]	; 0x88
  if(((PeriphClkInit->PeriphClockSelection) & RCC_PERIPHCLK_USART2) == RCC_PERIPHCLK_USART2)
 8001d62:	079e      	lsls	r6, r3, #30
 8001d64:	d508      	bpl.n	8001d78 <HAL_RCCEx_PeriphCLKConfig+0x13c>
    __HAL_RCC_USART2_CONFIG(PeriphClkInit->Usart2ClockSelection);
 8001d66:	4954      	ldr	r1, [pc, #336]	; (8001eb8 <HAL_RCCEx_PeriphCLKConfig+0x27c>)
 8001d68:	6a60      	ldr	r0, [r4, #36]	; 0x24
 8001d6a:	f8d1 2088 	ldr.w	r2, [r1, #136]	; 0x88
 8001d6e:	f022 020c 	bic.w	r2, r2, #12
 8001d72:	4302      	orrs	r2, r0
 8001d74:	f8c1 2088 	str.w	r2, [r1, #136]	; 0x88
  if(((PeriphClkInit->PeriphClockSelection) & RCC_PERIPHCLK_LPUART1) == RCC_PERIPHCLK_LPUART1)
 8001d78:	0698      	lsls	r0, r3, #26
 8001d7a:	d508      	bpl.n	8001d8e <HAL_RCCEx_PeriphCLKConfig+0x152>
    __HAL_RCC_LPUART1_CONFIG(PeriphClkInit->Lpuart1ClockSelection);
 8001d7c:	494e      	ldr	r1, [pc, #312]	; (8001eb8 <HAL_RCCEx_PeriphCLKConfig+0x27c>)
 8001d7e:	6aa0      	ldr	r0, [r4, #40]	; 0x28
 8001d80:	f8d1 2088 	ldr.w	r2, [r1, #136]	; 0x88
 8001d84:	f422 6240 	bic.w	r2, r2, #3072	; 0xc00
 8001d88:	4302      	orrs	r2, r0
 8001d8a:	f8c1 2088 	str.w	r2, [r1, #136]	; 0x88
  if(((PeriphClkInit->PeriphClockSelection) & RCC_PERIPHCLK_LPTIM1) == (RCC_PERIPHCLK_LPTIM1))
 8001d8e:	0599      	lsls	r1, r3, #22
 8001d90:	d508      	bpl.n	8001da4 <HAL_RCCEx_PeriphCLKConfig+0x168>
    __HAL_RCC_LPTIM1_CONFIG(PeriphClkInit->Lptim1ClockSelection);
 8001d92:	4949      	ldr	r1, [pc, #292]	; (8001eb8 <HAL_RCCEx_PeriphCLKConfig+0x27c>)
 8001d94:	6b60      	ldr	r0, [r4, #52]	; 0x34
 8001d96:	f8d1 2088 	ldr.w	r2, [r1, #136]	; 0x88
 8001d9a:	f422 2240 	bic.w	r2, r2, #786432	; 0xc0000
 8001d9e:	4302      	orrs	r2, r0
 8001da0:	f8c1 2088 	str.w	r2, [r1, #136]	; 0x88
  if(((PeriphClkInit->PeriphClockSelection) & RCC_PERIPHCLK_LPTIM2) == (RCC_PERIPHCLK_LPTIM2))
 8001da4:	055a      	lsls	r2, r3, #21
 8001da6:	d508      	bpl.n	8001dba <HAL_RCCEx_PeriphCLKConfig+0x17e>
    __HAL_RCC_LPTIM2_CONFIG(PeriphClkInit->Lptim2ClockSelection);
 8001da8:	4943      	ldr	r1, [pc, #268]	; (8001eb8 <HAL_RCCEx_PeriphCLKConfig+0x27c>)
 8001daa:	6ba0      	ldr	r0, [r4, #56]	; 0x38
 8001dac:	f8d1 2088 	ldr.w	r2, [r1, #136]	; 0x88
 8001db0:	f422 1240 	bic.w	r2, r2, #3145728	; 0x300000
 8001db4:	4302      	orrs	r2, r0
 8001db6:	f8c1 2088 	str.w	r2, [r1, #136]	; 0x88
  if(((PeriphClkInit->PeriphClockSelection) & RCC_PERIPHCLK_I2C1) == RCC_PERIPHCLK_I2C1)
 8001dba:	065f      	lsls	r7, r3, #25
 8001dbc:	d508      	bpl.n	8001dd0 <HAL_RCCEx_PeriphCLKConfig+0x194>
    __HAL_RCC_I2C1_CONFIG(PeriphClkInit->I2c1ClockSelection);
 8001dbe:	493e      	ldr	r1, [pc, #248]	; (8001eb8 <HAL_RCCEx_PeriphCLKConfig+0x27c>)
 8001dc0:	6ae0      	ldr	r0, [r4, #44]	; 0x2c
 8001dc2:	f8d1 2088 	ldr.w	r2, [r1, #136]	; 0x88
 8001dc6:	f422 5240 	bic.w	r2, r2, #12288	; 0x3000
 8001dca:	4302      	orrs	r2, r0
 8001dcc:	f8c1 2088 	str.w	r2, [r1, #136]	; 0x88
  if(((PeriphClkInit->PeriphClockSelection) & RCC_PERIPHCLK_I2C3) == RCC_PERIPHCLK_I2C3)
 8001dd0:	05de      	lsls	r6, r3, #23
 8001dd2:	d508      	bpl.n	8001de6 <HAL_RCCEx_PeriphCLKConfig+0x1aa>
    __HAL_RCC_I2C3_CONFIG(PeriphClkInit->I2c3ClockSelection);
 8001dd4:	4938      	ldr	r1, [pc, #224]	; (8001eb8 <HAL_RCCEx_PeriphCLKConfig+0x27c>)
 8001dd6:	6b20      	ldr	r0, [r4, #48]	; 0x30
 8001dd8:	f8d1 2088 	ldr.w	r2, [r1, #136]	; 0x88
 8001ddc:	f422 3240 	bic.w	r2, r2, #196608	; 0x30000
 8001de0:	4302      	orrs	r2, r0
 8001de2:	f8c1 2088 	str.w	r2, [r1, #136]	; 0x88
  if(((PeriphClkInit->PeriphClockSelection) & RCC_PERIPHCLK_USB) == (RCC_PERIPHCLK_USB))
 8001de6:	0498      	lsls	r0, r3, #18
 8001de8:	d50f      	bpl.n	8001e0a <HAL_RCCEx_PeriphCLKConfig+0x1ce>
    __HAL_RCC_USB_CONFIG(PeriphClkInit->UsbClockSelection);
 8001dea:	4a33      	ldr	r2, [pc, #204]	; (8001eb8 <HAL_RCCEx_PeriphCLKConfig+0x27c>)
 8001dec:	6c21      	ldr	r1, [r4, #64]	; 0x40
 8001dee:	f8d2 3088 	ldr.w	r3, [r2, #136]	; 0x88
 8001df2:	f023 6340 	bic.w	r3, r3, #201326592	; 0xc000000
 8001df6:	430b      	orrs	r3, r1
    if(PeriphClkInit->UsbClockSelection == RCC_USBCLKSOURCE_PLL)
 8001df8:	f1b1 6f00 	cmp.w	r1, #134217728	; 0x8000000
    __HAL_RCC_USB_CONFIG(PeriphClkInit->UsbClockSelection);
 8001dfc:	f8c2 3088 	str.w	r3, [r2, #136]	; 0x88
    if(PeriphClkInit->UsbClockSelection == RCC_USBCLKSOURCE_PLL)
 8001e00:	d144      	bne.n	8001e8c <HAL_RCCEx_PeriphCLKConfig+0x250>
      __HAL_RCC_PLLCLKOUT_ENABLE(RCC_PLL_48M1CLK);
 8001e02:	68d3      	ldr	r3, [r2, #12]
 8001e04:	f443 1380 	orr.w	r3, r3, #1048576	; 0x100000
 8001e08:	60d3      	str	r3, [r2, #12]
  if(((PeriphClkInit->PeriphClockSelection) & RCC_PERIPHCLK_RNG) == (RCC_PERIPHCLK_RNG))
 8001e0a:	6823      	ldr	r3, [r4, #0]
 8001e0c:	0359      	lsls	r1, r3, #13
 8001e0e:	d50f      	bpl.n	8001e30 <HAL_RCCEx_PeriphCLKConfig+0x1f4>
    __HAL_RCC_RNG_CONFIG(PeriphClkInit->RngClockSelection);
 8001e10:	4a29      	ldr	r2, [pc, #164]	; (8001eb8 <HAL_RCCEx_PeriphCLKConfig+0x27c>)
 8001e12:	6c61      	ldr	r1, [r4, #68]	; 0x44
 8001e14:	f8d2 3088 	ldr.w	r3, [r2, #136]	; 0x88
 8001e18:	f023 6340 	bic.w	r3, r3, #201326592	; 0xc000000
 8001e1c:	430b      	orrs	r3, r1
    if(PeriphClkInit->RngClockSelection == RCC_RNGCLKSOURCE_PLL)
 8001e1e:	f1b1 6f00 	cmp.w	r1, #134217728	; 0x8000000
    __HAL_RCC_RNG_CONFIG(PeriphClkInit->RngClockSelection);
 8001e22:	f8c2 3088 	str.w	r3, [r2, #136]	; 0x88
    if(PeriphClkInit->RngClockSelection == RCC_RNGCLKSOURCE_PLL)
 8001e26:	d13c      	bne.n	8001ea2 <HAL_RCCEx_PeriphCLKConfig+0x266>
      __HAL_RCC_PLLCLKOUT_ENABLE(RCC_PLL_48M1CLK);
 8001e28:	68d3      	ldr	r3, [r2, #12]
 8001e2a:	f443 1380 	orr.w	r3, r3, #1048576	; 0x100000
 8001e2e:	60d3      	str	r3, [r2, #12]
  if(((PeriphClkInit->PeriphClockSelection) & RCC_PERIPHCLK_ADC) == RCC_PERIPHCLK_ADC)
 8001e30:	6823      	ldr	r3, [r4, #0]
 8001e32:	045a      	lsls	r2, r3, #17
 8001e34:	d512      	bpl.n	8001e5c <HAL_RCCEx_PeriphCLKConfig+0x220>
    __HAL_RCC_ADC_CONFIG(PeriphClkInit->AdcClockSelection);
 8001e36:	4920      	ldr	r1, [pc, #128]	; (8001eb8 <HAL_RCCEx_PeriphCLKConfig+0x27c>)
 8001e38:	6ca2      	ldr	r2, [r4, #72]	; 0x48
 8001e3a:	f8d1 3088 	ldr.w	r3, [r1, #136]	; 0x88
 8001e3e:	f023 5340 	bic.w	r3, r3, #805306368	; 0x30000000
 8001e42:	4313      	orrs	r3, r2
    if(PeriphClkInit->AdcClockSelection == RCC_ADCCLKSOURCE_PLLSAI1)
 8001e44:	f1b2 5f80 	cmp.w	r2, #268435456	; 0x10000000
    __HAL_RCC_ADC_CONFIG(PeriphClkInit->AdcClockSelection);
 8001e48:	f8c1 3088 	str.w	r3, [r1, #136]	; 0x88
    if(PeriphClkInit->AdcClockSelection == RCC_ADCCLKSOURCE_PLLSAI1)
 8001e4c:	d106      	bne.n	8001e5c <HAL_RCCEx_PeriphCLKConfig+0x220>
      ret = RCCEx_PLLSAI1_Config(&(PeriphClkInit->PLLSAI1), DIVIDER_R_UPDATE);
 8001e4e:	2102      	movs	r1, #2
 8001e50:	1d20      	adds	r0, r4, #4
 8001e52:	f7ff fe67 	bl	8001b24 <RCCEx_PLLSAI1_Config>
      if(ret != HAL_OK)
 8001e56:	2800      	cmp	r0, #0
 8001e58:	bf18      	it	ne
 8001e5a:	4605      	movne	r5, r0
  if(((PeriphClkInit->PeriphClockSelection) & RCC_PERIPHCLK_SWPMI1) == RCC_PERIPHCLK_SWPMI1)
 8001e5c:	6823      	ldr	r3, [r4, #0]
 8001e5e:	041b      	lsls	r3, r3, #16
 8001e60:	d508      	bpl.n	8001e74 <HAL_RCCEx_PeriphCLKConfig+0x238>
    __HAL_RCC_SWPMI1_CONFIG(PeriphClkInit->Swpmi1ClockSelection);
 8001e62:	4a15      	ldr	r2, [pc, #84]	; (8001eb8 <HAL_RCCEx_PeriphCLKConfig+0x27c>)
 8001e64:	6ce1      	ldr	r1, [r4, #76]	; 0x4c
 8001e66:	f8d2 3088 	ldr.w	r3, [r2, #136]	; 0x88
 8001e6a:	f023 4380 	bic.w	r3, r3, #1073741824	; 0x40000000
 8001e6e:	430b      	orrs	r3, r1
 8001e70:	f8c2 3088 	str.w	r3, [r2, #136]	; 0x88
}
 8001e74:	4628      	mov	r0, r5
 8001e76:	b003      	add	sp, #12
 8001e78:	e8bd 83f0 	ldmia.w	sp!, {r4, r5, r6, r7, r8, r9, pc}
          if((HAL_GetTick() - tickstart) > RCC_LSE_TIMEOUT_VALUE)
 8001e7c:	f7fe fb56 	bl	800052c <HAL_GetTick>
 8001e80:	eba0 0008 	sub.w	r0, r0, r8
 8001e84:	4548      	cmp	r0, r9
 8001e86:	f67f af32 	bls.w	8001cee <HAL_RCCEx_PeriphCLKConfig+0xb2>
 8001e8a:	e758      	b.n	8001d3e <HAL_RCCEx_PeriphCLKConfig+0x102>
      if(PeriphClkInit->UsbClockSelection == RCC_USBCLKSOURCE_PLLSAI1)
 8001e8c:	f1b1 6f80 	cmp.w	r1, #67108864	; 0x4000000
 8001e90:	d1bb      	bne.n	8001e0a <HAL_RCCEx_PeriphCLKConfig+0x1ce>
        ret = RCCEx_PLLSAI1_Config(&(PeriphClkInit->PLLSAI1), DIVIDER_Q_UPDATE);
 8001e92:	2101      	movs	r1, #1
 8001e94:	1d20      	adds	r0, r4, #4
 8001e96:	f7ff fe45 	bl	8001b24 <RCCEx_PLLSAI1_Config>
        if(ret != HAL_OK)
 8001e9a:	2800      	cmp	r0, #0
 8001e9c:	bf18      	it	ne
 8001e9e:	4605      	movne	r5, r0
 8001ea0:	e7b3      	b.n	8001e0a <HAL_RCCEx_PeriphCLKConfig+0x1ce>
    else if(PeriphClkInit->RngClockSelection == RCC_RNGCLKSOURCE_PLLSAI1)
 8001ea2:	f1b1 6f80 	cmp.w	r1, #67108864	; 0x4000000
 8001ea6:	d1c3      	bne.n	8001e30 <HAL_RCCEx_PeriphCLKConfig+0x1f4>
      ret = RCCEx_PLLSAI1_Config(&(PeriphClkInit->PLLSAI1), DIVIDER_Q_UPDATE);
 8001ea8:	2101      	movs	r1, #1
 8001eaa:	1d20      	adds	r0, r4, #4
 8001eac:	f7ff fe3a 	bl	8001b24 <RCCEx_PLLSAI1_Config>
      if(ret != HAL_OK)
 8001eb0:	2800      	cmp	r0, #0
 8001eb2:	bf18      	it	ne
 8001eb4:	4605      	movne	r5, r0
 8001eb6:	e7bb      	b.n	8001e30 <HAL_RCCEx_PeriphCLKConfig+0x1f4>
 8001eb8:	40021000 	.word	0x40021000
 8001ebc:	40007000 	.word	0x40007000

08001ec0 <HAL_TIM_Base_Start_IT>:
{
  /* Check the parameters */
  assert_param(IS_TIM_INSTANCE(htim->Instance));

   /* Enable the TIM Update interrupt */
   __HAL_TIM_ENABLE_IT(htim, TIM_IT_UPDATE);
 8001ec0:	6803      	ldr	r3, [r0, #0]
 8001ec2:	68da      	ldr	r2, [r3, #12]
 8001ec4:	f042 0201 	orr.w	r2, r2, #1
 8001ec8:	60da      	str	r2, [r3, #12]

   /* Enable the Peripheral */
  __HAL_TIM_ENABLE(htim);
 8001eca:	681a      	ldr	r2, [r3, #0]
 8001ecc:	f042 0201 	orr.w	r2, r2, #1
 8001ed0:	601a      	str	r2, [r3, #0]

  /* Return function status */
  return HAL_OK;
}
 8001ed2:	2000      	movs	r0, #0
 8001ed4:	4770      	bx	lr

08001ed6 <HAL_TIM_OC_DelayElapsedCallback>:
 8001ed6:	4770      	bx	lr

08001ed8 <HAL_TIM_IC_CaptureCallback>:
 8001ed8:	4770      	bx	lr

08001eda <HAL_TIM_PWM_PulseFinishedCallback>:
 8001eda:	4770      	bx	lr

08001edc <HAL_TIM_TriggerCallback>:
 8001edc:	4770      	bx	lr

08001ede <HAL_TIM_IRQHandler>:
  * @retval None
  */
void HAL_TIM_IRQHandler(TIM_HandleTypeDef *htim)
{
  /* Capture compare 1 event */
  if(__HAL_TIM_GET_FLAG(htim, TIM_FLAG_CC1) != RESET)
 8001ede:	6803      	ldr	r3, [r0, #0]
 8001ee0:	691a      	ldr	r2, [r3, #16]
 8001ee2:	0791      	lsls	r1, r2, #30
{
 8001ee4:	b510      	push	{r4, lr}
 8001ee6:	4604      	mov	r4, r0
  if(__HAL_TIM_GET_FLAG(htim, TIM_FLAG_CC1) != RESET)
 8001ee8:	d50e      	bpl.n	8001f08 <HAL_TIM_IRQHandler+0x2a>
  {
    if(__HAL_TIM_GET_IT_SOURCE(htim, TIM_IT_CC1) !=RESET)
 8001eea:	68da      	ldr	r2, [r3, #12]
 8001eec:	0792      	lsls	r2, r2, #30
 8001eee:	d50b      	bpl.n	8001f08 <HAL_TIM_IRQHandler+0x2a>
    {
      {
        __HAL_TIM_CLEAR_IT(htim, TIM_IT_CC1);
 8001ef0:	f06f 0202 	mvn.w	r2, #2
 8001ef4:	611a      	str	r2, [r3, #16]
        htim->Channel = HAL_TIM_ACTIVE_CHANNEL_1;

        /* Input capture event */
        if((htim->Instance->CCMR1 & TIM_CCMR1_CC1S) != 0x00)
 8001ef6:	699b      	ldr	r3, [r3, #24]
        htim->Channel = HAL_TIM_ACTIVE_CHANNEL_1;
 8001ef8:	2201      	movs	r2, #1
        if((htim->Instance->CCMR1 & TIM_CCMR1_CC1S) != 0x00)
 8001efa:	079b      	lsls	r3, r3, #30
        htim->Channel = HAL_TIM_ACTIVE_CHANNEL_1;
 8001efc:	7702      	strb	r2, [r0, #28]
        if((htim->Instance->CCMR1 & TIM_CCMR1_CC1S) != 0x00)
 8001efe:	d077      	beq.n	8001ff0 <HAL_TIM_IRQHandler+0x112>
        {
          HAL_TIM_IC_CaptureCallback(htim);
 8001f00:	f7ff ffea 	bl	8001ed8 <HAL_TIM_IC_CaptureCallback>
        else
        {
          HAL_TIM_OC_DelayElapsedCallback(htim);
          HAL_TIM_PWM_PulseFinishedCallback(htim);
        }
        htim->Channel = HAL_TIM_ACTIVE_CHANNEL_CLEARED;
 8001f04:	2300      	movs	r3, #0
 8001f06:	7723      	strb	r3, [r4, #28]
      }
    }
  }
  /* Capture compare 2 event */
  if(__HAL_TIM_GET_FLAG(htim, TIM_FLAG_CC2) != RESET)
 8001f08:	6823      	ldr	r3, [r4, #0]
 8001f0a:	691a      	ldr	r2, [r3, #16]
 8001f0c:	0750      	lsls	r0, r2, #29
 8001f0e:	d510      	bpl.n	8001f32 <HAL_TIM_IRQHandler+0x54>
  {
    if(__HAL_TIM_GET_IT_SOURCE(htim, TIM_IT_CC2) !=RESET)
 8001f10:	68da      	ldr	r2, [r3, #12]
 8001f12:	0751      	lsls	r1, r2, #29
 8001f14:	d50d      	bpl.n	8001f32 <HAL_TIM_IRQHandler+0x54>
    {
      __HAL_TIM_CLEAR_IT(htim, TIM_IT_CC2);
 8001f16:	f06f 0204 	mvn.w	r2, #4
 8001f1a:	611a      	str	r2, [r3, #16]
      htim->Channel = HAL_TIM_ACTIVE_CHANNEL_2;
      /* Input capture event */
      if((htim->Instance->CCMR1 & TIM_CCMR1_CC2S) != 0x00)
 8001f1c:	699b      	ldr	r3, [r3, #24]
      htim->Channel = HAL_TIM_ACTIVE_CHANNEL_2;
 8001f1e:	2202      	movs	r2, #2
      if((htim->Instance->CCMR1 & TIM_CCMR1_CC2S) != 0x00)
 8001f20:	f413 7f40 	tst.w	r3, #768	; 0x300
      htim->Channel = HAL_TIM_ACTIVE_CHANNEL_2;
 8001f24:	7722      	strb	r2, [r4, #28]
      {
        HAL_TIM_IC_CaptureCallback(htim);
 8001f26:	4620      	mov	r0, r4
      if((htim->Instance->CCMR1 & TIM_CCMR1_CC2S) != 0x00)
 8001f28:	d068      	beq.n	8001ffc <HAL_TIM_IRQHandler+0x11e>
        HAL_TIM_IC_CaptureCallback(htim);
 8001f2a:	f7ff ffd5 	bl	8001ed8 <HAL_TIM_IC_CaptureCallback>
      else
      {
        HAL_TIM_OC_DelayElapsedCallback(htim);
        HAL_TIM_PWM_PulseFinishedCallback(htim);
      }
      htim->Channel = HAL_TIM_ACTIVE_CHANNEL_CLEARED;
 8001f2e:	2300      	movs	r3, #0
 8001f30:	7723      	strb	r3, [r4, #28]
    }
  }
  /* Capture compare 3 event */
  if(__HAL_TIM_GET_FLAG(htim, TIM_FLAG_CC3) != RESET)
 8001f32:	6823      	ldr	r3, [r4, #0]
 8001f34:	691a      	ldr	r2, [r3, #16]
 8001f36:	0712      	lsls	r2, r2, #28
 8001f38:	d50f      	bpl.n	8001f5a <HAL_TIM_IRQHandler+0x7c>
  {
    if(__HAL_TIM_GET_IT_SOURCE(htim, TIM_IT_CC3) !=RESET)
 8001f3a:	68da      	ldr	r2, [r3, #12]
 8001f3c:	0710      	lsls	r0, r2, #28
 8001f3e:	d50c      	bpl.n	8001f5a <HAL_TIM_IRQHandler+0x7c>
    {
      __HAL_TIM_CLEAR_IT(htim, TIM_IT_CC3);
 8001f40:	f06f 0208 	mvn.w	r2, #8
 8001f44:	611a      	str	r2, [r3, #16]
      htim->Channel = HAL_TIM_ACTIVE_CHANNEL_3;
      /* Input capture event */
      if((htim->Instance->CCMR2 & TIM_CCMR2_CC3S) != 0x00)
 8001f46:	69db      	ldr	r3, [r3, #28]
      htim->Channel = HAL_TIM_ACTIVE_CHANNEL_3;
 8001f48:	2204      	movs	r2, #4
      if((htim->Instance->CCMR2 & TIM_CCMR2_CC3S) != 0x00)
 8001f4a:	0799      	lsls	r1, r3, #30
      htim->Channel = HAL_TIM_ACTIVE_CHANNEL_3;
 8001f4c:	7722      	strb	r2, [r4, #28]
      {
        HAL_TIM_IC_CaptureCallback(htim);
 8001f4e:	4620      	mov	r0, r4
      if((htim->Instance->CCMR2 & TIM_CCMR2_CC3S) != 0x00)
 8001f50:	d05a      	beq.n	8002008 <HAL_TIM_IRQHandler+0x12a>
        HAL_TIM_IC_CaptureCallback(htim);
 8001f52:	f7ff ffc1 	bl	8001ed8 <HAL_TIM_IC_CaptureCallback>
      else
      {
        HAL_TIM_OC_DelayElapsedCallback(htim);
        HAL_TIM_PWM_PulseFinishedCallback(htim);
      }
      htim->Channel = HAL_TIM_ACTIVE_CHANNEL_CLEARED;
 8001f56:	2300      	movs	r3, #0
 8001f58:	7723      	strb	r3, [r4, #28]
    }
  }
  /* Capture compare 4 event */
  if(__HAL_TIM_GET_FLAG(htim, TIM_FLAG_CC4) != RESET)
 8001f5a:	6823      	ldr	r3, [r4, #0]
 8001f5c:	691a      	ldr	r2, [r3, #16]
 8001f5e:	06d2      	lsls	r2, r2, #27
 8001f60:	d510      	bpl.n	8001f84 <HAL_TIM_IRQHandler+0xa6>
  {
    if(__HAL_TIM_GET_IT_SOURCE(htim, TIM_IT_CC4) !=RESET)
 8001f62:	68da      	ldr	r2, [r3, #12]
 8001f64:	06d0      	lsls	r0, r2, #27
 8001f66:	d50d      	bpl.n	8001f84 <HAL_TIM_IRQHandler+0xa6>
    {
      __HAL_TIM_CLEAR_IT(htim, TIM_IT_CC4);
 8001f68:	f06f 0210 	mvn.w	r2, #16
 8001f6c:	611a      	str	r2, [r3, #16]
      htim->Channel = HAL_TIM_ACTIVE_CHANNEL_4;
      /* Input capture event */
      if((htim->Instance->CCMR2 & TIM_CCMR2_CC4S) != 0x00)
 8001f6e:	69db      	ldr	r3, [r3, #28]
      htim->Channel = HAL_TIM_ACTIVE_CHANNEL_4;
 8001f70:	2208      	movs	r2, #8
      if((htim->Instance->CCMR2 & TIM_CCMR2_CC4S) != 0x00)
 8001f72:	f413 7f40 	tst.w	r3, #768	; 0x300
      htim->Channel = HAL_TIM_ACTIVE_CHANNEL_4;
 8001f76:	7722      	strb	r2, [r4, #28]
      {
        HAL_TIM_IC_CaptureCallback(htim);
 8001f78:	4620      	mov	r0, r4
      if((htim->Instance->CCMR2 & TIM_CCMR2_CC4S) != 0x00)
 8001f7a:	d04b      	beq.n	8002014 <HAL_TIM_IRQHandler+0x136>
        HAL_TIM_IC_CaptureCallback(htim);
 8001f7c:	f7ff ffac 	bl	8001ed8 <HAL_TIM_IC_CaptureCallback>
      else
      {
        HAL_TIM_OC_DelayElapsedCallback(htim);
        HAL_TIM_PWM_PulseFinishedCallback(htim);
      }
      htim->Channel = HAL_TIM_ACTIVE_CHANNEL_CLEARED;
 8001f80:	2300      	movs	r3, #0
 8001f82:	7723      	strb	r3, [r4, #28]
    }
  }
  /* TIM Update event */
  if(__HAL_TIM_GET_FLAG(htim, TIM_FLAG_UPDATE) != RESET)
 8001f84:	6823      	ldr	r3, [r4, #0]
 8001f86:	691a      	ldr	r2, [r3, #16]
 8001f88:	07d1      	lsls	r1, r2, #31
 8001f8a:	d508      	bpl.n	8001f9e <HAL_TIM_IRQHandler+0xc0>
  {
    if(__HAL_TIM_GET_IT_SOURCE(htim, TIM_IT_UPDATE) !=RESET)
 8001f8c:	68da      	ldr	r2, [r3, #12]
 8001f8e:	07d2      	lsls	r2, r2, #31
 8001f90:	d505      	bpl.n	8001f9e <HAL_TIM_IRQHandler+0xc0>
    {
      __HAL_TIM_CLEAR_IT(htim, TIM_IT_UPDATE);
 8001f92:	f06f 0201 	mvn.w	r2, #1
 8001f96:	611a      	str	r2, [r3, #16]
      HAL_TIM_PeriodElapsedCallback(htim);
 8001f98:	4620      	mov	r0, r4
 8001f9a:	f001 ff71 	bl	8003e80 <HAL_TIM_PeriodElapsedCallback>
    }
  }
  /* TIM Break input event */
  if(__HAL_TIM_GET_FLAG(htim, TIM_FLAG_BREAK) != RESET)
 8001f9e:	6823      	ldr	r3, [r4, #0]
 8001fa0:	691a      	ldr	r2, [r3, #16]
 8001fa2:	0610      	lsls	r0, r2, #24
 8001fa4:	d508      	bpl.n	8001fb8 <HAL_TIM_IRQHandler+0xda>
  {
    if(__HAL_TIM_GET_IT_SOURCE(htim, TIM_IT_BREAK) !=RESET)
 8001fa6:	68da      	ldr	r2, [r3, #12]
 8001fa8:	0611      	lsls	r1, r2, #24
 8001faa:	d505      	bpl.n	8001fb8 <HAL_TIM_IRQHandler+0xda>
    {
      __HAL_TIM_CLEAR_IT(htim, TIM_IT_BREAK);
 8001fac:	f06f 0280 	mvn.w	r2, #128	; 0x80
 8001fb0:	611a      	str	r2, [r3, #16]
      HAL_TIMEx_BreakCallback(htim);
 8001fb2:	4620      	mov	r0, r4
 8001fb4:	f000 f927 	bl	8002206 <HAL_TIMEx_BreakCallback>
    }
  }
  /* TIM Trigger detection event */
  if(__HAL_TIM_GET_FLAG(htim, TIM_FLAG_TRIGGER) != RESET)
 8001fb8:	6823      	ldr	r3, [r4, #0]
 8001fba:	691a      	ldr	r2, [r3, #16]
 8001fbc:	0652      	lsls	r2, r2, #25
 8001fbe:	d508      	bpl.n	8001fd2 <HAL_TIM_IRQHandler+0xf4>
  {
    if(__HAL_TIM_GET_IT_SOURCE(htim, TIM_IT_TRIGGER) !=RESET)
 8001fc0:	68da      	ldr	r2, [r3, #12]
 8001fc2:	0650      	lsls	r0, r2, #25
 8001fc4:	d505      	bpl.n	8001fd2 <HAL_TIM_IRQHandler+0xf4>
    {
      __HAL_TIM_CLEAR_IT(htim, TIM_IT_TRIGGER);
 8001fc6:	f06f 0240 	mvn.w	r2, #64	; 0x40
 8001fca:	611a      	str	r2, [r3, #16]
      HAL_TIM_TriggerCallback(htim);
 8001fcc:	4620      	mov	r0, r4
 8001fce:	f7ff ff85 	bl	8001edc <HAL_TIM_TriggerCallback>
    }
  }
  /* TIM commutation event */
  if(__HAL_TIM_GET_FLAG(htim, TIM_FLAG_COM) != RESET)
 8001fd2:	6823      	ldr	r3, [r4, #0]
 8001fd4:	691a      	ldr	r2, [r3, #16]
 8001fd6:	0691      	lsls	r1, r2, #26
 8001fd8:	d522      	bpl.n	8002020 <HAL_TIM_IRQHandler+0x142>
  {
    if(__HAL_TIM_GET_IT_SOURCE(htim, TIM_IT_COM) !=RESET)
 8001fda:	68da      	ldr	r2, [r3, #12]
 8001fdc:	0692      	lsls	r2, r2, #26
 8001fde:	d51f      	bpl.n	8002020 <HAL_TIM_IRQHandler+0x142>
    {
      __HAL_TIM_CLEAR_IT(htim, TIM_FLAG_COM);
 8001fe0:	f06f 0220 	mvn.w	r2, #32
      HAL_TIMEx_CommutationCallback(htim);
 8001fe4:	4620      	mov	r0, r4
      __HAL_TIM_CLEAR_IT(htim, TIM_FLAG_COM);
 8001fe6:	611a      	str	r2, [r3, #16]
    }
  }
}
 8001fe8:	e8bd 4010 	ldmia.w	sp!, {r4, lr}
      HAL_TIMEx_CommutationCallback(htim);
 8001fec:	f000 b90a 	b.w	8002204 <HAL_TIMEx_CommutationCallback>
          HAL_TIM_OC_DelayElapsedCallback(htim);
 8001ff0:	f7ff ff71 	bl	8001ed6 <HAL_TIM_OC_DelayElapsedCallback>
          HAL_TIM_PWM_PulseFinishedCallback(htim);
 8001ff4:	4620      	mov	r0, r4
 8001ff6:	f7ff ff70 	bl	8001eda <HAL_TIM_PWM_PulseFinishedCallback>
 8001ffa:	e783      	b.n	8001f04 <HAL_TIM_IRQHandler+0x26>
        HAL_TIM_OC_DelayElapsedCallback(htim);
 8001ffc:	f7ff ff6b 	bl	8001ed6 <HAL_TIM_OC_DelayElapsedCallback>
        HAL_TIM_PWM_PulseFinishedCallback(htim);
 8002000:	4620      	mov	r0, r4
 8002002:	f7ff ff6a 	bl	8001eda <HAL_TIM_PWM_PulseFinishedCallback>
 8002006:	e792      	b.n	8001f2e <HAL_TIM_IRQHandler+0x50>
        HAL_TIM_OC_DelayElapsedCallback(htim);
 8002008:	f7ff ff65 	bl	8001ed6 <HAL_TIM_OC_DelayElapsedCallback>
        HAL_TIM_PWM_PulseFinishedCallback(htim);
 800200c:	4620      	mov	r0, r4
 800200e:	f7ff ff64 	bl	8001eda <HAL_TIM_PWM_PulseFinishedCallback>
 8002012:	e7a0      	b.n	8001f56 <HAL_TIM_IRQHandler+0x78>
        HAL_TIM_OC_DelayElapsedCallback(htim);
 8002014:	f7ff ff5f 	bl	8001ed6 <HAL_TIM_OC_DelayElapsedCallback>
        HAL_TIM_PWM_PulseFinishedCallback(htim);
 8002018:	4620      	mov	r0, r4
 800201a:	f7ff ff5e 	bl	8001eda <HAL_TIM_PWM_PulseFinishedCallback>
 800201e:	e7af      	b.n	8001f80 <HAL_TIM_IRQHandler+0xa2>
 8002020:	bd10      	pop	{r4, pc}
	...

08002024 <TIM_Base_SetConfig>:
{
  uint32_t tmpcr1 = 0;
  tmpcr1 = TIMx->CR1;

  /* Set TIM Time Base Unit parameters ---------------------------------------*/
  if (IS_TIM_COUNTER_MODE_SELECT_INSTANCE(TIMx))
 8002024:	4a1a      	ldr	r2, [pc, #104]	; (8002090 <TIM_Base_SetConfig+0x6c>)
  tmpcr1 = TIMx->CR1;
 8002026:	6803      	ldr	r3, [r0, #0]
  if (IS_TIM_COUNTER_MODE_SELECT_INSTANCE(TIMx))
 8002028:	4290      	cmp	r0, r2
{
 800202a:	b510      	push	{r4, lr}
  if (IS_TIM_COUNTER_MODE_SELECT_INSTANCE(TIMx))
 800202c:	d002      	beq.n	8002034 <TIM_Base_SetConfig+0x10>
 800202e:	f1b0 4f80 	cmp.w	r0, #1073741824	; 0x40000000
 8002032:	d109      	bne.n	8002048 <TIM_Base_SetConfig+0x24>
  {
    /* Select the Counter Mode */
    tmpcr1 &= ~(TIM_CR1_DIR | TIM_CR1_CMS);
    tmpcr1 |= Structure->CounterMode;
 8002034:	684c      	ldr	r4, [r1, #4]
    tmpcr1 &= ~(TIM_CR1_DIR | TIM_CR1_CMS);
 8002036:	f023 0370 	bic.w	r3, r3, #112	; 0x70
  }

  if(IS_TIM_CLOCK_DIVISION_INSTANCE(TIMx))
 800203a:	4290      	cmp	r0, r2
    tmpcr1 |= Structure->CounterMode;
 800203c:	ea43 0304 	orr.w	r3, r3, r4
  if(IS_TIM_CLOCK_DIVISION_INSTANCE(TIMx))
 8002040:	d009      	beq.n	8002056 <TIM_Base_SetConfig+0x32>
 8002042:	f1b0 4f80 	cmp.w	r0, #1073741824	; 0x40000000
 8002046:	d006      	beq.n	8002056 <TIM_Base_SetConfig+0x32>
 8002048:	4a12      	ldr	r2, [pc, #72]	; (8002094 <TIM_Base_SetConfig+0x70>)
 800204a:	4290      	cmp	r0, r2
 800204c:	d003      	beq.n	8002056 <TIM_Base_SetConfig+0x32>
 800204e:	f502 6280 	add.w	r2, r2, #1024	; 0x400
 8002052:	4290      	cmp	r0, r2
 8002054:	d103      	bne.n	800205e <TIM_Base_SetConfig+0x3a>
  {
    /* Set the clock division */
    tmpcr1 &= ~TIM_CR1_CKD;
    tmpcr1 |= (uint32_t)Structure->ClockDivision;
 8002056:	68ca      	ldr	r2, [r1, #12]
    tmpcr1 &= ~TIM_CR1_CKD;
 8002058:	f423 7340 	bic.w	r3, r3, #768	; 0x300
    tmpcr1 |= (uint32_t)Structure->ClockDivision;
 800205c:	4313      	orrs	r3, r2
  }

  /* Set the auto-reload preload */
  tmpcr1 &= ~TIM_CR1_ARPE;
  tmpcr1 |= (uint32_t)Structure->AutoReloadPreload;
 800205e:	694a      	ldr	r2, [r1, #20]
  tmpcr1 &= ~TIM_CR1_ARPE;
 8002060:	f023 0380 	bic.w	r3, r3, #128	; 0x80
  tmpcr1 |= (uint32_t)Structure->AutoReloadPreload;
 8002064:	4313      	orrs	r3, r2

  TIMx->CR1 = tmpcr1;
 8002066:	6003      	str	r3, [r0, #0]

  /* Set the Autoreload value */
  TIMx->ARR = (uint32_t)Structure->Period ;
 8002068:	688b      	ldr	r3, [r1, #8]
 800206a:	62c3      	str	r3, [r0, #44]	; 0x2c

  /* Set the Prescaler value */
  TIMx->PSC = (uint32_t)Structure->Prescaler;
 800206c:	680b      	ldr	r3, [r1, #0]
 800206e:	6283      	str	r3, [r0, #40]	; 0x28

  if (IS_TIM_REPETITION_COUNTER_INSTANCE(TIMx))
 8002070:	4b07      	ldr	r3, [pc, #28]	; (8002090 <TIM_Base_SetConfig+0x6c>)
 8002072:	4298      	cmp	r0, r3
 8002074:	d007      	beq.n	8002086 <TIM_Base_SetConfig+0x62>
 8002076:	f503 53a0 	add.w	r3, r3, #5120	; 0x1400
 800207a:	4298      	cmp	r0, r3
 800207c:	d003      	beq.n	8002086 <TIM_Base_SetConfig+0x62>
 800207e:	f503 6380 	add.w	r3, r3, #1024	; 0x400
 8002082:	4298      	cmp	r0, r3
 8002084:	d101      	bne.n	800208a <TIM_Base_SetConfig+0x66>
  {
    /* Set the Repetition Counter value */
    TIMx->RCR = Structure->RepetitionCounter;
 8002086:	690b      	ldr	r3, [r1, #16]
 8002088:	6303      	str	r3, [r0, #48]	; 0x30
  }

  /* Generate an update event to reload the Prescaler
     and the repetition counter(only for TIM1 and TIM8) value immediately */
  TIMx->EGR = TIM_EGR_UG;
 800208a:	2301      	movs	r3, #1
 800208c:	6143      	str	r3, [r0, #20]
 800208e:	bd10      	pop	{r4, pc}
 8002090:	40012c00 	.word	0x40012c00
 8002094:	40014000 	.word	0x40014000

08002098 <HAL_TIM_Base_Init>:
{
 8002098:	b510      	push	{r4, lr}
  if(htim == NULL)
 800209a:	4604      	mov	r4, r0
 800209c:	b1a0      	cbz	r0, 80020c8 <HAL_TIM_Base_Init+0x30>
  if(htim->State == HAL_TIM_STATE_RESET)
 800209e:	f890 303d 	ldrb.w	r3, [r0, #61]	; 0x3d
 80020a2:	f003 02ff 	and.w	r2, r3, #255	; 0xff
 80020a6:	b91b      	cbnz	r3, 80020b0 <HAL_TIM_Base_Init+0x18>
    htim->Lock = HAL_UNLOCKED;
 80020a8:	f880 203c 	strb.w	r2, [r0, #60]	; 0x3c
    HAL_TIM_Base_MspInit(htim);
 80020ac:	f001 ff50 	bl	8003f50 <HAL_TIM_Base_MspInit>
  htim->State= HAL_TIM_STATE_BUSY;
 80020b0:	2302      	movs	r3, #2
 80020b2:	f884 303d 	strb.w	r3, [r4, #61]	; 0x3d
  TIM_Base_SetConfig(htim->Instance, &htim->Init);
 80020b6:	6820      	ldr	r0, [r4, #0]
 80020b8:	1d21      	adds	r1, r4, #4
 80020ba:	f7ff ffb3 	bl	8002024 <TIM_Base_SetConfig>
  htim->State= HAL_TIM_STATE_READY;
 80020be:	2301      	movs	r3, #1
 80020c0:	f884 303d 	strb.w	r3, [r4, #61]	; 0x3d
  return HAL_OK;
 80020c4:	2000      	movs	r0, #0
 80020c6:	bd10      	pop	{r4, pc}
    return HAL_ERROR;
 80020c8:	2001      	movs	r0, #1
}
 80020ca:	bd10      	pop	{r4, pc}

080020cc <TIM_ETR_SetConfig>:
  *          This parameter must be a value between 0x00 and 0x0F
  * @retval None
  */
void TIM_ETR_SetConfig(TIM_TypeDef* TIMx, uint32_t TIM_ExtTRGPrescaler,
                       uint32_t TIM_ExtTRGPolarity, uint32_t ExtTRGFilter)
{
 80020cc:	b510      	push	{r4, lr}
  uint32_t tmpsmcr = 0;

  tmpsmcr = TIMx->SMCR;
 80020ce:	6884      	ldr	r4, [r0, #8]

  /* Reset the ETR Bits */
  tmpsmcr &= ~(TIM_SMCR_ETF | TIM_SMCR_ETPS | TIM_SMCR_ECE | TIM_SMCR_ETP);

  /* Set the Prescaler, the Filter value and the Polarity */
  tmpsmcr |= (uint32_t)(TIM_ExtTRGPrescaler | (TIM_ExtTRGPolarity | (ExtTRGFilter << 8)));
 80020d0:	430a      	orrs	r2, r1
  tmpsmcr &= ~(TIM_SMCR_ETF | TIM_SMCR_ETPS | TIM_SMCR_ECE | TIM_SMCR_ETP);
 80020d2:	f424 447f 	bic.w	r4, r4, #65280	; 0xff00
  tmpsmcr |= (uint32_t)(TIM_ExtTRGPrescaler | (TIM_ExtTRGPolarity | (ExtTRGFilter << 8)));
 80020d6:	ea42 2303 	orr.w	r3, r2, r3, lsl #8
 80020da:	4323      	orrs	r3, r4

  /* Write to TIMx SMCR */
  TIMx->SMCR = tmpsmcr;
 80020dc:	6083      	str	r3, [r0, #8]
 80020de:	bd10      	pop	{r4, pc}

080020e0 <TIM_SlaveTimer_SetConfig>:
  tmpsmcr = htim->Instance->SMCR;
 80020e0:	6800      	ldr	r0, [r0, #0]
  tmpsmcr |= sSlaveConfig->InputTrigger;
 80020e2:	684a      	ldr	r2, [r1, #4]
  tmpsmcr = htim->Instance->SMCR;
 80020e4:	6883      	ldr	r3, [r0, #8]
  tmpsmcr &= ~TIM_SMCR_TS;
 80020e6:	f023 0370 	bic.w	r3, r3, #112	; 0x70
  tmpsmcr |= sSlaveConfig->InputTrigger;
 80020ea:	4313      	orrs	r3, r2
{
 80020ec:	b430      	push	{r4, r5}
  tmpsmcr &= ~TIM_SMCR_SMS;
 80020ee:	f423 3380 	bic.w	r3, r3, #65536	; 0x10000
  tmpsmcr |= sSlaveConfig->SlaveMode;
 80020f2:	680c      	ldr	r4, [r1, #0]
  tmpsmcr &= ~TIM_SMCR_SMS;
 80020f4:	f023 0307 	bic.w	r3, r3, #7
  tmpsmcr |= sSlaveConfig->SlaveMode;
 80020f8:	4323      	orrs	r3, r4
  switch (sSlaveConfig->InputTrigger)
 80020fa:	2a50      	cmp	r2, #80	; 0x50
  htim->Instance->SMCR = tmpsmcr;
 80020fc:	6083      	str	r3, [r0, #8]
  switch (sSlaveConfig->InputTrigger)
 80020fe:	d01c      	beq.n	800213a <TIM_SlaveTimer_SetConfig+0x5a>
 8002100:	d803      	bhi.n	800210a <TIM_SlaveTimer_SetConfig+0x2a>
 8002102:	2a40      	cmp	r2, #64	; 0x40
 8002104:	d00b      	beq.n	800211e <TIM_SlaveTimer_SetConfig+0x3e>
}
 8002106:	bc30      	pop	{r4, r5}
 8002108:	4770      	bx	lr
  switch (sSlaveConfig->InputTrigger)
 800210a:	2a60      	cmp	r2, #96	; 0x60
 800210c:	d025      	beq.n	800215a <TIM_SlaveTimer_SetConfig+0x7a>
 800210e:	2a70      	cmp	r2, #112	; 0x70
 8002110:	d1f9      	bne.n	8002106 <TIM_SlaveTimer_SetConfig+0x26>
      TIM_ETR_SetConfig(htim->Instance,
 8002112:	690b      	ldr	r3, [r1, #16]
 8002114:	688a      	ldr	r2, [r1, #8]
 8002116:	68c9      	ldr	r1, [r1, #12]
}
 8002118:	bc30      	pop	{r4, r5}
      TIM_ETR_SetConfig(htim->Instance,
 800211a:	f7ff bfd7 	b.w	80020cc <TIM_ETR_SetConfig>
      tmpccer = htim->Instance->CCER;
 800211e:	6a02      	ldr	r2, [r0, #32]
      htim->Instance->CCER &= ~TIM_CCER_CC1E;
 8002120:	6a03      	ldr	r3, [r0, #32]
      tmpccmr1 |= ((sSlaveConfig->TriggerFilter) << 4);
 8002122:	6909      	ldr	r1, [r1, #16]
      htim->Instance->CCER &= ~TIM_CCER_CC1E;
 8002124:	f023 0301 	bic.w	r3, r3, #1
 8002128:	6203      	str	r3, [r0, #32]
      tmpccmr1 = htim->Instance->CCMR1;
 800212a:	6983      	ldr	r3, [r0, #24]
      tmpccmr1 &= ~TIM_CCMR1_IC1F;
 800212c:	f023 03f0 	bic.w	r3, r3, #240	; 0xf0
      tmpccmr1 |= ((sSlaveConfig->TriggerFilter) << 4);
 8002130:	ea43 1301 	orr.w	r3, r3, r1, lsl #4
  TIMx->CCMR1 = tmpccmr1;
 8002134:	6183      	str	r3, [r0, #24]
  TIMx->CCER = tmpccer;
 8002136:	6202      	str	r2, [r0, #32]
 8002138:	e7e5      	b.n	8002106 <TIM_SlaveTimer_SetConfig+0x26>
      TIM_TI1_ConfigInputStage(htim->Instance,
 800213a:	688a      	ldr	r2, [r1, #8]
 800213c:	690d      	ldr	r5, [r1, #16]
  tmpccer = TIMx->CCER;
 800213e:	6a01      	ldr	r1, [r0, #32]
  TIMx->CCER &= ~TIM_CCER_CC1E;
 8002140:	6a04      	ldr	r4, [r0, #32]
 8002142:	f024 0401 	bic.w	r4, r4, #1
 8002146:	6204      	str	r4, [r0, #32]
  tmpccmr1 = TIMx->CCMR1;
 8002148:	6983      	ldr	r3, [r0, #24]
  tmpccer &= ~(TIM_CCER_CC1P | TIM_CCER_CC1NP);
 800214a:	f021 010a 	bic.w	r1, r1, #10
  tmpccmr1 &= ~TIM_CCMR1_IC1F;
 800214e:	f023 03f0 	bic.w	r3, r3, #240	; 0xf0
  tmpccmr1 |= (TIM_ICFilter << 4);
 8002152:	ea43 1305 	orr.w	r3, r3, r5, lsl #4
  tmpccer |= TIM_ICPolarity;
 8002156:	430a      	orrs	r2, r1
 8002158:	e7ec      	b.n	8002134 <TIM_SlaveTimer_SetConfig+0x54>
      TIM_TI2_ConfigInputStage(htim->Instance,
 800215a:	688c      	ldr	r4, [r1, #8]
 800215c:	690d      	ldr	r5, [r1, #16]
  TIMx->CCER &= ~TIM_CCER_CC2E;
 800215e:	6a01      	ldr	r1, [r0, #32]
 8002160:	f021 0110 	bic.w	r1, r1, #16
 8002164:	6201      	str	r1, [r0, #32]
  tmpccmr1 = TIMx->CCMR1;
 8002166:	6982      	ldr	r2, [r0, #24]
  tmpccer = TIMx->CCER;
 8002168:	6a03      	ldr	r3, [r0, #32]
  tmpccmr1 &= ~TIM_CCMR1_IC2F;
 800216a:	f422 4270 	bic.w	r2, r2, #61440	; 0xf000
  tmpccer &= ~(TIM_CCER_CC2P | TIM_CCER_CC2NP);
 800216e:	f023 03a0 	bic.w	r3, r3, #160	; 0xa0
  tmpccmr1 |= (TIM_ICFilter << 12);
 8002172:	ea42 3205 	orr.w	r2, r2, r5, lsl #12
  tmpccer |= (TIM_ICPolarity << 4);
 8002176:	ea43 1304 	orr.w	r3, r3, r4, lsl #4
  TIMx->CCMR1 = tmpccmr1 ;
 800217a:	6182      	str	r2, [r0, #24]
  TIMx->CCER = tmpccer;
 800217c:	6203      	str	r3, [r0, #32]
}
 800217e:	e7c2      	b.n	8002106 <TIM_SlaveTimer_SetConfig+0x26>

08002180 <HAL_TIM_SlaveConfigSynchronization>:
{
 8002180:	b538      	push	{r3, r4, r5, lr}
  __HAL_LOCK(htim);
 8002182:	f890 303c 	ldrb.w	r3, [r0, #60]	; 0x3c
 8002186:	2b01      	cmp	r3, #1
{
 8002188:	4604      	mov	r4, r0
 800218a:	f04f 0302 	mov.w	r3, #2
  __HAL_LOCK(htim);
 800218e:	d015      	beq.n	80021bc <HAL_TIM_SlaveConfigSynchronization+0x3c>
 8002190:	2501      	movs	r5, #1
 8002192:	f880 503c 	strb.w	r5, [r0, #60]	; 0x3c
  htim->State = HAL_TIM_STATE_BUSY;
 8002196:	f880 303d 	strb.w	r3, [r0, #61]	; 0x3d
  TIM_SlaveTimer_SetConfig(htim, sSlaveConfig);
 800219a:	f7ff ffa1 	bl	80020e0 <TIM_SlaveTimer_SetConfig>
  __HAL_TIM_DISABLE_IT(htim, TIM_IT_TRIGGER);
 800219e:	6823      	ldr	r3, [r4, #0]
 80021a0:	68da      	ldr	r2, [r3, #12]
 80021a2:	f022 0240 	bic.w	r2, r2, #64	; 0x40
 80021a6:	60da      	str	r2, [r3, #12]
  __HAL_TIM_DISABLE_DMA(htim, TIM_DMA_TRIGGER);
 80021a8:	68da      	ldr	r2, [r3, #12]
  __HAL_UNLOCK(htim);
 80021aa:	2000      	movs	r0, #0
  __HAL_TIM_DISABLE_DMA(htim, TIM_DMA_TRIGGER);
 80021ac:	f422 4280 	bic.w	r2, r2, #16384	; 0x4000
 80021b0:	60da      	str	r2, [r3, #12]
  htim->State = HAL_TIM_STATE_READY;
 80021b2:	f884 503d 	strb.w	r5, [r4, #61]	; 0x3d
  __HAL_UNLOCK(htim);
 80021b6:	f884 003c 	strb.w	r0, [r4, #60]	; 0x3c
  return HAL_OK;
 80021ba:	bd38      	pop	{r3, r4, r5, pc}
  __HAL_LOCK(htim);
 80021bc:	4618      	mov	r0, r3
    }
 80021be:	bd38      	pop	{r3, r4, r5, pc}

080021c0 <HAL_TIMEx_MasterConfigSynchronization>:
  assert_param(IS_TIM_SYNCHRO_INSTANCE(htim->Instance));
  assert_param(IS_TIM_TRGO_SOURCE(sMasterConfig->MasterOutputTrigger));
  assert_param(IS_TIM_MSM_STATE(sMasterConfig->MasterSlaveMode));

  /* Check input state */
  __HAL_LOCK(htim);
 80021c0:	f890 303c 	ldrb.w	r3, [r0, #60]	; 0x3c
 80021c4:	2b01      	cmp	r3, #1
{
 80021c6:	b530      	push	{r4, r5, lr}
  __HAL_LOCK(htim);
 80021c8:	d018      	beq.n	80021fc <HAL_TIMEx_MasterConfigSynchronization+0x3c>

 /* Get the TIMx CR2 register value */
  tmpcr2 = htim->Instance->CR2;
 80021ca:	6802      	ldr	r2, [r0, #0]

  /* Get the TIMx SMCR register value */
  tmpsmcr = htim->Instance->SMCR;

  /* If the timer supports ADC synchronization through TRGO2, set the master mode selection 2 */
  if (IS_TIM_TRGO2_INSTANCE(htim->Instance))
 80021cc:	4d0c      	ldr	r5, [pc, #48]	; (8002200 <HAL_TIMEx_MasterConfigSynchronization+0x40>)
  tmpcr2 = htim->Instance->CR2;
 80021ce:	6853      	ldr	r3, [r2, #4]
  tmpsmcr = htim->Instance->SMCR;
 80021d0:	6894      	ldr	r4, [r2, #8]
  if (IS_TIM_TRGO2_INSTANCE(htim->Instance))
 80021d2:	42aa      	cmp	r2, r5
    assert_param(IS_TIM_TRGO2_SOURCE(sMasterConfig->MasterOutputTrigger2));

    /* Clear the MMS2 bits */
    tmpcr2 &= ~TIM_CR2_MMS2;
    /* Select the TRGO2 source*/
    tmpcr2 |= sMasterConfig->MasterOutputTrigger2;
 80021d4:	bf02      	ittt	eq
 80021d6:	684d      	ldreq	r5, [r1, #4]
    tmpcr2 &= ~TIM_CR2_MMS2;
 80021d8:	f423 0370 	biceq.w	r3, r3, #15728640	; 0xf00000
    tmpcr2 |= sMasterConfig->MasterOutputTrigger2;
 80021dc:	432b      	orreq	r3, r5
  }

  /* Reset the MMS Bits */
  tmpcr2 &= ~TIM_CR2_MMS;
  /* Select the TRGO source */
  tmpcr2 |=  sMasterConfig->MasterOutputTrigger;
 80021de:	680d      	ldr	r5, [r1, #0]

  /* Reset the MSM Bit */
  tmpsmcr &= ~TIM_SMCR_MSM;
  /* Set master mode */
  tmpsmcr |= sMasterConfig->MasterSlaveMode;
 80021e0:	6889      	ldr	r1, [r1, #8]
  tmpcr2 &= ~TIM_CR2_MMS;
 80021e2:	f023 0370 	bic.w	r3, r3, #112	; 0x70
  tmpcr2 |=  sMasterConfig->MasterOutputTrigger;
 80021e6:	432b      	orrs	r3, r5
  tmpsmcr &= ~TIM_SMCR_MSM;
 80021e8:	f024 0480 	bic.w	r4, r4, #128	; 0x80

  /* Update TIMx CR2 */
  htim->Instance->CR2 = tmpcr2;
 80021ec:	6053      	str	r3, [r2, #4]
  tmpsmcr |= sMasterConfig->MasterSlaveMode;
 80021ee:	4321      	orrs	r1, r4

  /* Update TIMx SMCR */
  htim->Instance->SMCR = tmpsmcr;

  __HAL_UNLOCK(htim);
 80021f0:	2300      	movs	r3, #0
  htim->Instance->SMCR = tmpsmcr;
 80021f2:	6091      	str	r1, [r2, #8]
  __HAL_UNLOCK(htim);
 80021f4:	f880 303c 	strb.w	r3, [r0, #60]	; 0x3c

  return HAL_OK;
 80021f8:	4618      	mov	r0, r3
 80021fa:	bd30      	pop	{r4, r5, pc}
  __HAL_LOCK(htim);
 80021fc:	2002      	movs	r0, #2
}
 80021fe:	bd30      	pop	{r4, r5, pc}
 8002200:	40012c00 	.word	0x40012c00

08002204 <HAL_TIMEx_CommutationCallback>:
 8002204:	4770      	bx	lr

08002206 <HAL_TIMEx_BreakCallback>:
  * @brief  Hall Break detection callback in non-blocking mode
  * @param  htim TIM handle
  * @retval None
  */
__weak void HAL_TIMEx_BreakCallback(TIM_HandleTypeDef *htim)
{
 8002206:	4770      	bx	lr

08002208 <UART_EndRxTransfer>:
{
  /* Disable RXNE, PE and ERR (Frame error, noise error, overrun error) interrupts */
#if defined(USART_CR1_FIFOEN)
  CLEAR_BIT(huart->Instance->CR1, (USART_CR1_RXNEIE_RXFNEIE | USART_CR1_PEIE));
#else
  CLEAR_BIT(huart->Instance->CR1, (USART_CR1_RXNEIE | USART_CR1_PEIE));
 8002208:	6803      	ldr	r3, [r0, #0]
 800220a:	681a      	ldr	r2, [r3, #0]
 800220c:	f422 7290 	bic.w	r2, r2, #288	; 0x120
 8002210:	601a      	str	r2, [r3, #0]
#endif
  CLEAR_BIT(huart->Instance->CR3, USART_CR3_EIE);
 8002212:	689a      	ldr	r2, [r3, #8]
 8002214:	f022 0201 	bic.w	r2, r2, #1
 8002218:	609a      	str	r2, [r3, #8]

  /* At end of Rx process, restore huart->RxState to Ready */
  huart->RxState = HAL_UART_STATE_READY;
 800221a:	2320      	movs	r3, #32
 800221c:	f880 3072 	strb.w	r3, [r0, #114]	; 0x72
  
  /* Reset RxIsr function pointer */
  huart->RxISR = NULL;
 8002220:	2300      	movs	r3, #0
 8002222:	6603      	str	r3, [r0, #96]	; 0x60
 8002224:	4770      	bx	lr
	...

08002228 <HAL_UART_Receive_IT>:
  if(huart->RxState == HAL_UART_STATE_READY)
 8002228:	f890 3072 	ldrb.w	r3, [r0, #114]	; 0x72
 800222c:	2b20      	cmp	r3, #32
 800222e:	d149      	bne.n	80022c4 <HAL_UART_Receive_IT+0x9c>
    if((pData == NULL ) || (Size == 0U))
 8002230:	2900      	cmp	r1, #0
 8002232:	d045      	beq.n	80022c0 <HAL_UART_Receive_IT+0x98>
 8002234:	2a00      	cmp	r2, #0
 8002236:	d043      	beq.n	80022c0 <HAL_UART_Receive_IT+0x98>
    __HAL_LOCK(huart);
 8002238:	f890 3070 	ldrb.w	r3, [r0, #112]	; 0x70
 800223c:	2b01      	cmp	r3, #1
 800223e:	d041      	beq.n	80022c4 <HAL_UART_Receive_IT+0x9c>
 8002240:	2301      	movs	r3, #1
 8002242:	f880 3070 	strb.w	r3, [r0, #112]	; 0x70
    huart->RxISR       = NULL;
 8002246:	2300      	movs	r3, #0
 8002248:	6603      	str	r3, [r0, #96]	; 0x60
    UART_MASK_COMPUTATION(huart);
 800224a:	6883      	ldr	r3, [r0, #8]
    huart->pRxBuffPtr  = pData;
 800224c:	6541      	str	r1, [r0, #84]	; 0x54
    UART_MASK_COMPUTATION(huart);
 800224e:	f5b3 5f80 	cmp.w	r3, #4096	; 0x1000
    huart->RxXferSize  = Size;
 8002252:	f8a0 2058 	strh.w	r2, [r0, #88]	; 0x58
    huart->RxXferCount = Size;
 8002256:	f8a0 205a 	strh.w	r2, [r0, #90]	; 0x5a
    UART_MASK_COMPUTATION(huart);
 800225a:	d121      	bne.n	80022a0 <HAL_UART_Receive_IT+0x78>
 800225c:	6902      	ldr	r2, [r0, #16]
 800225e:	b9ea      	cbnz	r2, 800229c <HAL_UART_Receive_IT+0x74>
 8002260:	f240 12ff 	movw	r2, #511	; 0x1ff
 8002264:	f8a0 205c 	strh.w	r2, [r0, #92]	; 0x5c
    huart->ErrorCode = HAL_UART_ERROR_NONE;
 8002268:	2200      	movs	r2, #0
 800226a:	6742      	str	r2, [r0, #116]	; 0x74
    huart->RxState = HAL_UART_STATE_BUSY_RX;
 800226c:	2222      	movs	r2, #34	; 0x22
 800226e:	f880 2072 	strb.w	r2, [r0, #114]	; 0x72
    SET_BIT(huart->Instance->CR3, USART_CR3_EIE);
 8002272:	6802      	ldr	r2, [r0, #0]
 8002274:	6891      	ldr	r1, [r2, #8]
      if ((huart->Init.WordLength == UART_WORDLENGTH_9B) && (huart->Init.Parity == UART_PARITY_NONE))
 8002276:	f5b3 5f80 	cmp.w	r3, #4096	; 0x1000
    SET_BIT(huart->Instance->CR3, USART_CR3_EIE);
 800227a:	f041 0101 	orr.w	r1, r1, #1
 800227e:	6091      	str	r1, [r2, #8]
      if ((huart->Init.WordLength == UART_WORDLENGTH_9B) && (huart->Init.Parity == UART_PARITY_NONE))
 8002280:	d11c      	bne.n	80022bc <HAL_UART_Receive_IT+0x94>
 8002282:	6903      	ldr	r3, [r0, #16]
 8002284:	b9d3      	cbnz	r3, 80022bc <HAL_UART_Receive_IT+0x94>
        huart->RxISR = UART_RxISR_16BIT;
 8002286:	4b10      	ldr	r3, [pc, #64]	; (80022c8 <HAL_UART_Receive_IT+0xa0>)
      SET_BIT(huart->Instance->CR1, USART_CR1_PEIE | USART_CR1_RXNEIE);
 8002288:	6811      	ldr	r1, [r2, #0]
        huart->RxISR = UART_RxISR_8BIT;
 800228a:	6603      	str	r3, [r0, #96]	; 0x60
      SET_BIT(huart->Instance->CR1, USART_CR1_PEIE | USART_CR1_RXNEIE);
 800228c:	f441 7190 	orr.w	r1, r1, #288	; 0x120
      __HAL_UNLOCK(huart);
 8002290:	2300      	movs	r3, #0
 8002292:	f880 3070 	strb.w	r3, [r0, #112]	; 0x70
      SET_BIT(huart->Instance->CR1, USART_CR1_PEIE | USART_CR1_RXNEIE);
 8002296:	6011      	str	r1, [r2, #0]
    return HAL_OK;
 8002298:	4618      	mov	r0, r3
 800229a:	4770      	bx	lr
    UART_MASK_COMPUTATION(huart);
 800229c:	22ff      	movs	r2, #255	; 0xff
 800229e:	e7e1      	b.n	8002264 <HAL_UART_Receive_IT+0x3c>
 80022a0:	b923      	cbnz	r3, 80022ac <HAL_UART_Receive_IT+0x84>
 80022a2:	6902      	ldr	r2, [r0, #16]
 80022a4:	2a00      	cmp	r2, #0
 80022a6:	d0f9      	beq.n	800229c <HAL_UART_Receive_IT+0x74>
 80022a8:	227f      	movs	r2, #127	; 0x7f
 80022aa:	e7db      	b.n	8002264 <HAL_UART_Receive_IT+0x3c>
 80022ac:	f1b3 5f80 	cmp.w	r3, #268435456	; 0x10000000
 80022b0:	d1da      	bne.n	8002268 <HAL_UART_Receive_IT+0x40>
 80022b2:	6902      	ldr	r2, [r0, #16]
 80022b4:	2a00      	cmp	r2, #0
 80022b6:	d0f7      	beq.n	80022a8 <HAL_UART_Receive_IT+0x80>
 80022b8:	223f      	movs	r2, #63	; 0x3f
 80022ba:	e7d3      	b.n	8002264 <HAL_UART_Receive_IT+0x3c>
        huart->RxISR = UART_RxISR_8BIT;
 80022bc:	4b03      	ldr	r3, [pc, #12]	; (80022cc <HAL_UART_Receive_IT+0xa4>)
 80022be:	e7e3      	b.n	8002288 <HAL_UART_Receive_IT+0x60>
      return HAL_ERROR;
 80022c0:	2001      	movs	r0, #1
 80022c2:	4770      	bx	lr
    return HAL_BUSY;
 80022c4:	2002      	movs	r0, #2
}
 80022c6:	4770      	bx	lr
 80022c8:	080023d9 	.word	0x080023d9
 80022cc:	08002383 	.word	0x08002383

080022d0 <HAL_UART_Transmit_DMA>:
{
 80022d0:	b538      	push	{r3, r4, r5, lr}
 80022d2:	4604      	mov	r4, r0
 80022d4:	4613      	mov	r3, r2
  if(huart->gState == HAL_UART_STATE_READY)
 80022d6:	f894 2071 	ldrb.w	r2, [r4, #113]	; 0x71
 80022da:	2a20      	cmp	r2, #32
 80022dc:	d12b      	bne.n	8002336 <HAL_UART_Transmit_DMA+0x66>
    if((pData == NULL ) || (Size == 0U))
 80022de:	b341      	cbz	r1, 8002332 <HAL_UART_Transmit_DMA+0x62>
 80022e0:	b33b      	cbz	r3, 8002332 <HAL_UART_Transmit_DMA+0x62>
    __HAL_LOCK(huart);
 80022e2:	f894 2070 	ldrb.w	r2, [r4, #112]	; 0x70
 80022e6:	2a01      	cmp	r2, #1
 80022e8:	d025      	beq.n	8002336 <HAL_UART_Transmit_DMA+0x66>
 80022ea:	2201      	movs	r2, #1
 80022ec:	f884 2070 	strb.w	r2, [r4, #112]	; 0x70
    huart->hdmatx->XferCpltCallback = UART_DMATransmitCplt;
 80022f0:	6ea0      	ldr	r0, [r4, #104]	; 0x68
    huart->TxXferCount = Size;
 80022f2:	f8a4 3052 	strh.w	r3, [r4, #82]	; 0x52
    huart->ErrorCode = HAL_UART_ERROR_NONE;
 80022f6:	2500      	movs	r5, #0
    huart->gState = HAL_UART_STATE_BUSY_TX;
 80022f8:	2221      	movs	r2, #33	; 0x21
    huart->ErrorCode = HAL_UART_ERROR_NONE;
 80022fa:	6765      	str	r5, [r4, #116]	; 0x74
    huart->gState = HAL_UART_STATE_BUSY_TX;
 80022fc:	f884 2071 	strb.w	r2, [r4, #113]	; 0x71
    huart->hdmatx->XferCpltCallback = UART_DMATransmitCplt;
 8002300:	4a0e      	ldr	r2, [pc, #56]	; (800233c <HAL_UART_Transmit_DMA+0x6c>)
    huart->TxXferSize  = Size;
 8002302:	f8a4 3050 	strh.w	r3, [r4, #80]	; 0x50
    huart->pTxBuffPtr  = pData;
 8002306:	64e1      	str	r1, [r4, #76]	; 0x4c
    huart->hdmatx->XferCpltCallback = UART_DMATransmitCplt;
 8002308:	62c2      	str	r2, [r0, #44]	; 0x2c
    huart->hdmatx->XferHalfCpltCallback = UART_DMATxHalfCplt;
 800230a:	4a0d      	ldr	r2, [pc, #52]	; (8002340 <HAL_UART_Transmit_DMA+0x70>)
 800230c:	6302      	str	r2, [r0, #48]	; 0x30
    huart->hdmatx->XferErrorCallback = UART_DMAError;
 800230e:	4a0d      	ldr	r2, [pc, #52]	; (8002344 <HAL_UART_Transmit_DMA+0x74>)
 8002310:	6342      	str	r2, [r0, #52]	; 0x34
    HAL_DMA_Start_IT(huart->hdmatx, (uint32_t)huart->pTxBuffPtr, (uint32_t)&huart->Instance->TDR, Size);
 8002312:	6822      	ldr	r2, [r4, #0]
    huart->hdmatx->XferAbortCallback = NULL;
 8002314:	6385      	str	r5, [r0, #56]	; 0x38
    HAL_DMA_Start_IT(huart->hdmatx, (uint32_t)huart->pTxBuffPtr, (uint32_t)&huart->Instance->TDR, Size);
 8002316:	3228      	adds	r2, #40	; 0x28
 8002318:	f7fe f9f8 	bl	800070c <HAL_DMA_Start_IT>
    __HAL_UART_CLEAR_FLAG(huart, UART_CLEAR_TCF);
 800231c:	6823      	ldr	r3, [r4, #0]
 800231e:	2240      	movs	r2, #64	; 0x40
 8002320:	621a      	str	r2, [r3, #32]
    SET_BIT(huart->Instance->CR3, USART_CR3_DMAT);
 8002322:	689a      	ldr	r2, [r3, #8]
    __HAL_UNLOCK(huart);
 8002324:	f884 5070 	strb.w	r5, [r4, #112]	; 0x70
    SET_BIT(huart->Instance->CR3, USART_CR3_DMAT);
 8002328:	f042 0280 	orr.w	r2, r2, #128	; 0x80
 800232c:	609a      	str	r2, [r3, #8]
    return HAL_OK;
 800232e:	4628      	mov	r0, r5
 8002330:	bd38      	pop	{r3, r4, r5, pc}
      return HAL_ERROR;
 8002332:	2001      	movs	r0, #1
 8002334:	bd38      	pop	{r3, r4, r5, pc}
    return HAL_BUSY;
 8002336:	2002      	movs	r0, #2
}
 8002338:	bd38      	pop	{r3, r4, r5, pc}
 800233a:	bf00      	nop
 800233c:	08002349 	.word	0x08002349
 8002340:	08002379 	.word	0x08002379
 8002344:	0800242f 	.word	0x0800242f

08002348 <UART_DMATransmitCplt>:
  * @brief DMA UART transmit process complete callback.
  * @param hdma DMA handle.
  * @retval None
  */
static void UART_DMATransmitCplt(DMA_HandleTypeDef *hdma)
{
 8002348:	b508      	push	{r3, lr}
  UART_HandleTypeDef* huart = (UART_HandleTypeDef*)(hdma->Parent);
  
  /* DMA Normal mode */
  if ( HAL_IS_BIT_CLR(hdma->Instance->CCR, DMA_CCR_CIRC) )
 800234a:	6803      	ldr	r3, [r0, #0]
  UART_HandleTypeDef* huart = (UART_HandleTypeDef*)(hdma->Parent);
 800234c:	6a82      	ldr	r2, [r0, #40]	; 0x28
  if ( HAL_IS_BIT_CLR(hdma->Instance->CCR, DMA_CCR_CIRC) )
 800234e:	681b      	ldr	r3, [r3, #0]
 8002350:	f013 0320 	ands.w	r3, r3, #32
 8002354:	d10b      	bne.n	800236e <UART_DMATransmitCplt+0x26>
  {  
    huart->TxXferCount = 0U;
 8002356:	f8a2 3052 	strh.w	r3, [r2, #82]	; 0x52
    
    /* Disable the DMA transfer for transmit request by resetting the DMAT bit
    in the UART CR3 register */
    CLEAR_BIT(huart->Instance->CR3, USART_CR3_DMAT);
 800235a:	6813      	ldr	r3, [r2, #0]
 800235c:	689a      	ldr	r2, [r3, #8]
 800235e:	f022 0280 	bic.w	r2, r2, #128	; 0x80
 8002362:	609a      	str	r2, [r3, #8]
    
    /* Enable the UART Transmit Complete Interrupt */
    SET_BIT(huart->Instance->CR1, USART_CR1_TCIE);
 8002364:	681a      	ldr	r2, [r3, #0]
 8002366:	f042 0240 	orr.w	r2, r2, #64	; 0x40
 800236a:	601a      	str	r2, [r3, #0]
 800236c:	bd08      	pop	{r3, pc}
  }
  /* DMA Circular mode */
  else
  {
    HAL_UART_TxCpltCallback(huart);
 800236e:	4610      	mov	r0, r2
 8002370:	f001 ff22 	bl	80041b8 <HAL_UART_TxCpltCallback>
 8002374:	bd08      	pop	{r3, pc}

08002376 <HAL_UART_TxHalfCpltCallback>:
 8002376:	4770      	bx	lr

08002378 <UART_DMATxHalfCplt>:
  * @brief DMA UART transmit process half complete callback.
  * @param hdma DMA handle.
  * @retval None
  */
static void UART_DMATxHalfCplt(DMA_HandleTypeDef *hdma)
{
 8002378:	b508      	push	{r3, lr}
  UART_HandleTypeDef* huart = (UART_HandleTypeDef*)(hdma->Parent);
  
  HAL_UART_TxHalfCpltCallback(huart);
 800237a:	6a80      	ldr	r0, [r0, #40]	; 0x28
 800237c:	f7ff fffb 	bl	8002376 <HAL_UART_TxHalfCpltCallback>
 8002380:	bd08      	pop	{r3, pc}

08002382 <UART_RxISR_8BIT>:
{
  uint16_t uhMask = huart->Mask;
  uint16_t  uhdata;
  
  /* Check that a Rx process is ongoing */
  if(huart->RxState == HAL_UART_STATE_BUSY_RX)
 8002382:	f890 2072 	ldrb.w	r2, [r0, #114]	; 0x72
 8002386:	2a22      	cmp	r2, #34	; 0x22
{
 8002388:	b538      	push	{r3, r4, r5, lr}
 800238a:	6802      	ldr	r2, [r0, #0]
  if(huart->RxState == HAL_UART_STATE_BUSY_RX)
 800238c:	d11e      	bne.n	80023cc <UART_RxISR_8BIT+0x4a>
  {
    uhdata = (uint16_t) READ_REG(huart->Instance->RDR);
 800238e:	8c92      	ldrh	r2, [r2, #36]	; 0x24
    *huart->pRxBuffPtr++ = (uint8_t)(uhdata & (uint8_t)uhMask);
 8002390:	6d44      	ldr	r4, [r0, #84]	; 0x54
  uint16_t uhMask = huart->Mask;
 8002392:	f8b0 105c 	ldrh.w	r1, [r0, #92]	; 0x5c
    *huart->pRxBuffPtr++ = (uint8_t)(uhdata & (uint8_t)uhMask);
 8002396:	1c65      	adds	r5, r4, #1
 8002398:	400a      	ands	r2, r1
 800239a:	6545      	str	r5, [r0, #84]	; 0x54
 800239c:	7022      	strb	r2, [r4, #0]
    
    if(--huart->RxXferCount == 0)
 800239e:	f8b0 205a 	ldrh.w	r2, [r0, #90]	; 0x5a
 80023a2:	3a01      	subs	r2, #1
 80023a4:	b292      	uxth	r2, r2
 80023a6:	f8a0 205a 	strh.w	r2, [r0, #90]	; 0x5a
 80023aa:	b9a2      	cbnz	r2, 80023d6 <UART_RxISR_8BIT+0x54>
    {
      /* Disable the UART Parity Error Interrupt and RXNE interrupt*/
#if defined(USART_CR1_FIFOEN)
      CLEAR_BIT(huart->Instance->CR1, (USART_CR1_RXNEIE_RXFNEIE | USART_CR1_PEIE));
#else
      CLEAR_BIT(huart->Instance->CR1, (USART_CR1_RXNEIE | USART_CR1_PEIE));
 80023ac:	6801      	ldr	r1, [r0, #0]
 80023ae:	680c      	ldr	r4, [r1, #0]
 80023b0:	f424 7490 	bic.w	r4, r4, #288	; 0x120
 80023b4:	600c      	str	r4, [r1, #0]
#endif
      
      /* Disable the UART Error Interrupt: (Frame error, noise error, overrun error) */
      CLEAR_BIT(huart->Instance->CR3, USART_CR3_EIE);
 80023b6:	688c      	ldr	r4, [r1, #8]
 80023b8:	f024 0401 	bic.w	r4, r4, #1
 80023bc:	608c      	str	r4, [r1, #8]
     
      /* Rx process is completed, restore huart->RxState to Ready */
      huart->RxState = HAL_UART_STATE_READY;
 80023be:	2120      	movs	r1, #32
 80023c0:	f880 1072 	strb.w	r1, [r0, #114]	; 0x72
      
      /* Clear RxISR function pointer */
      huart->RxISR = NULL;
 80023c4:	6602      	str	r2, [r0, #96]	; 0x60
      
      HAL_UART_RxCpltCallback(huart);
 80023c6:	f001 fd49 	bl	8003e5c <HAL_UART_RxCpltCallback>
 80023ca:	bd38      	pop	{r3, r4, r5, pc}
    }
  }
  else
  {
    /* Clear RXNE interrupt flag */
    __HAL_UART_SEND_REQ(huart, UART_RXDATA_FLUSH_REQUEST);
 80023cc:	8b13      	ldrh	r3, [r2, #24]
 80023ce:	b29b      	uxth	r3, r3
 80023d0:	f043 0308 	orr.w	r3, r3, #8
 80023d4:	8313      	strh	r3, [r2, #24]
 80023d6:	bd38      	pop	{r3, r4, r5, pc}

080023d8 <UART_RxISR_16BIT>:
  uint16_t* tmp;
  uint16_t uhMask = huart->Mask;
  uint16_t  uhdata;
  
  /* Check that a Rx process is ongoing */
  if(huart->RxState == HAL_UART_STATE_BUSY_RX)
 80023d8:	f890 2072 	ldrb.w	r2, [r0, #114]	; 0x72
 80023dc:	2a22      	cmp	r2, #34	; 0x22
{
 80023de:	b510      	push	{r4, lr}
 80023e0:	6802      	ldr	r2, [r0, #0]
  if(huart->RxState == HAL_UART_STATE_BUSY_RX)
 80023e2:	d11d      	bne.n	8002420 <UART_RxISR_16BIT+0x48>
  {
    uhdata = (uint16_t) READ_REG(huart->Instance->RDR);
 80023e4:	8c94      	ldrh	r4, [r2, #36]	; 0x24
    tmp = (uint16_t*) huart->pRxBuffPtr ;
    *tmp = (uint16_t)(uhdata & uhMask);
 80023e6:	f8b0 105c 	ldrh.w	r1, [r0, #92]	; 0x5c
 80023ea:	400c      	ands	r4, r1
 80023ec:	6d41      	ldr	r1, [r0, #84]	; 0x54
 80023ee:	f821 4b02 	strh.w	r4, [r1], #2
    huart->pRxBuffPtr +=2;
 80023f2:	6541      	str	r1, [r0, #84]	; 0x54
    
    if(--huart->RxXferCount == 0)
 80023f4:	f8b0 105a 	ldrh.w	r1, [r0, #90]	; 0x5a
 80023f8:	3901      	subs	r1, #1
 80023fa:	b289      	uxth	r1, r1
 80023fc:	f8a0 105a 	strh.w	r1, [r0, #90]	; 0x5a
 8002400:	b999      	cbnz	r1, 800242a <UART_RxISR_16BIT+0x52>
    {
      /* Disable the UART Parity Error Interrupt and RXNE interrupt*/
#if defined(USART_CR1_FIFOEN)
      CLEAR_BIT(huart->Instance->CR1, (USART_CR1_RXNEIE_RXFNEIE | USART_CR1_PEIE));
#else
      CLEAR_BIT(huart->Instance->CR1, (USART_CR1_RXNEIE | USART_CR1_PEIE));
 8002402:	6814      	ldr	r4, [r2, #0]
 8002404:	f424 7490 	bic.w	r4, r4, #288	; 0x120
 8002408:	6014      	str	r4, [r2, #0]
#endif
      
      /* Disable the UART Error Interrupt: (Frame error, noise error, overrun error) */
      CLEAR_BIT(huart->Instance->CR3, USART_CR3_EIE);
 800240a:	6894      	ldr	r4, [r2, #8]
 800240c:	f024 0401 	bic.w	r4, r4, #1
 8002410:	6094      	str	r4, [r2, #8]
      
      /* Rx process is completed, restore huart->RxState to Ready */
      huart->RxState = HAL_UART_STATE_READY;
 8002412:	2220      	movs	r2, #32
 8002414:	f880 2072 	strb.w	r2, [r0, #114]	; 0x72
      
      /* Clear RxISR function pointer */
      huart->RxISR = NULL;
 8002418:	6601      	str	r1, [r0, #96]	; 0x60

      HAL_UART_RxCpltCallback(huart);
 800241a:	f001 fd1f 	bl	8003e5c <HAL_UART_RxCpltCallback>
 800241e:	bd10      	pop	{r4, pc}
    }
  }
  else
  {
    /* Clear RXNE interrupt flag */
    __HAL_UART_SEND_REQ(huart, UART_RXDATA_FLUSH_REQUEST);
 8002420:	8b13      	ldrh	r3, [r2, #24]
 8002422:	b29b      	uxth	r3, r3
 8002424:	f043 0308 	orr.w	r3, r3, #8
 8002428:	8313      	strh	r3, [r2, #24]
 800242a:	bd10      	pop	{r4, pc}

0800242c <HAL_UART_ErrorCallback>:
 800242c:	4770      	bx	lr

0800242e <UART_DMAError>:
  UART_HandleTypeDef* huart = (UART_HandleTypeDef*)(hdma->Parent);
 800242e:	6a81      	ldr	r1, [r0, #40]	; 0x28
{
 8002430:	b508      	push	{r3, lr}
  if (  (huart->gState == HAL_UART_STATE_BUSY_TX)
 8002432:	f891 3071 	ldrb.w	r3, [r1, #113]	; 0x71
 8002436:	2b21      	cmp	r3, #33	; 0x21
 8002438:	d10d      	bne.n	8002456 <UART_DMAError+0x28>
      &&(HAL_IS_BIT_SET(huart->Instance->CR3, USART_CR3_DMAT)) )
 800243a:	680b      	ldr	r3, [r1, #0]
 800243c:	689a      	ldr	r2, [r3, #8]
 800243e:	0612      	lsls	r2, r2, #24
 8002440:	d509      	bpl.n	8002456 <UART_DMAError+0x28>
    huart->TxXferCount = 0U;
 8002442:	2200      	movs	r2, #0
 8002444:	f8a1 2052 	strh.w	r2, [r1, #82]	; 0x52
  CLEAR_BIT(huart->Instance->CR1, (USART_CR1_TXEIE | USART_CR1_TCIE));
 8002448:	681a      	ldr	r2, [r3, #0]
 800244a:	f022 02c0 	bic.w	r2, r2, #192	; 0xc0
 800244e:	601a      	str	r2, [r3, #0]
  huart->gState = HAL_UART_STATE_READY;
 8002450:	2320      	movs	r3, #32
 8002452:	f881 3071 	strb.w	r3, [r1, #113]	; 0x71
  if (  (huart->RxState == HAL_UART_STATE_BUSY_RX)
 8002456:	f891 3072 	ldrb.w	r3, [r1, #114]	; 0x72
 800245a:	2b22      	cmp	r3, #34	; 0x22
 800245c:	d109      	bne.n	8002472 <UART_DMAError+0x44>
      &&(HAL_IS_BIT_SET(huart->Instance->CR3, USART_CR3_DMAR)) )
 800245e:	680b      	ldr	r3, [r1, #0]
 8002460:	689b      	ldr	r3, [r3, #8]
 8002462:	065b      	lsls	r3, r3, #25
 8002464:	d505      	bpl.n	8002472 <UART_DMAError+0x44>
    huart->RxXferCount = 0U;
 8002466:	2300      	movs	r3, #0
 8002468:	f8a1 305a 	strh.w	r3, [r1, #90]	; 0x5a
    UART_EndRxTransfer(huart);
 800246c:	4608      	mov	r0, r1
 800246e:	f7ff fecb 	bl	8002208 <UART_EndRxTransfer>
  huart->ErrorCode |= HAL_UART_ERROR_DMA;
 8002472:	6f4b      	ldr	r3, [r1, #116]	; 0x74
 8002474:	f043 0310 	orr.w	r3, r3, #16
 8002478:	674b      	str	r3, [r1, #116]	; 0x74
  HAL_UART_ErrorCallback(huart);
 800247a:	4608      	mov	r0, r1
 800247c:	f7ff ffd6 	bl	800242c <HAL_UART_ErrorCallback>
 8002480:	bd08      	pop	{r3, pc}
	...

08002484 <HAL_UART_IRQHandler>:
  uint32_t isrflags   = READ_REG(huart->Instance->ISR);
 8002484:	6803      	ldr	r3, [r0, #0]
 8002486:	69da      	ldr	r2, [r3, #28]
  uint32_t cr1its     = READ_REG(huart->Instance->CR1);
 8002488:	6819      	ldr	r1, [r3, #0]
{
 800248a:	b570      	push	{r4, r5, r6, lr}
  if (errorflags == RESET)
 800248c:	0716      	lsls	r6, r2, #28
{
 800248e:	4604      	mov	r4, r0
  uint32_t cr3its     = READ_REG(huart->Instance->CR3);
 8002490:	689d      	ldr	r5, [r3, #8]
  if (errorflags == RESET)
 8002492:	d10a      	bne.n	80024aa <HAL_UART_IRQHandler+0x26>
    if(((isrflags & USART_ISR_RXNE) != RESET)
 8002494:	0696      	lsls	r6, r2, #26
 8002496:	d565      	bpl.n	8002564 <HAL_UART_IRQHandler+0xe0>
       && ((cr1its & USART_CR1_RXNEIE) != RESET))
 8002498:	068e      	lsls	r6, r1, #26
 800249a:	d563      	bpl.n	8002564 <HAL_UART_IRQHandler+0xe0>
      if (huart->RxISR != NULL) {huart->RxISR(huart);}
 800249c:	6e03      	ldr	r3, [r0, #96]	; 0x60
 800249e:	2b00      	cmp	r3, #0
 80024a0:	f000 8089 	beq.w	80025b6 <HAL_UART_IRQHandler+0x132>
}
 80024a4:	e8bd 4070 	ldmia.w	sp!, {r4, r5, r6, lr}
    if (huart->TxISR != NULL) {huart->TxISR(huart);}
 80024a8:	4718      	bx	r3
     && (   ((cr3its & USART_CR3_EIE) != RESET)
 80024aa:	f015 0001 	ands.w	r0, r5, #1
 80024ae:	d102      	bne.n	80024b6 <HAL_UART_IRQHandler+0x32>
         || ((cr1its & (USART_CR1_RXNEIE | USART_CR1_PEIE)) != RESET)) )
 80024b0:	f411 7f90 	tst.w	r1, #288	; 0x120
 80024b4:	d056      	beq.n	8002564 <HAL_UART_IRQHandler+0xe0>
    if(((isrflags & USART_ISR_PE) != RESET) && ((cr1its & USART_CR1_PEIE) != RESET))
 80024b6:	07d5      	lsls	r5, r2, #31
 80024b8:	d507      	bpl.n	80024ca <HAL_UART_IRQHandler+0x46>
 80024ba:	05ce      	lsls	r6, r1, #23
 80024bc:	d505      	bpl.n	80024ca <HAL_UART_IRQHandler+0x46>
      __HAL_UART_CLEAR_FLAG(huart, UART_CLEAR_PEF);
 80024be:	2501      	movs	r5, #1
 80024c0:	621d      	str	r5, [r3, #32]
      huart->ErrorCode |= HAL_UART_ERROR_PE;
 80024c2:	6f65      	ldr	r5, [r4, #116]	; 0x74
 80024c4:	f045 0501 	orr.w	r5, r5, #1
 80024c8:	6765      	str	r5, [r4, #116]	; 0x74
    if(((isrflags & USART_ISR_FE) != RESET) && ((cr3its & USART_CR3_EIE) != RESET))
 80024ca:	0795      	lsls	r5, r2, #30
 80024cc:	d506      	bpl.n	80024dc <HAL_UART_IRQHandler+0x58>
 80024ce:	b128      	cbz	r0, 80024dc <HAL_UART_IRQHandler+0x58>
      __HAL_UART_CLEAR_FLAG(huart, UART_CLEAR_FEF);
 80024d0:	2502      	movs	r5, #2
 80024d2:	621d      	str	r5, [r3, #32]
      huart->ErrorCode |= HAL_UART_ERROR_FE;
 80024d4:	6f65      	ldr	r5, [r4, #116]	; 0x74
 80024d6:	f045 0504 	orr.w	r5, r5, #4
 80024da:	6765      	str	r5, [r4, #116]	; 0x74
    if(((isrflags & USART_ISR_NE) != RESET) && ((cr3its & USART_CR3_EIE) != RESET))
 80024dc:	0756      	lsls	r6, r2, #29
 80024de:	d506      	bpl.n	80024ee <HAL_UART_IRQHandler+0x6a>
 80024e0:	b128      	cbz	r0, 80024ee <HAL_UART_IRQHandler+0x6a>
      __HAL_UART_CLEAR_FLAG(huart, UART_CLEAR_NEF);
 80024e2:	2504      	movs	r5, #4
 80024e4:	621d      	str	r5, [r3, #32]
      huart->ErrorCode |= HAL_UART_ERROR_NE;
 80024e6:	6f65      	ldr	r5, [r4, #116]	; 0x74
 80024e8:	f045 0502 	orr.w	r5, r5, #2
 80024ec:	6765      	str	r5, [r4, #116]	; 0x74
    if(   ((isrflags & USART_ISR_ORE) != RESET)
 80024ee:	0715      	lsls	r5, r2, #28
 80024f0:	d507      	bpl.n	8002502 <HAL_UART_IRQHandler+0x7e>
       &&(  ((cr1its & USART_CR1_RXNEIE) != RESET) ||
 80024f2:	068e      	lsls	r6, r1, #26
 80024f4:	d400      	bmi.n	80024f8 <HAL_UART_IRQHandler+0x74>
 80024f6:	b120      	cbz	r0, 8002502 <HAL_UART_IRQHandler+0x7e>
      __HAL_UART_CLEAR_FLAG(huart, UART_CLEAR_OREF);
 80024f8:	2008      	movs	r0, #8
 80024fa:	6218      	str	r0, [r3, #32]
      huart->ErrorCode |= HAL_UART_ERROR_ORE;
 80024fc:	6f63      	ldr	r3, [r4, #116]	; 0x74
 80024fe:	4303      	orrs	r3, r0
 8002500:	6763      	str	r3, [r4, #116]	; 0x74
    if(huart->ErrorCode != HAL_UART_ERROR_NONE)
 8002502:	6f63      	ldr	r3, [r4, #116]	; 0x74
 8002504:	2b00      	cmp	r3, #0
 8002506:	d056      	beq.n	80025b6 <HAL_UART_IRQHandler+0x132>
      if(((isrflags & USART_ISR_RXNE) != RESET)
 8002508:	0695      	lsls	r5, r2, #26
 800250a:	d505      	bpl.n	8002518 <HAL_UART_IRQHandler+0x94>
         && ((cr1its & USART_CR1_RXNEIE) != RESET))
 800250c:	0688      	lsls	r0, r1, #26
 800250e:	d503      	bpl.n	8002518 <HAL_UART_IRQHandler+0x94>
        if (huart->RxISR != NULL) {huart->RxISR(huart);}
 8002510:	6e23      	ldr	r3, [r4, #96]	; 0x60
 8002512:	b10b      	cbz	r3, 8002518 <HAL_UART_IRQHandler+0x94>
 8002514:	4620      	mov	r0, r4
 8002516:	4798      	blx	r3
      if (((huart->ErrorCode & HAL_UART_ERROR_ORE) != RESET) ||
 8002518:	6f63      	ldr	r3, [r4, #116]	; 0x74
 800251a:	0719      	lsls	r1, r3, #28
        UART_EndRxTransfer(huart);
 800251c:	4620      	mov	r0, r4
      if (((huart->ErrorCode & HAL_UART_ERROR_ORE) != RESET) ||
 800251e:	d404      	bmi.n	800252a <HAL_UART_IRQHandler+0xa6>
          (HAL_IS_BIT_SET(huart->Instance->CR3, USART_CR3_DMAR)))
 8002520:	6823      	ldr	r3, [r4, #0]
 8002522:	689d      	ldr	r5, [r3, #8]
      if (((huart->ErrorCode & HAL_UART_ERROR_ORE) != RESET) ||
 8002524:	f015 0540 	ands.w	r5, r5, #64	; 0x40
 8002528:	d018      	beq.n	800255c <HAL_UART_IRQHandler+0xd8>
        UART_EndRxTransfer(huart);
 800252a:	f7ff fe6d 	bl	8002208 <UART_EndRxTransfer>
        if (HAL_IS_BIT_SET(huart->Instance->CR3, USART_CR3_DMAR))
 800252e:	6823      	ldr	r3, [r4, #0]
 8002530:	689a      	ldr	r2, [r3, #8]
 8002532:	0652      	lsls	r2, r2, #25
 8002534:	d50e      	bpl.n	8002554 <HAL_UART_IRQHandler+0xd0>
          CLEAR_BIT(huart->Instance->CR3, USART_CR3_DMAR);
 8002536:	689a      	ldr	r2, [r3, #8]
          if(huart->hdmarx != NULL)
 8002538:	6ee0      	ldr	r0, [r4, #108]	; 0x6c
          CLEAR_BIT(huart->Instance->CR3, USART_CR3_DMAR);
 800253a:	f022 0240 	bic.w	r2, r2, #64	; 0x40
 800253e:	609a      	str	r2, [r3, #8]
          if(huart->hdmarx != NULL)
 8002540:	b140      	cbz	r0, 8002554 <HAL_UART_IRQHandler+0xd0>
            huart->hdmarx->XferAbortCallback = UART_DMAAbortOnError;
 8002542:	4b1d      	ldr	r3, [pc, #116]	; (80025b8 <HAL_UART_IRQHandler+0x134>)
 8002544:	6383      	str	r3, [r0, #56]	; 0x38
            if(HAL_DMA_Abort_IT(huart->hdmarx) != HAL_OK)
 8002546:	f7fe f91f 	bl	8000788 <HAL_DMA_Abort_IT>
 800254a:	2800      	cmp	r0, #0
 800254c:	d033      	beq.n	80025b6 <HAL_UART_IRQHandler+0x132>
              huart->hdmarx->XferAbortCallback(huart->hdmarx);
 800254e:	6ee0      	ldr	r0, [r4, #108]	; 0x6c
 8002550:	6b83      	ldr	r3, [r0, #56]	; 0x38
 8002552:	e7a7      	b.n	80024a4 <HAL_UART_IRQHandler+0x20>
            HAL_UART_ErrorCallback(huart);
 8002554:	4620      	mov	r0, r4
 8002556:	f7ff ff69 	bl	800242c <HAL_UART_ErrorCallback>
 800255a:	bd70      	pop	{r4, r5, r6, pc}
        HAL_UART_ErrorCallback(huart);
 800255c:	f7ff ff66 	bl	800242c <HAL_UART_ErrorCallback>
        huart->ErrorCode = HAL_UART_ERROR_NONE;
 8002560:	6765      	str	r5, [r4, #116]	; 0x74
 8002562:	bd70      	pop	{r4, r5, r6, pc}
  if(((isrflags & USART_ISR_WUF) != RESET) && ((cr3its & USART_CR3_WUFIE) != RESET))
 8002564:	02d6      	lsls	r6, r2, #11
 8002566:	d50e      	bpl.n	8002586 <HAL_UART_IRQHandler+0x102>
 8002568:	0268      	lsls	r0, r5, #9
 800256a:	d50c      	bpl.n	8002586 <HAL_UART_IRQHandler+0x102>
    __HAL_UART_CLEAR_FLAG(huart, UART_CLEAR_WUF);
 800256c:	f44f 1280 	mov.w	r2, #1048576	; 0x100000
 8002570:	621a      	str	r2, [r3, #32]
    huart->gState  = HAL_UART_STATE_READY;
 8002572:	2320      	movs	r3, #32
 8002574:	f884 3071 	strb.w	r3, [r4, #113]	; 0x71
    HAL_UARTEx_WakeupCallback(huart);
 8002578:	4620      	mov	r0, r4
    huart->RxState = HAL_UART_STATE_READY;
 800257a:	f884 3072 	strb.w	r3, [r4, #114]	; 0x72
}
 800257e:	e8bd 4070 	ldmia.w	sp!, {r4, r5, r6, lr}
    HAL_UARTEx_WakeupCallback(huart);
 8002582:	f000 ba30 	b.w	80029e6 <HAL_UARTEx_WakeupCallback>
  if(((isrflags & USART_ISR_TXE) != RESET)
 8002586:	0616      	lsls	r6, r2, #24
 8002588:	d505      	bpl.n	8002596 <HAL_UART_IRQHandler+0x112>
     && ((cr1its & USART_CR1_TXEIE) != RESET))
 800258a:	060d      	lsls	r5, r1, #24
 800258c:	d503      	bpl.n	8002596 <HAL_UART_IRQHandler+0x112>
    if (huart->TxISR != NULL) {huart->TxISR(huart);}
 800258e:	6e63      	ldr	r3, [r4, #100]	; 0x64
 8002590:	b18b      	cbz	r3, 80025b6 <HAL_UART_IRQHandler+0x132>
 8002592:	4620      	mov	r0, r4
 8002594:	e786      	b.n	80024a4 <HAL_UART_IRQHandler+0x20>
  if(((isrflags & USART_ISR_TC) != RESET) && ((cr1its & USART_CR1_TCIE) != RESET))
 8002596:	0650      	lsls	r0, r2, #25
 8002598:	d50d      	bpl.n	80025b6 <HAL_UART_IRQHandler+0x132>
 800259a:	064a      	lsls	r2, r1, #25
 800259c:	d50b      	bpl.n	80025b6 <HAL_UART_IRQHandler+0x132>
  CLEAR_BIT(huart->Instance->CR1, USART_CR1_TCIE);
 800259e:	681a      	ldr	r2, [r3, #0]
 80025a0:	f022 0240 	bic.w	r2, r2, #64	; 0x40
 80025a4:	601a      	str	r2, [r3, #0]
  huart->gState = HAL_UART_STATE_READY;
 80025a6:	2320      	movs	r3, #32
 80025a8:	f884 3071 	strb.w	r3, [r4, #113]	; 0x71
  huart->TxISR = NULL;
 80025ac:	2300      	movs	r3, #0
 80025ae:	6663      	str	r3, [r4, #100]	; 0x64
  HAL_UART_TxCpltCallback(huart);
 80025b0:	4620      	mov	r0, r4
 80025b2:	f001 fe01 	bl	80041b8 <HAL_UART_TxCpltCallback>
 80025b6:	bd70      	pop	{r4, r5, r6, pc}
 80025b8:	080025bd 	.word	0x080025bd

080025bc <UART_DMAAbortOnError>:
{
 80025bc:	b508      	push	{r3, lr}
  UART_HandleTypeDef* huart = (UART_HandleTypeDef*)(hdma->Parent);
 80025be:	6a80      	ldr	r0, [r0, #40]	; 0x28
  huart->RxXferCount = 0U;
 80025c0:	2300      	movs	r3, #0
 80025c2:	f8a0 305a 	strh.w	r3, [r0, #90]	; 0x5a
  huart->TxXferCount = 0U;
 80025c6:	f8a0 3052 	strh.w	r3, [r0, #82]	; 0x52
  HAL_UART_ErrorCallback(huart);
 80025ca:	f7ff ff2f 	bl	800242c <HAL_UART_ErrorCallback>
 80025ce:	bd08      	pop	{r3, pc}

080025d0 <UART_SetConfig>:
  if(UART_INSTANCE_LOWPOWER(huart))
 80025d0:	6802      	ldr	r2, [r0, #0]
  tmpreg = (uint32_t)huart->Init.WordLength | huart->Init.Parity | huart->Init.Mode | huart->Init.OverSampling ;
 80025d2:	69c1      	ldr	r1, [r0, #28]
{
 80025d4:	b5f8      	push	{r3, r4, r5, r6, r7, lr}
 80025d6:	4604      	mov	r4, r0
  tmpreg = (uint32_t)huart->Init.WordLength | huart->Init.Parity | huart->Init.Mode | huart->Init.OverSampling ;
 80025d8:	6883      	ldr	r3, [r0, #8]
 80025da:	6900      	ldr	r0, [r0, #16]
  MODIFY_REG(huart->Instance->CR1, USART_CR1_FIELDS, tmpreg);
 80025dc:	6815      	ldr	r5, [r2, #0]
  tmpreg = (uint32_t)huart->Init.WordLength | huart->Init.Parity | huart->Init.Mode | huart->Init.OverSampling ;
 80025de:	4303      	orrs	r3, r0
 80025e0:	6960      	ldr	r0, [r4, #20]
 80025e2:	4303      	orrs	r3, r0
  MODIFY_REG(huart->Instance->CR1, USART_CR1_FIELDS, tmpreg);
 80025e4:	4882      	ldr	r0, [pc, #520]	; (80027f0 <UART_SetConfig+0x220>)
  tmpreg = (uint32_t)huart->Init.WordLength | huart->Init.Parity | huart->Init.Mode | huart->Init.OverSampling ;
 80025e6:	430b      	orrs	r3, r1
  MODIFY_REG(huart->Instance->CR1, USART_CR1_FIELDS, tmpreg);
 80025e8:	4028      	ands	r0, r5
 80025ea:	4303      	orrs	r3, r0
 80025ec:	6013      	str	r3, [r2, #0]
  MODIFY_REG(huart->Instance->CR2, USART_CR2_STOP, huart->Init.StopBits);
 80025ee:	6853      	ldr	r3, [r2, #4]
 80025f0:	68e0      	ldr	r0, [r4, #12]
 80025f2:	f423 5340 	bic.w	r3, r3, #12288	; 0x3000
 80025f6:	4303      	orrs	r3, r0
 80025f8:	6053      	str	r3, [r2, #4]
  if (!(UART_INSTANCE_LOWPOWER(huart)))
 80025fa:	4b7e      	ldr	r3, [pc, #504]	; (80027f4 <UART_SetConfig+0x224>)
  tmpreg = (uint32_t)huart->Init.HwFlowCtl;
 80025fc:	69a0      	ldr	r0, [r4, #24]
  if (!(UART_INSTANCE_LOWPOWER(huart)))
 80025fe:	429a      	cmp	r2, r3
    tmpreg |= huart->Init.OneBitSampling;
 8002600:	bf1c      	itt	ne
 8002602:	6a23      	ldrne	r3, [r4, #32]
 8002604:	4318      	orrne	r0, r3
  MODIFY_REG(huart->Instance->CR3, USART_CR3_FIELDS, tmpreg);
 8002606:	6893      	ldr	r3, [r2, #8]
 8002608:	f423 6330 	bic.w	r3, r3, #2816	; 0xb00
 800260c:	4303      	orrs	r3, r0
 800260e:	6093      	str	r3, [r2, #8]
  UART_GETCLOCKSOURCE(huart, clocksource);
 8002610:	4b79      	ldr	r3, [pc, #484]	; (80027f8 <UART_SetConfig+0x228>)
 8002612:	429a      	cmp	r2, r3
 8002614:	d114      	bne.n	8002640 <UART_SetConfig+0x70>
 8002616:	f503 4358 	add.w	r3, r3, #55296	; 0xd800
 800261a:	4a78      	ldr	r2, [pc, #480]	; (80027fc <UART_SetConfig+0x22c>)
 800261c:	f8d3 3088 	ldr.w	r3, [r3, #136]	; 0x88
 8002620:	f003 0303 	and.w	r3, r3, #3
  else if (huart->Init.OverSampling == UART_OVERSAMPLING_8)
 8002624:	f5b1 4f00 	cmp.w	r1, #32768	; 0x8000
 8002628:	5cd3      	ldrb	r3, [r2, r3]
 800262a:	f040 80aa 	bne.w	8002782 <UART_SetConfig+0x1b2>
    switch (clocksource)
 800262e:	2b08      	cmp	r3, #8
 8002630:	d820      	bhi.n	8002674 <UART_SetConfig+0xa4>
 8002632:	e8df f003 	tbb	[pc, r3]
 8002636:	8f77      	.short	0x8f77
 8002638:	1f9b1f92 	.word	0x1f9b1f92
 800263c:	1f1f      	.short	0x1f1f
 800263e:	9e          	.byte	0x9e
 800263f:	00          	.byte	0x00
  UART_GETCLOCKSOURCE(huart, clocksource);
 8002640:	4b6f      	ldr	r3, [pc, #444]	; (8002800 <UART_SetConfig+0x230>)
 8002642:	429a      	cmp	r2, r3
 8002644:	d107      	bne.n	8002656 <UART_SetConfig+0x86>
 8002646:	f503 33e6 	add.w	r3, r3, #117760	; 0x1cc00
 800264a:	4a6e      	ldr	r2, [pc, #440]	; (8002804 <UART_SetConfig+0x234>)
 800264c:	f8d3 3088 	ldr.w	r3, [r3, #136]	; 0x88
 8002650:	f003 030c 	and.w	r3, r3, #12
 8002654:	e7e6      	b.n	8002624 <UART_SetConfig+0x54>
 8002656:	4b67      	ldr	r3, [pc, #412]	; (80027f4 <UART_SetConfig+0x224>)
 8002658:	429a      	cmp	r2, r3
 800265a:	f040 80c2 	bne.w	80027e2 <UART_SetConfig+0x212>
 800265e:	f503 33c8 	add.w	r3, r3, #102400	; 0x19000
 8002662:	f8d3 5088 	ldr.w	r5, [r3, #136]	; 0x88
 8002666:	f405 6540 	and.w	r5, r5, #3072	; 0xc00
 800266a:	f5b5 6f80 	cmp.w	r5, #1024	; 0x400
 800266e:	d02a      	beq.n	80026c6 <UART_SetConfig+0xf6>
 8002670:	d806      	bhi.n	8002680 <UART_SetConfig+0xb0>
 8002672:	b315      	cbz	r5, 80026ba <UART_SetConfig+0xea>
        ret = HAL_ERROR;
 8002674:	2201      	movs	r2, #1
  huart->RxISR = NULL;
 8002676:	2300      	movs	r3, #0
 8002678:	6623      	str	r3, [r4, #96]	; 0x60
  huart->TxISR = NULL;
 800267a:	6663      	str	r3, [r4, #100]	; 0x64
}
 800267c:	4610      	mov	r0, r2
 800267e:	bdf8      	pop	{r3, r4, r5, r6, r7, pc}
  UART_GETCLOCKSOURCE(huart, clocksource);
 8002680:	f5b5 6f00 	cmp.w	r5, #2048	; 0x800
 8002684:	d006      	beq.n	8002694 <UART_SetConfig+0xc4>
 8002686:	f5b5 6f40 	cmp.w	r5, #3072	; 0xc00
 800268a:	d1f3      	bne.n	8002674 <UART_SetConfig+0xa4>
      lpuart_ker_ck_pres = (uint32_t)LSE_VALUE;
 800268c:	f44f 4000 	mov.w	r0, #32768	; 0x8000
  UART_GETCLOCKSOURCE(huart, clocksource);
 8002690:	2508      	movs	r5, #8
 8002692:	e001      	b.n	8002698 <UART_SetConfig+0xc8>
      lpuart_ker_ck_pres = (uint32_t)HSI_VALUE;
 8002694:	485c      	ldr	r0, [pc, #368]	; (8002808 <UART_SetConfig+0x238>)
  UART_GETCLOCKSOURCE(huart, clocksource);
 8002696:	2502      	movs	r5, #2
      if ( (lpuart_ker_ck_pres < (3 * huart->Init.BaudRate) ) ||
 8002698:	6862      	ldr	r2, [r4, #4]
 800269a:	eb02 0342 	add.w	r3, r2, r2, lsl #1
 800269e:	4283      	cmp	r3, r0
 80026a0:	d8e8      	bhi.n	8002674 <UART_SetConfig+0xa4>
 80026a2:	ebb0 3f02 	cmp.w	r0, r2, lsl #12
 80026a6:	d8e5      	bhi.n	8002674 <UART_SetConfig+0xa4>
        switch (clocksource)
 80026a8:	2d08      	cmp	r5, #8
 80026aa:	d838      	bhi.n	800271e <UART_SetConfig+0x14e>
 80026ac:	e8df f005 	tbb	[pc, r5]
 80026b0:	3726370f 	.word	0x3726370f
 80026b4:	3737372e 	.word	0x3737372e
 80026b8:	31          	.byte	0x31
 80026b9:	00          	.byte	0x00
      lpuart_ker_ck_pres = HAL_RCC_GetPCLK1Freq();
 80026ba:	f7ff fa13 	bl	8001ae4 <HAL_RCC_GetPCLK1Freq>
    if (lpuart_ker_ck_pres != 0U)
 80026be:	2800      	cmp	r0, #0
 80026c0:	d1ea      	bne.n	8002698 <UART_SetConfig+0xc8>
 80026c2:	4602      	mov	r2, r0
 80026c4:	e7d7      	b.n	8002676 <UART_SetConfig+0xa6>
      lpuart_ker_ck_pres = HAL_RCC_GetSysClockFreq();
 80026c6:	f7fe fe8d 	bl	80013e4 <HAL_RCC_GetSysClockFreq>
      break;
 80026ca:	2504      	movs	r5, #4
 80026cc:	e7f7      	b.n	80026be <UART_SetConfig+0xee>
          usartdiv = (uint32_t)(UART_DIV_LPUART(HAL_RCC_GetPCLK1Freq(), huart->Init.BaudRate));
 80026ce:	f7ff fa09 	bl	8001ae4 <HAL_RCC_GetPCLK1Freq>
          usartdiv = (uint32_t)(UART_DIV_LPUART(HAL_RCC_GetSysClockFreq(), huart->Init.BaudRate));
 80026d2:	6862      	ldr	r2, [r4, #4]
 80026d4:	f44f 7180 	mov.w	r1, #256	; 0x100
 80026d8:	0856      	lsrs	r6, r2, #1
 80026da:	2700      	movs	r7, #0
 80026dc:	fbe1 6700 	umlal	r6, r7, r1, r0
 80026e0:	2300      	movs	r3, #0
 80026e2:	4630      	mov	r0, r6
 80026e4:	4639      	mov	r1, r7
          usartdiv = (uint32_t)(UART_DIV_LPUART(LSE_VALUE, huart->Init.BaudRate));
 80026e6:	f7fd fd71 	bl	80001cc <__aeabi_uldivmod>
          break;
 80026ea:	2200      	movs	r2, #0
        if ((usartdiv >= LPUART_BRR_MIN) && (usartdiv <= LPUART_BRR_MAX))
 80026ec:	4b47      	ldr	r3, [pc, #284]	; (800280c <UART_SetConfig+0x23c>)
 80026ee:	f5a0 7140 	sub.w	r1, r0, #768	; 0x300
 80026f2:	4299      	cmp	r1, r3
 80026f4:	d8be      	bhi.n	8002674 <UART_SetConfig+0xa4>
          huart->Instance->BRR = usartdiv;
 80026f6:	6823      	ldr	r3, [r4, #0]
 80026f8:	60d8      	str	r0, [r3, #12]
 80026fa:	e7bc      	b.n	8002676 <UART_SetConfig+0xa6>
          usartdiv = (uint32_t)(UART_DIV_LPUART(HSI_VALUE, huart->Init.BaudRate));
 80026fc:	4844      	ldr	r0, [pc, #272]	; (8002810 <UART_SetConfig+0x240>)
 80026fe:	0855      	lsrs	r5, r2, #1
 8002700:	2300      	movs	r3, #0
 8002702:	2100      	movs	r1, #0
 8002704:	1940      	adds	r0, r0, r5
          usartdiv = (uint32_t)(UART_DIV_LPUART(LSE_VALUE, huart->Init.BaudRate));
 8002706:	f141 0100 	adc.w	r1, r1, #0
 800270a:	e7ec      	b.n	80026e6 <UART_SetConfig+0x116>
          usartdiv = (uint32_t)(UART_DIV_LPUART(HAL_RCC_GetSysClockFreq(), huart->Init.BaudRate));
 800270c:	f7fe fe6a 	bl	80013e4 <HAL_RCC_GetSysClockFreq>
 8002710:	e7df      	b.n	80026d2 <UART_SetConfig+0x102>
          usartdiv = (uint32_t)(UART_DIV_LPUART(LSE_VALUE, huart->Init.BaudRate));
 8002712:	0850      	lsrs	r0, r2, #1
 8002714:	2100      	movs	r1, #0
 8002716:	2300      	movs	r3, #0
 8002718:	f510 0000 	adds.w	r0, r0, #8388608	; 0x800000
 800271c:	e7f3      	b.n	8002706 <UART_SetConfig+0x136>
          ret = HAL_ERROR;
 800271e:	2201      	movs	r2, #1
  uint32_t usartdiv                   = 0x00000000U;
 8002720:	2000      	movs	r0, #0
 8002722:	e7e3      	b.n	80026ec <UART_SetConfig+0x11c>
      usartdiv = (uint16_t)(UART_DIV_SAMPLING8(HAL_RCC_GetPCLK1Freq(), huart->Init.BaudRate));
 8002724:	f7ff f9de 	bl	8001ae4 <HAL_RCC_GetPCLK1Freq>
      usartdiv = (uint16_t)(UART_DIV_SAMPLING8(HAL_RCC_GetSysClockFreq(), huart->Init.BaudRate));
 8002728:	6861      	ldr	r1, [r4, #4]
 800272a:	084a      	lsrs	r2, r1, #1
 800272c:	eb02 0340 	add.w	r3, r2, r0, lsl #1
 8002730:	fbb3 f3f1 	udiv	r3, r3, r1
 8002734:	b29b      	uxth	r3, r3
  HAL_StatusTypeDef ret               = HAL_OK;
 8002736:	2200      	movs	r2, #0
    if ((usartdiv >= UART_BRR_MIN) && (usartdiv <= UART_BRR_MAX))
 8002738:	f1a3 0010 	sub.w	r0, r3, #16
 800273c:	f64f 71ef 	movw	r1, #65519	; 0xffef
 8002740:	4288      	cmp	r0, r1
 8002742:	d897      	bhi.n	8002674 <UART_SetConfig+0xa4>
      brrtemp = usartdiv & 0xFFF0U;
 8002744:	f023 010f 	bic.w	r1, r3, #15
      huart->Instance->BRR = brrtemp;
 8002748:	6820      	ldr	r0, [r4, #0]
      brrtemp |= (uint16_t)((usartdiv & (uint16_t)0x000FU) >> 1U);
 800274a:	f3c3 0342 	ubfx	r3, r3, #1, #3
      huart->Instance->BRR = brrtemp;
 800274e:	430b      	orrs	r3, r1
 8002750:	60c3      	str	r3, [r0, #12]
 8002752:	e790      	b.n	8002676 <UART_SetConfig+0xa6>
      usartdiv = (uint16_t)(UART_DIV_SAMPLING8(HAL_RCC_GetPCLK2Freq(), huart->Init.BaudRate));
 8002754:	f7ff f9d6 	bl	8001b04 <HAL_RCC_GetPCLK2Freq>
 8002758:	e7e6      	b.n	8002728 <UART_SetConfig+0x158>
      usartdiv = (uint16_t)(UART_DIV_SAMPLING8(HSI_VALUE, huart->Init.BaudRate));
 800275a:	6860      	ldr	r0, [r4, #4]
 800275c:	0843      	lsrs	r3, r0, #1
 800275e:	f103 73f4 	add.w	r3, r3, #31981568	; 0x1e80000
 8002762:	f503 4390 	add.w	r3, r3, #18432	; 0x4800
      usartdiv = (uint16_t)(UART_DIV_SAMPLING8(LSE_VALUE, huart->Init.BaudRate));
 8002766:	fbb3 f3f0 	udiv	r3, r3, r0
 800276a:	e7e3      	b.n	8002734 <UART_SetConfig+0x164>
      usartdiv = (uint16_t)(UART_DIV_SAMPLING8(HAL_RCC_GetSysClockFreq(), huart->Init.BaudRate));
 800276c:	f7fe fe3a 	bl	80013e4 <HAL_RCC_GetSysClockFreq>
 8002770:	e7da      	b.n	8002728 <UART_SetConfig+0x158>
      usartdiv = (uint16_t)(UART_DIV_SAMPLING8(LSE_VALUE, huart->Init.BaudRate));
 8002772:	6860      	ldr	r0, [r4, #4]
 8002774:	0843      	lsrs	r3, r0, #1
 8002776:	f503 3380 	add.w	r3, r3, #65536	; 0x10000
 800277a:	e7f4      	b.n	8002766 <UART_SetConfig+0x196>
      ret = HAL_ERROR;
 800277c:	2201      	movs	r2, #1
  uint32_t usartdiv                   = 0x00000000U;
 800277e:	2300      	movs	r3, #0
 8002780:	e7da      	b.n	8002738 <UART_SetConfig+0x168>
    switch (clocksource)
 8002782:	2b08      	cmp	r3, #8
 8002784:	d830      	bhi.n	80027e8 <UART_SetConfig+0x218>
 8002786:	e8df f003 	tbb	[pc, r3]
 800278a:	1805      	.short	0x1805
 800278c:	2f242f1b 	.word	0x2f242f1b
 8002790:	2f2f      	.short	0x2f2f
 8002792:	27          	.byte	0x27
 8002793:	00          	.byte	0x00
      usartdiv = (uint16_t)(UART_DIV_SAMPLING16(HAL_RCC_GetPCLK1Freq(), huart->Init.BaudRate));
 8002794:	f7ff f9a6 	bl	8001ae4 <HAL_RCC_GetPCLK1Freq>
      usartdiv = (uint16_t)(UART_DIV_SAMPLING16(HAL_RCC_GetPCLK2Freq(), huart->Init.BaudRate));
 8002798:	6862      	ldr	r2, [r4, #4]
 800279a:	eb00 0352 	add.w	r3, r0, r2, lsr #1
 800279e:	fbb3 f3f2 	udiv	r3, r3, r2
 80027a2:	b29b      	uxth	r3, r3
  HAL_StatusTypeDef ret               = HAL_OK;
 80027a4:	2200      	movs	r2, #0
    if ((usartdiv >= UART_BRR_MIN) && (usartdiv <= UART_BRR_MAX))
 80027a6:	f1a3 0010 	sub.w	r0, r3, #16
 80027aa:	f64f 71ef 	movw	r1, #65519	; 0xffef
 80027ae:	4288      	cmp	r0, r1
 80027b0:	f63f af60 	bhi.w	8002674 <UART_SetConfig+0xa4>
      huart->Instance->BRR = usartdiv;
 80027b4:	6821      	ldr	r1, [r4, #0]
 80027b6:	60cb      	str	r3, [r1, #12]
 80027b8:	e75d      	b.n	8002676 <UART_SetConfig+0xa6>
      usartdiv = (uint16_t)(UART_DIV_SAMPLING16(HAL_RCC_GetPCLK2Freq(), huart->Init.BaudRate));
 80027ba:	f7ff f9a3 	bl	8001b04 <HAL_RCC_GetPCLK2Freq>
 80027be:	e7eb      	b.n	8002798 <UART_SetConfig+0x1c8>
      usartdiv = (uint16_t)(UART_DIV_SAMPLING16(HSI_VALUE, huart->Init.BaudRate));
 80027c0:	6860      	ldr	r0, [r4, #4]
 80027c2:	0843      	lsrs	r3, r0, #1
 80027c4:	f503 0374 	add.w	r3, r3, #15990784	; 0xf40000
 80027c8:	f503 5310 	add.w	r3, r3, #9216	; 0x2400
      usartdiv = (uint16_t)(UART_DIV_SAMPLING16(LSE_VALUE, huart->Init.BaudRate));
 80027cc:	fbb3 f3f0 	udiv	r3, r3, r0
 80027d0:	e7e7      	b.n	80027a2 <UART_SetConfig+0x1d2>
      usartdiv = (uint16_t)(UART_DIV_SAMPLING16(HAL_RCC_GetSysClockFreq(), huart->Init.BaudRate));
 80027d2:	f7fe fe07 	bl	80013e4 <HAL_RCC_GetSysClockFreq>
 80027d6:	e7df      	b.n	8002798 <UART_SetConfig+0x1c8>
      usartdiv = (uint16_t)(UART_DIV_SAMPLING16(LSE_VALUE, huart->Init.BaudRate));
 80027d8:	6860      	ldr	r0, [r4, #4]
 80027da:	0843      	lsrs	r3, r0, #1
 80027dc:	f503 4300 	add.w	r3, r3, #32768	; 0x8000
 80027e0:	e7f4      	b.n	80027cc <UART_SetConfig+0x1fc>
  else if (huart->Init.OverSampling == UART_OVERSAMPLING_8)
 80027e2:	f5b1 4f00 	cmp.w	r1, #32768	; 0x8000
 80027e6:	d0c9      	beq.n	800277c <UART_SetConfig+0x1ac>
      ret = HAL_ERROR;
 80027e8:	2201      	movs	r2, #1
  uint32_t usartdiv                   = 0x00000000U;
 80027ea:	2300      	movs	r3, #0
 80027ec:	e7db      	b.n	80027a6 <UART_SetConfig+0x1d6>
 80027ee:	bf00      	nop
 80027f0:	efff69f3 	.word	0xefff69f3
 80027f4:	40008000 	.word	0x40008000
 80027f8:	40013800 	.word	0x40013800
 80027fc:	0800463c 	.word	0x0800463c
 8002800:	40004400 	.word	0x40004400
 8002804:	08004640 	.word	0x08004640
 8002808:	00f42400 	.word	0x00f42400
 800280c:	000ffcff 	.word	0x000ffcff
 8002810:	f4240000 	.word	0xf4240000

08002814 <UART_AdvFeatureConfig>:
  if(HAL_IS_BIT_SET(huart->AdvancedInit.AdvFeatureInit, UART_ADVFEATURE_TXINVERT_INIT))
 8002814:	6a43      	ldr	r3, [r0, #36]	; 0x24
 8002816:	07da      	lsls	r2, r3, #31
{
 8002818:	b510      	push	{r4, lr}
  if(HAL_IS_BIT_SET(huart->AdvancedInit.AdvFeatureInit, UART_ADVFEATURE_TXINVERT_INIT))
 800281a:	d506      	bpl.n	800282a <UART_AdvFeatureConfig+0x16>
    MODIFY_REG(huart->Instance->CR2, USART_CR2_TXINV, huart->AdvancedInit.TxPinLevelInvert);
 800281c:	6801      	ldr	r1, [r0, #0]
 800281e:	6a84      	ldr	r4, [r0, #40]	; 0x28
 8002820:	684a      	ldr	r2, [r1, #4]
 8002822:	f422 3200 	bic.w	r2, r2, #131072	; 0x20000
 8002826:	4322      	orrs	r2, r4
 8002828:	604a      	str	r2, [r1, #4]
  if(HAL_IS_BIT_SET(huart->AdvancedInit.AdvFeatureInit, UART_ADVFEATURE_RXINVERT_INIT))
 800282a:	079c      	lsls	r4, r3, #30
 800282c:	d506      	bpl.n	800283c <UART_AdvFeatureConfig+0x28>
    MODIFY_REG(huart->Instance->CR2, USART_CR2_RXINV, huart->AdvancedInit.RxPinLevelInvert);
 800282e:	6801      	ldr	r1, [r0, #0]
 8002830:	6ac4      	ldr	r4, [r0, #44]	; 0x2c
 8002832:	684a      	ldr	r2, [r1, #4]
 8002834:	f422 3280 	bic.w	r2, r2, #65536	; 0x10000
 8002838:	4322      	orrs	r2, r4
 800283a:	604a      	str	r2, [r1, #4]
  if(HAL_IS_BIT_SET(huart->AdvancedInit.AdvFeatureInit, UART_ADVFEATURE_DATAINVERT_INIT))
 800283c:	0759      	lsls	r1, r3, #29
 800283e:	d506      	bpl.n	800284e <UART_AdvFeatureConfig+0x3a>
    MODIFY_REG(huart->Instance->CR2, USART_CR2_DATAINV, huart->AdvancedInit.DataInvert);
 8002840:	6801      	ldr	r1, [r0, #0]
 8002842:	6b04      	ldr	r4, [r0, #48]	; 0x30
 8002844:	684a      	ldr	r2, [r1, #4]
 8002846:	f422 2280 	bic.w	r2, r2, #262144	; 0x40000
 800284a:	4322      	orrs	r2, r4
 800284c:	604a      	str	r2, [r1, #4]
  if(HAL_IS_BIT_SET(huart->AdvancedInit.AdvFeatureInit, UART_ADVFEATURE_SWAP_INIT))
 800284e:	071a      	lsls	r2, r3, #28
 8002850:	d506      	bpl.n	8002860 <UART_AdvFeatureConfig+0x4c>
    MODIFY_REG(huart->Instance->CR2, USART_CR2_SWAP, huart->AdvancedInit.Swap);
 8002852:	6801      	ldr	r1, [r0, #0]
 8002854:	6b44      	ldr	r4, [r0, #52]	; 0x34
 8002856:	684a      	ldr	r2, [r1, #4]
 8002858:	f422 4200 	bic.w	r2, r2, #32768	; 0x8000
 800285c:	4322      	orrs	r2, r4
 800285e:	604a      	str	r2, [r1, #4]
  if(HAL_IS_BIT_SET(huart->AdvancedInit.AdvFeatureInit, UART_ADVFEATURE_RXOVERRUNDISABLE_INIT))
 8002860:	06dc      	lsls	r4, r3, #27
 8002862:	d506      	bpl.n	8002872 <UART_AdvFeatureConfig+0x5e>
    MODIFY_REG(huart->Instance->CR3, USART_CR3_OVRDIS, huart->AdvancedInit.OverrunDisable);
 8002864:	6801      	ldr	r1, [r0, #0]
 8002866:	6b84      	ldr	r4, [r0, #56]	; 0x38
 8002868:	688a      	ldr	r2, [r1, #8]
 800286a:	f422 5280 	bic.w	r2, r2, #4096	; 0x1000
 800286e:	4322      	orrs	r2, r4
 8002870:	608a      	str	r2, [r1, #8]
  if(HAL_IS_BIT_SET(huart->AdvancedInit.AdvFeatureInit, UART_ADVFEATURE_DMADISABLEONERROR_INIT))
 8002872:	0699      	lsls	r1, r3, #26
 8002874:	d506      	bpl.n	8002884 <UART_AdvFeatureConfig+0x70>
    MODIFY_REG(huart->Instance->CR3, USART_CR3_DDRE, huart->AdvancedInit.DMADisableonRxError);
 8002876:	6801      	ldr	r1, [r0, #0]
 8002878:	6bc4      	ldr	r4, [r0, #60]	; 0x3c
 800287a:	688a      	ldr	r2, [r1, #8]
 800287c:	f422 5200 	bic.w	r2, r2, #8192	; 0x2000
 8002880:	4322      	orrs	r2, r4
 8002882:	608a      	str	r2, [r1, #8]
  if(HAL_IS_BIT_SET(huart->AdvancedInit.AdvFeatureInit, UART_ADVFEATURE_AUTOBAUDRATE_INIT))
 8002884:	065a      	lsls	r2, r3, #25
 8002886:	d50f      	bpl.n	80028a8 <UART_AdvFeatureConfig+0x94>
    MODIFY_REG(huart->Instance->CR2, USART_CR2_ABREN, huart->AdvancedInit.AutoBaudRateEnable);
 8002888:	6801      	ldr	r1, [r0, #0]
 800288a:	6c04      	ldr	r4, [r0, #64]	; 0x40
 800288c:	684a      	ldr	r2, [r1, #4]
 800288e:	f422 1280 	bic.w	r2, r2, #1048576	; 0x100000
 8002892:	4322      	orrs	r2, r4
    if(huart->AdvancedInit.AutoBaudRateEnable == UART_ADVFEATURE_AUTOBAUDRATE_ENABLE)
 8002894:	f5b4 1f80 	cmp.w	r4, #1048576	; 0x100000
    MODIFY_REG(huart->Instance->CR2, USART_CR2_ABREN, huart->AdvancedInit.AutoBaudRateEnable);
 8002898:	604a      	str	r2, [r1, #4]
    if(huart->AdvancedInit.AutoBaudRateEnable == UART_ADVFEATURE_AUTOBAUDRATE_ENABLE)
 800289a:	d105      	bne.n	80028a8 <UART_AdvFeatureConfig+0x94>
      MODIFY_REG(huart->Instance->CR2, USART_CR2_ABRMODE, huart->AdvancedInit.AutoBaudRateMode);
 800289c:	684a      	ldr	r2, [r1, #4]
 800289e:	6c44      	ldr	r4, [r0, #68]	; 0x44
 80028a0:	f422 02c0 	bic.w	r2, r2, #6291456	; 0x600000
 80028a4:	4322      	orrs	r2, r4
 80028a6:	604a      	str	r2, [r1, #4]
  if(HAL_IS_BIT_SET(huart->AdvancedInit.AdvFeatureInit, UART_ADVFEATURE_MSBFIRST_INIT))
 80028a8:	061b      	lsls	r3, r3, #24
 80028aa:	d506      	bpl.n	80028ba <UART_AdvFeatureConfig+0xa6>
    MODIFY_REG(huart->Instance->CR2, USART_CR2_MSBFIRST, huart->AdvancedInit.MSBFirst);
 80028ac:	6802      	ldr	r2, [r0, #0]
 80028ae:	6c81      	ldr	r1, [r0, #72]	; 0x48
 80028b0:	6853      	ldr	r3, [r2, #4]
 80028b2:	f423 2300 	bic.w	r3, r3, #524288	; 0x80000
 80028b6:	430b      	orrs	r3, r1
 80028b8:	6053      	str	r3, [r2, #4]
 80028ba:	bd10      	pop	{r4, pc}

080028bc <UART_WaitOnFlagUntilTimeout>:
{
 80028bc:	e92d 41f0 	stmdb	sp!, {r4, r5, r6, r7, r8, lr}
 80028c0:	9d06      	ldr	r5, [sp, #24]
 80028c2:	4604      	mov	r4, r0
 80028c4:	460f      	mov	r7, r1
 80028c6:	4616      	mov	r6, r2
 80028c8:	4698      	mov	r8, r3
  while((__HAL_UART_GET_FLAG(huart, Flag) ? SET : RESET) == Status)
 80028ca:	6821      	ldr	r1, [r4, #0]
 80028cc:	69ca      	ldr	r2, [r1, #28]
 80028ce:	ea37 0302 	bics.w	r3, r7, r2
 80028d2:	bf0c      	ite	eq
 80028d4:	2201      	moveq	r2, #1
 80028d6:	2200      	movne	r2, #0
 80028d8:	42b2      	cmp	r2, r6
 80028da:	d002      	beq.n	80028e2 <UART_WaitOnFlagUntilTimeout+0x26>
  return HAL_OK;
 80028dc:	2000      	movs	r0, #0
}
 80028de:	e8bd 81f0 	ldmia.w	sp!, {r4, r5, r6, r7, r8, pc}
    if(Timeout != HAL_MAX_DELAY)
 80028e2:	1c6b      	adds	r3, r5, #1
 80028e4:	d0f2      	beq.n	80028cc <UART_WaitOnFlagUntilTimeout+0x10>
      if((Timeout == 0U) || ((HAL_GetTick()-Tickstart) > Timeout))
 80028e6:	b99d      	cbnz	r5, 8002910 <UART_WaitOnFlagUntilTimeout+0x54>
        CLEAR_BIT(huart->Instance->CR1, (USART_CR1_RXNEIE | USART_CR1_PEIE | USART_CR1_TXEIE));
 80028e8:	6823      	ldr	r3, [r4, #0]
 80028ea:	681a      	ldr	r2, [r3, #0]
 80028ec:	f422 72d0 	bic.w	r2, r2, #416	; 0x1a0
 80028f0:	601a      	str	r2, [r3, #0]
        CLEAR_BIT(huart->Instance->CR3, USART_CR3_EIE);
 80028f2:	689a      	ldr	r2, [r3, #8]
 80028f4:	f022 0201 	bic.w	r2, r2, #1
 80028f8:	609a      	str	r2, [r3, #8]
        huart->gState = HAL_UART_STATE_READY;
 80028fa:	2320      	movs	r3, #32
 80028fc:	f884 3071 	strb.w	r3, [r4, #113]	; 0x71
        huart->RxState = HAL_UART_STATE_READY;
 8002900:	f884 3072 	strb.w	r3, [r4, #114]	; 0x72
        __HAL_UNLOCK(huart);
 8002904:	2300      	movs	r3, #0
 8002906:	f884 3070 	strb.w	r3, [r4, #112]	; 0x70
 800290a:	2003      	movs	r0, #3
 800290c:	e8bd 81f0 	ldmia.w	sp!, {r4, r5, r6, r7, r8, pc}
      if((Timeout == 0U) || ((HAL_GetTick()-Tickstart) > Timeout))
 8002910:	f7fd fe0c 	bl	800052c <HAL_GetTick>
 8002914:	eba0 0008 	sub.w	r0, r0, r8
 8002918:	4285      	cmp	r5, r0
 800291a:	d2d6      	bcs.n	80028ca <UART_WaitOnFlagUntilTimeout+0xe>
 800291c:	e7e4      	b.n	80028e8 <UART_WaitOnFlagUntilTimeout+0x2c>

0800291e <UART_CheckIdleState>:
{
 800291e:	b573      	push	{r0, r1, r4, r5, r6, lr}
 8002920:	4604      	mov	r4, r0
  huart->ErrorCode = HAL_UART_ERROR_NONE;
 8002922:	2600      	movs	r6, #0
 8002924:	6746      	str	r6, [r0, #116]	; 0x74
  tickstart = HAL_GetTick();
 8002926:	f7fd fe01 	bl	800052c <HAL_GetTick>
  if((huart->Instance->CR1 & USART_CR1_TE) == USART_CR1_TE)
 800292a:	6823      	ldr	r3, [r4, #0]
 800292c:	681b      	ldr	r3, [r3, #0]
 800292e:	071a      	lsls	r2, r3, #28
  tickstart = HAL_GetTick();
 8002930:	4605      	mov	r5, r0
  if((huart->Instance->CR1 & USART_CR1_TE) == USART_CR1_TE)
 8002932:	d417      	bmi.n	8002964 <UART_CheckIdleState+0x46>
  if((huart->Instance->CR1 & USART_CR1_RE) == USART_CR1_RE)
 8002934:	6823      	ldr	r3, [r4, #0]
 8002936:	681b      	ldr	r3, [r3, #0]
 8002938:	075b      	lsls	r3, r3, #29
 800293a:	d50a      	bpl.n	8002952 <UART_CheckIdleState+0x34>
    if(UART_WaitOnFlagUntilTimeout(huart, USART_ISR_REACK, RESET, tickstart, HAL_UART_TIMEOUT_VALUE) != HAL_OK)
 800293c:	f06f 437e 	mvn.w	r3, #4261412864	; 0xfe000000
 8002940:	9300      	str	r3, [sp, #0]
 8002942:	2200      	movs	r2, #0
 8002944:	462b      	mov	r3, r5
 8002946:	f44f 0180 	mov.w	r1, #4194304	; 0x400000
 800294a:	4620      	mov	r0, r4
 800294c:	f7ff ffb6 	bl	80028bc <UART_WaitOnFlagUntilTimeout>
 8002950:	b9a0      	cbnz	r0, 800297c <UART_CheckIdleState+0x5e>
  huart->gState= HAL_UART_STATE_READY;
 8002952:	2320      	movs	r3, #32
  __HAL_UNLOCK(huart);
 8002954:	2000      	movs	r0, #0
  huart->gState= HAL_UART_STATE_READY;
 8002956:	f884 3071 	strb.w	r3, [r4, #113]	; 0x71
  __HAL_UNLOCK(huart);
 800295a:	f884 0070 	strb.w	r0, [r4, #112]	; 0x70
  huart->RxState= HAL_UART_STATE_READY;
 800295e:	f884 3072 	strb.w	r3, [r4, #114]	; 0x72
  return HAL_OK;
 8002962:	e00c      	b.n	800297e <UART_CheckIdleState+0x60>
    if(UART_WaitOnFlagUntilTimeout(huart, USART_ISR_TEACK, RESET, tickstart, HAL_UART_TIMEOUT_VALUE) != HAL_OK)
 8002964:	f06f 437e 	mvn.w	r3, #4261412864	; 0xfe000000
 8002968:	9300      	str	r3, [sp, #0]
 800296a:	4632      	mov	r2, r6
 800296c:	4603      	mov	r3, r0
 800296e:	f44f 1100 	mov.w	r1, #2097152	; 0x200000
 8002972:	4620      	mov	r0, r4
 8002974:	f7ff ffa2 	bl	80028bc <UART_WaitOnFlagUntilTimeout>
 8002978:	2800      	cmp	r0, #0
 800297a:	d0db      	beq.n	8002934 <UART_CheckIdleState+0x16>
      return HAL_TIMEOUT;
 800297c:	2003      	movs	r0, #3
}
 800297e:	b002      	add	sp, #8
 8002980:	bd70      	pop	{r4, r5, r6, pc}

08002982 <HAL_UART_Init>:
{
 8002982:	b510      	push	{r4, lr}
  if(huart == NULL)
 8002984:	4604      	mov	r4, r0
 8002986:	b360      	cbz	r0, 80029e2 <HAL_UART_Init+0x60>
  if(huart->gState == HAL_UART_STATE_RESET)
 8002988:	f890 3071 	ldrb.w	r3, [r0, #113]	; 0x71
 800298c:	f003 02ff 	and.w	r2, r3, #255	; 0xff
 8002990:	b91b      	cbnz	r3, 800299a <HAL_UART_Init+0x18>
    huart->Lock = HAL_UNLOCKED;
 8002992:	f880 2070 	strb.w	r2, [r0, #112]	; 0x70
    HAL_UART_MspInit(huart);
 8002996:	f001 faf9 	bl	8003f8c <HAL_UART_MspInit>
  __HAL_UART_DISABLE(huart);
 800299a:	6822      	ldr	r2, [r4, #0]
  huart->gState = HAL_UART_STATE_BUSY;
 800299c:	2324      	movs	r3, #36	; 0x24
 800299e:	f884 3071 	strb.w	r3, [r4, #113]	; 0x71
  __HAL_UART_DISABLE(huart);
 80029a2:	6813      	ldr	r3, [r2, #0]
 80029a4:	f023 0301 	bic.w	r3, r3, #1
 80029a8:	6013      	str	r3, [r2, #0]
  if (UART_SetConfig(huart) == HAL_ERROR)
 80029aa:	4620      	mov	r0, r4
 80029ac:	f7ff fe10 	bl	80025d0 <UART_SetConfig>
 80029b0:	2801      	cmp	r0, #1
 80029b2:	d016      	beq.n	80029e2 <HAL_UART_Init+0x60>
  if (huart->AdvancedInit.AdvFeatureInit != UART_ADVFEATURE_NO_INIT)
 80029b4:	6a63      	ldr	r3, [r4, #36]	; 0x24
 80029b6:	b113      	cbz	r3, 80029be <HAL_UART_Init+0x3c>
    UART_AdvFeatureConfig(huart);
 80029b8:	4620      	mov	r0, r4
 80029ba:	f7ff ff2b 	bl	8002814 <UART_AdvFeatureConfig>
  CLEAR_BIT(huart->Instance->CR2, (USART_CR2_LINEN | USART_CR2_CLKEN));
 80029be:	6823      	ldr	r3, [r4, #0]
 80029c0:	685a      	ldr	r2, [r3, #4]
 80029c2:	f422 4290 	bic.w	r2, r2, #18432	; 0x4800
 80029c6:	605a      	str	r2, [r3, #4]
  CLEAR_BIT(huart->Instance->CR3, (USART_CR3_SCEN | USART_CR3_HDSEL | USART_CR3_IREN));
 80029c8:	689a      	ldr	r2, [r3, #8]
 80029ca:	f022 022a 	bic.w	r2, r2, #42	; 0x2a
 80029ce:	609a      	str	r2, [r3, #8]
  __HAL_UART_ENABLE(huart);
 80029d0:	681a      	ldr	r2, [r3, #0]
 80029d2:	f042 0201 	orr.w	r2, r2, #1
  return (UART_CheckIdleState(huart));
 80029d6:	4620      	mov	r0, r4
  __HAL_UART_ENABLE(huart);
 80029d8:	601a      	str	r2, [r3, #0]
}
 80029da:	e8bd 4010 	ldmia.w	sp!, {r4, lr}
  return (UART_CheckIdleState(huart));
 80029de:	f7ff bf9e 	b.w	800291e <UART_CheckIdleState>
}
 80029e2:	2001      	movs	r0, #1
 80029e4:	bd10      	pop	{r4, pc}

080029e6 <HAL_UARTEx_WakeupCallback>:
  * @brief UART wakeup from Stop mode callback.
  * @param huart UART handle.
  * @retval None
  */
 __weak void HAL_UARTEx_WakeupCallback(UART_HandleTypeDef *huart)
{
 80029e6:	4770      	bx	lr

080029e8 <USB_CoreInit>:
  * @param  cfg : pointer to a USB_CfgTypeDef structure that contains
  *         the configuration information for the specified USBx peripheral.
  * @retval HAL status
  */
HAL_StatusTypeDef USB_CoreInit(USB_TypeDef *USBx, USB_CfgTypeDef cfg)
{
 80029e8:	b084      	sub	sp, #16
 80029ea:	a801      	add	r0, sp, #4
 80029ec:	e880 000e 	stmia.w	r0, {r1, r2, r3}
  /* Prevent unused argument(s) compilation warning */
  UNUSED(USBx);
  UNUSED(cfg);

  return HAL_OK;
}
 80029f0:	b004      	add	sp, #16
 80029f2:	2000      	movs	r0, #0
 80029f4:	4770      	bx	lr

080029f6 <USB_EnableGlobalInt>:
  /* Set winterruptmask variable */
  winterruptmask = USB_CNTR_CTRM  | USB_CNTR_WKUPM | USB_CNTR_SUSPM | USB_CNTR_ERRM \
    | USB_CNTR_ESOFM | USB_CNTR_RESETM;
  
  /* Set interrupt mask */
  USBx->CNTR |= winterruptmask;
 80029f6:	f8b0 3040 	ldrh.w	r3, [r0, #64]	; 0x40
 80029fa:	b29b      	uxth	r3, r3
 80029fc:	f443 433d 	orr.w	r3, r3, #48384	; 0xbd00
 8002a00:	f8a0 3040 	strh.w	r3, [r0, #64]	; 0x40
  
  return HAL_OK;
}
 8002a04:	2000      	movs	r0, #0
 8002a06:	4770      	bx	lr

08002a08 <USB_DisableGlobalInt>:
  /* Set winterruptmask variable */
  winterruptmask = USB_CNTR_CTRM  | USB_CNTR_WKUPM | USB_CNTR_SUSPM | USB_CNTR_ERRM \
    | USB_CNTR_ESOFM | USB_CNTR_RESETM;
  
  /* Clear interrupt mask */
  USBx->CNTR &= ~winterruptmask;
 8002a08:	f8b0 3040 	ldrh.w	r3, [r0, #64]	; 0x40
 8002a0c:	f423 5374 	bic.w	r3, r3, #15616	; 0x3d00
 8002a10:	045b      	lsls	r3, r3, #17
 8002a12:	0c5b      	lsrs	r3, r3, #17
 8002a14:	f8a0 3040 	strh.w	r3, [r0, #64]	; 0x40
  
  return HAL_OK;
}
 8002a18:	2000      	movs	r0, #0
 8002a1a:	4770      	bx	lr

08002a1c <USB_SetCurrentMode>:
  /* Prevent unused argument(s) compilation warning */
  UNUSED(USBx);
  UNUSED(mode);

  return HAL_OK;
}
 8002a1c:	2000      	movs	r0, #0
 8002a1e:	4770      	bx	lr

08002a20 <USB_DevInit>:
  * @param  cfg  : pointer to a USB_CfgTypeDef structure that contains
  *         the configuration information for the specified USBx peripheral.
  * @retval HAL status
  */
HAL_StatusTypeDef USB_DevInit (USB_TypeDef *USBx, USB_CfgTypeDef cfg)
{
 8002a20:	b084      	sub	sp, #16
 8002a22:	b510      	push	{r4, lr}
 8002a24:	ac03      	add	r4, sp, #12
 8002a26:	e884 000e 	stmia.w	r4, {r1, r2, r3}
  
  /*Set Btable Address*/
  USBx->BTABLE = BTABLE_ADDRESS;
    
  return HAL_OK;
}
 8002a2a:	e8bd 4010 	ldmia.w	sp!, {r4, lr}
  USBx->CNTR = USB_CNTR_FRES;
 8002a2e:	2301      	movs	r3, #1
 8002a30:	f8a0 3040 	strh.w	r3, [r0, #64]	; 0x40
  USBx->CNTR = 0;
 8002a34:	2300      	movs	r3, #0
 8002a36:	f8a0 3040 	strh.w	r3, [r0, #64]	; 0x40
}
 8002a3a:	b004      	add	sp, #16
  USBx->ISTR = 0;
 8002a3c:	f8a0 3044 	strh.w	r3, [r0, #68]	; 0x44
  USBx->BTABLE = BTABLE_ADDRESS;
 8002a40:	f8a0 3050 	strh.w	r3, [r0, #80]	; 0x50
}
 8002a44:	4618      	mov	r0, r3
 8002a46:	4770      	bx	lr

08002a48 <USB_ActivateEndpoint>:
  * @param  USBx : Selected device
  * @param  ep: pointer to endpoint structure
  * @retval HAL status
  */
HAL_StatusTypeDef USB_ActivateEndpoint(USB_TypeDef *USBx, USB_EPTypeDef *ep)
{
 8002a48:	b570      	push	{r4, r5, r6, lr}
  /* initialize Endpoint */
  switch (ep->type)
 8002a4a:	78ca      	ldrb	r2, [r1, #3]
 8002a4c:	780b      	ldrb	r3, [r1, #0]
 8002a4e:	2a03      	cmp	r2, #3
 8002a50:	d810      	bhi.n	8002a74 <USB_ActivateEndpoint+0x2c>
 8002a52:	e8df f002 	tbb	[pc, r2]
 8002a56:	6702      	.short	0x6702
 8002a58:	5b51      	.short	0x5b51
  {
  case EP_TYPE_CTRL:
    PCD_SET_EPTYPE(USBx, ep->num, USB_EP_CONTROL);
 8002a5a:	b21b      	sxth	r3, r3
 8002a5c:	f830 2023 	ldrh.w	r2, [r0, r3, lsl #2]
 8002a60:	f422 42ec 	bic.w	r2, r2, #30208	; 0x7600
 8002a64:	f022 0270 	bic.w	r2, r2, #112	; 0x70
 8002a68:	0412      	lsls	r2, r2, #16
 8002a6a:	0c12      	lsrs	r2, r2, #16
 8002a6c:	f442 7200 	orr.w	r2, r2, #512	; 0x200
    break;
  case EP_TYPE_INTR:
    PCD_SET_EPTYPE(USBx, ep->num, USB_EP_INTERRUPT);
    break;
  case EP_TYPE_ISOC:
    PCD_SET_EPTYPE(USBx, ep->num, USB_EP_ISOCHRONOUS);
 8002a70:	f820 2023 	strh.w	r2, [r0, r3, lsl #2]
    break;
  default:
      break;
  } 
  
  PCD_SET_EP_ADDRESS(USBx, ep->num, ep->num);
 8002a74:	780c      	ldrb	r4, [r1, #0]
 8002a76:	b226      	sxth	r6, r4
 8002a78:	f640 720f 	movw	r2, #3855	; 0xf0f
 8002a7c:	f830 3026 	ldrh.w	r3, [r0, r6, lsl #2]
 8002a80:	f248 0580 	movw	r5, #32896	; 0x8080
 8002a84:	432c      	orrs	r4, r5
 8002a86:	4013      	ands	r3, r2
 8002a88:	4323      	orrs	r3, r4
 8002a8a:	f820 3026 	strh.w	r3, [r0, r6, lsl #2]
  
  if (ep->doublebuffer == 0) 
 8002a8e:	7a8c      	ldrb	r4, [r1, #10]
 8002a90:	780b      	ldrb	r3, [r1, #0]
 8002a92:	2c00      	cmp	r4, #0
 8002a94:	f040 8098 	bne.w	8002bc8 <USB_ActivateEndpoint+0x180>
  {
    if (ep->is_in)
 8002a98:	784e      	ldrb	r6, [r1, #1]
 8002a9a:	888d      	ldrh	r5, [r1, #4]
 8002a9c:	2408      	movs	r4, #8
 8002a9e:	2e00      	cmp	r6, #0
 8002aa0:	d04c      	beq.n	8002b3c <USB_ActivateEndpoint+0xf4>
    {
      /*Set the endpoint Transmit buffer address */
      PCD_SET_EP_TX_ADDRESS(USBx, ep->num, ep->pmaadress);
 8002aa2:	f8b0 6050 	ldrh.w	r6, [r0, #80]	; 0x50
 8002aa6:	b2b6      	uxth	r6, r6
 8002aa8:	fb14 6303 	smlabb	r3, r4, r3, r6
 8002aac:	4403      	add	r3, r0
 8002aae:	f025 0501 	bic.w	r5, r5, #1
 8002ab2:	f8a3 5400 	strh.w	r5, [r3, #1024]	; 0x400
      PCD_CLEAR_TX_DTOG(USBx, ep->num);
 8002ab6:	780c      	ldrb	r4, [r1, #0]
 8002ab8:	f830 3024 	ldrh.w	r3, [r0, r4, lsl #2]
 8002abc:	065b      	lsls	r3, r3, #25
 8002abe:	d508      	bpl.n	8002ad2 <USB_ActivateEndpoint+0x8a>
 8002ac0:	f830 3024 	ldrh.w	r3, [r0, r4, lsl #2]
 8002ac4:	401a      	ands	r2, r3
 8002ac6:	f442 4200 	orr.w	r2, r2, #32768	; 0x8000
 8002aca:	f042 02c0 	orr.w	r2, r2, #192	; 0xc0
 8002ace:	f820 2024 	strh.w	r2, [r0, r4, lsl #2]
      /* Configure NAK status for the Endpoint*/
      PCD_SET_EP_TX_STATUS(USBx, ep->num, USB_EP_TX_NAK); 
 8002ad2:	780a      	ldrb	r2, [r1, #0]
 8002ad4:	f830 3022 	ldrh.w	r3, [r0, r2, lsl #2]
 8002ad8:	f423 43e0 	bic.w	r3, r3, #28672	; 0x7000
 8002adc:	f023 0340 	bic.w	r3, r3, #64	; 0x40
 8002ae0:	041b      	lsls	r3, r3, #16
 8002ae2:	0c1b      	lsrs	r3, r3, #16
 8002ae4:	f083 0320 	eor.w	r3, r3, #32
      PCD_SET_EP_RX_ADDRESS(USBx, ep->num, ep->pmaadress);
      /*Set the endpoint Receive buffer counter*/
      PCD_SET_EP_RX_CNT(USBx, ep->num, ep->maxpacket);
      PCD_CLEAR_RX_DTOG(USBx, ep->num);
      /* Configure VALID status for the Endpoint*/
      PCD_SET_EP_RX_STATUS(USBx, ep->num, USB_EP_RX_VALID);
 8002ae8:	f443 4300 	orr.w	r3, r3, #32768	; 0x8000
 8002aec:	f043 0380 	orr.w	r3, r3, #128	; 0x80
 8002af0:	f820 3022 	strh.w	r3, [r0, r2, lsl #2]
      PCD_SET_EP_RX_STATUS(USBx, ep->num, USB_EP_RX_DIS);
    }
  }
  
  return HAL_OK;
}
 8002af4:	2000      	movs	r0, #0
 8002af6:	bd70      	pop	{r4, r5, r6, pc}
    PCD_SET_EPTYPE(USBx, ep->num, USB_EP_BULK);
 8002af8:	b21b      	sxth	r3, r3
 8002afa:	f830 2023 	ldrh.w	r2, [r0, r3, lsl #2]
 8002afe:	f422 42ec 	bic.w	r2, r2, #30208	; 0x7600
 8002b02:	f022 0270 	bic.w	r2, r2, #112	; 0x70
 8002b06:	0412      	lsls	r2, r2, #16
 8002b08:	0c12      	lsrs	r2, r2, #16
 8002b0a:	e7b1      	b.n	8002a70 <USB_ActivateEndpoint+0x28>
    PCD_SET_EPTYPE(USBx, ep->num, USB_EP_INTERRUPT);
 8002b0c:	b21b      	sxth	r3, r3
 8002b0e:	f830 2023 	ldrh.w	r2, [r0, r3, lsl #2]
 8002b12:	f422 42ec 	bic.w	r2, r2, #30208	; 0x7600
 8002b16:	f022 0270 	bic.w	r2, r2, #112	; 0x70
 8002b1a:	0412      	lsls	r2, r2, #16
 8002b1c:	0c12      	lsrs	r2, r2, #16
 8002b1e:	f442 62c0 	orr.w	r2, r2, #1536	; 0x600
 8002b22:	e7a5      	b.n	8002a70 <USB_ActivateEndpoint+0x28>
    PCD_SET_EPTYPE(USBx, ep->num, USB_EP_ISOCHRONOUS);
 8002b24:	b21b      	sxth	r3, r3
 8002b26:	f830 2023 	ldrh.w	r2, [r0, r3, lsl #2]
 8002b2a:	f422 42ec 	bic.w	r2, r2, #30208	; 0x7600
 8002b2e:	f022 0270 	bic.w	r2, r2, #112	; 0x70
 8002b32:	0412      	lsls	r2, r2, #16
 8002b34:	0c12      	lsrs	r2, r2, #16
 8002b36:	f442 6280 	orr.w	r2, r2, #1024	; 0x400
 8002b3a:	e799      	b.n	8002a70 <USB_ActivateEndpoint+0x28>
      PCD_SET_EP_RX_ADDRESS(USBx, ep->num, ep->pmaadress);
 8002b3c:	f8b0 2050 	ldrh.w	r2, [r0, #80]	; 0x50
 8002b40:	b292      	uxth	r2, r2
 8002b42:	fb14 2303 	smlabb	r3, r4, r3, r2
 8002b46:	4403      	add	r3, r0
 8002b48:	f025 0501 	bic.w	r5, r5, #1
 8002b4c:	f8a3 5404 	strh.w	r5, [r3, #1028]	; 0x404
      PCD_SET_EP_RX_CNT(USBx, ep->num, ep->maxpacket);
 8002b50:	f8b0 3050 	ldrh.w	r3, [r0, #80]	; 0x50
 8002b54:	780a      	ldrb	r2, [r1, #0]
 8002b56:	b29b      	uxth	r3, r3
 8002b58:	fb14 3302 	smlabb	r3, r4, r2, r3
 8002b5c:	690c      	ldr	r4, [r1, #16]
 8002b5e:	2c3e      	cmp	r4, #62	; 0x3e
 8002b60:	f200 4506 	addw	r5, r0, #1030	; 0x406
 8002b64:	d928      	bls.n	8002bb8 <USB_ActivateEndpoint+0x170>
 8002b66:	f3c4 124f 	ubfx	r2, r4, #5, #16
 8002b6a:	06e6      	lsls	r6, r4, #27
 8002b6c:	bf08      	it	eq
 8002b6e:	f102 32ff 	addeq.w	r2, r2, #4294967295
 8002b72:	4c6e      	ldr	r4, [pc, #440]	; (8002d2c <USB_ActivateEndpoint+0x2e4>)
 8002b74:	bf08      	it	eq
 8002b76:	b292      	uxtheq	r2, r2
 8002b78:	ea44 2282 	orr.w	r2, r4, r2, lsl #10
 8002b7c:	535a      	strh	r2, [r3, r5]
      PCD_CLEAR_RX_DTOG(USBx, ep->num);
 8002b7e:	780a      	ldrb	r2, [r1, #0]
 8002b80:	f830 3022 	ldrh.w	r3, [r0, r2, lsl #2]
 8002b84:	045b      	lsls	r3, r3, #17
 8002b86:	d50b      	bpl.n	8002ba0 <USB_ActivateEndpoint+0x158>
 8002b88:	f830 3022 	ldrh.w	r3, [r0, r2, lsl #2]
 8002b8c:	f023 03f0 	bic.w	r3, r3, #240	; 0xf0
 8002b90:	051b      	lsls	r3, r3, #20
 8002b92:	0d1b      	lsrs	r3, r3, #20
 8002b94:	f443 4340 	orr.w	r3, r3, #49152	; 0xc000
 8002b98:	f043 0380 	orr.w	r3, r3, #128	; 0x80
 8002b9c:	f820 3022 	strh.w	r3, [r0, r2, lsl #2]
      PCD_SET_EP_RX_STATUS(USBx, ep->num, USB_EP_RX_VALID);
 8002ba0:	780a      	ldrb	r2, [r1, #0]
 8002ba2:	f830 3022 	ldrh.w	r3, [r0, r2, lsl #2]
 8002ba6:	f423 4380 	bic.w	r3, r3, #16384	; 0x4000
 8002baa:	f023 0370 	bic.w	r3, r3, #112	; 0x70
 8002bae:	041b      	lsls	r3, r3, #16
 8002bb0:	0c1b      	lsrs	r3, r3, #16
 8002bb2:	f483 5340 	eor.w	r3, r3, #12288	; 0x3000
 8002bb6:	e797      	b.n	8002ae8 <USB_ActivateEndpoint+0xa0>
      PCD_SET_EP_RX_CNT(USBx, ep->num, ep->maxpacket);
 8002bb8:	f3c4 024f 	ubfx	r2, r4, #1, #16
 8002bbc:	07e4      	lsls	r4, r4, #31
 8002bbe:	bf44      	itt	mi
 8002bc0:	3201      	addmi	r2, #1
 8002bc2:	b292      	uxthmi	r2, r2
 8002bc4:	0292      	lsls	r2, r2, #10
 8002bc6:	e7d9      	b.n	8002b7c <USB_ActivateEndpoint+0x134>
    PCD_SET_EP_DBUF(USBx, ep->num);
 8002bc8:	b21b      	sxth	r3, r3
 8002bca:	f830 4023 	ldrh.w	r4, [r0, r3, lsl #2]
 8002bce:	b2a4      	uxth	r4, r4
 8002bd0:	f444 7480 	orr.w	r4, r4, #256	; 0x100
 8002bd4:	4014      	ands	r4, r2
 8002bd6:	432c      	orrs	r4, r5
 8002bd8:	f820 4023 	strh.w	r4, [r0, r3, lsl #2]
    PCD_SET_EP_DBUF_ADDR(USBx, ep->num,ep->pmaaddr0, ep->pmaaddr1);
 8002bdc:	f8b0 4050 	ldrh.w	r4, [r0, #80]	; 0x50
 8002be0:	b2a5      	uxth	r5, r4
 8002be2:	780c      	ldrb	r4, [r1, #0]
 8002be4:	2308      	movs	r3, #8
 8002be6:	fb13 5404 	smlabb	r4, r3, r4, r5
 8002bea:	88cd      	ldrh	r5, [r1, #6]
 8002bec:	4404      	add	r4, r0
 8002bee:	f025 0501 	bic.w	r5, r5, #1
 8002bf2:	f8a4 5400 	strh.w	r5, [r4, #1024]	; 0x400
 8002bf6:	f8b0 4050 	ldrh.w	r4, [r0, #80]	; 0x50
 8002bfa:	780d      	ldrb	r5, [r1, #0]
 8002bfc:	b2a4      	uxth	r4, r4
 8002bfe:	fb13 4305 	smlabb	r3, r3, r5, r4
 8002c02:	890c      	ldrh	r4, [r1, #8]
 8002c04:	4403      	add	r3, r0
 8002c06:	f024 0401 	bic.w	r4, r4, #1
 8002c0a:	f8a3 4404 	strh.w	r4, [r3, #1028]	; 0x404
 8002c0e:	780b      	ldrb	r3, [r1, #0]
    if (ep->is_in==0)
 8002c10:	784c      	ldrb	r4, [r1, #1]
      PCD_CLEAR_RX_DTOG(USBx, ep->num);
 8002c12:	b21b      	sxth	r3, r3
    if (ep->is_in==0)
 8002c14:	2c00      	cmp	r4, #0
 8002c16:	d147      	bne.n	8002ca8 <USB_ActivateEndpoint+0x260>
      PCD_CLEAR_RX_DTOG(USBx, ep->num);
 8002c18:	f830 4023 	ldrh.w	r4, [r0, r3, lsl #2]
 8002c1c:	0466      	lsls	r6, r4, #17
 8002c1e:	d508      	bpl.n	8002c32 <USB_ActivateEndpoint+0x1ea>
 8002c20:	f830 4023 	ldrh.w	r4, [r0, r3, lsl #2]
 8002c24:	4022      	ands	r2, r4
 8002c26:	f442 4240 	orr.w	r2, r2, #49152	; 0xc000
 8002c2a:	f042 0280 	orr.w	r2, r2, #128	; 0x80
 8002c2e:	f820 2023 	strh.w	r2, [r0, r3, lsl #2]
      PCD_CLEAR_TX_DTOG(USBx, ep->num);
 8002c32:	780a      	ldrb	r2, [r1, #0]
 8002c34:	f830 3022 	ldrh.w	r3, [r0, r2, lsl #2]
 8002c38:	065d      	lsls	r5, r3, #25
 8002c3a:	d50b      	bpl.n	8002c54 <USB_ActivateEndpoint+0x20c>
 8002c3c:	f830 3022 	ldrh.w	r3, [r0, r2, lsl #2]
 8002c40:	f023 03f0 	bic.w	r3, r3, #240	; 0xf0
 8002c44:	051b      	lsls	r3, r3, #20
 8002c46:	0d1b      	lsrs	r3, r3, #20
 8002c48:	f443 4300 	orr.w	r3, r3, #32768	; 0x8000
 8002c4c:	f043 03c0 	orr.w	r3, r3, #192	; 0xc0
 8002c50:	f820 3022 	strh.w	r3, [r0, r2, lsl #2]
      PCD_TX_DTOG(USBx, ep->num);
 8002c54:	780a      	ldrb	r2, [r1, #0]
 8002c56:	f830 3022 	ldrh.w	r3, [r0, r2, lsl #2]
 8002c5a:	f023 03f0 	bic.w	r3, r3, #240	; 0xf0
 8002c5e:	051b      	lsls	r3, r3, #20
 8002c60:	0d1b      	lsrs	r3, r3, #20
 8002c62:	f443 4300 	orr.w	r3, r3, #32768	; 0x8000
 8002c66:	f043 03c0 	orr.w	r3, r3, #192	; 0xc0
 8002c6a:	f820 3022 	strh.w	r3, [r0, r2, lsl #2]
      PCD_SET_EP_RX_STATUS(USBx, ep->num, USB_EP_RX_VALID);
 8002c6e:	780c      	ldrb	r4, [r1, #0]
 8002c70:	f830 3024 	ldrh.w	r3, [r0, r4, lsl #2]
 8002c74:	f423 4380 	bic.w	r3, r3, #16384	; 0x4000
 8002c78:	f023 0370 	bic.w	r3, r3, #112	; 0x70
 8002c7c:	041b      	lsls	r3, r3, #16
 8002c7e:	0c1b      	lsrs	r3, r3, #16
 8002c80:	f483 5340 	eor.w	r3, r3, #12288	; 0x3000
 8002c84:	f248 0280 	movw	r2, #32896	; 0x8080
 8002c88:	4313      	orrs	r3, r2
 8002c8a:	f820 3024 	strh.w	r3, [r0, r4, lsl #2]
      PCD_SET_EP_TX_STATUS(USBx, ep->num, USB_EP_TX_DIS);
 8002c8e:	7809      	ldrb	r1, [r1, #0]
 8002c90:	f830 3021 	ldrh.w	r3, [r0, r1, lsl #2]
 8002c94:	f423 43e0 	bic.w	r3, r3, #28672	; 0x7000
 8002c98:	f023 0340 	bic.w	r3, r3, #64	; 0x40
      PCD_SET_EP_RX_STATUS(USBx, ep->num, USB_EP_RX_DIS);
 8002c9c:	041b      	lsls	r3, r3, #16
 8002c9e:	0c1b      	lsrs	r3, r3, #16
 8002ca0:	4313      	orrs	r3, r2
 8002ca2:	f820 3021 	strh.w	r3, [r0, r1, lsl #2]
 8002ca6:	e725      	b.n	8002af4 <USB_ActivateEndpoint+0xac>
      PCD_CLEAR_RX_DTOG(USBx, ep->num);
 8002ca8:	f830 4023 	ldrh.w	r4, [r0, r3, lsl #2]
 8002cac:	0464      	lsls	r4, r4, #17
 8002cae:	d508      	bpl.n	8002cc2 <USB_ActivateEndpoint+0x27a>
 8002cb0:	f830 4023 	ldrh.w	r4, [r0, r3, lsl #2]
 8002cb4:	4022      	ands	r2, r4
 8002cb6:	f442 4240 	orr.w	r2, r2, #49152	; 0xc000
 8002cba:	f042 0280 	orr.w	r2, r2, #128	; 0x80
 8002cbe:	f820 2023 	strh.w	r2, [r0, r3, lsl #2]
      PCD_CLEAR_TX_DTOG(USBx, ep->num);
 8002cc2:	780a      	ldrb	r2, [r1, #0]
 8002cc4:	f830 3022 	ldrh.w	r3, [r0, r2, lsl #2]
 8002cc8:	065b      	lsls	r3, r3, #25
 8002cca:	d50b      	bpl.n	8002ce4 <USB_ActivateEndpoint+0x29c>
 8002ccc:	f830 3022 	ldrh.w	r3, [r0, r2, lsl #2]
 8002cd0:	f023 03f0 	bic.w	r3, r3, #240	; 0xf0
 8002cd4:	051b      	lsls	r3, r3, #20
 8002cd6:	0d1b      	lsrs	r3, r3, #20
 8002cd8:	f443 4300 	orr.w	r3, r3, #32768	; 0x8000
 8002cdc:	f043 03c0 	orr.w	r3, r3, #192	; 0xc0
 8002ce0:	f820 3022 	strh.w	r3, [r0, r2, lsl #2]
      PCD_RX_DTOG(USBx, ep->num);
 8002ce4:	780a      	ldrb	r2, [r1, #0]
 8002ce6:	f830 3022 	ldrh.w	r3, [r0, r2, lsl #2]
 8002cea:	f023 03f0 	bic.w	r3, r3, #240	; 0xf0
 8002cee:	051b      	lsls	r3, r3, #20
 8002cf0:	0d1b      	lsrs	r3, r3, #20
 8002cf2:	f443 4340 	orr.w	r3, r3, #49152	; 0xc000
 8002cf6:	f043 0380 	orr.w	r3, r3, #128	; 0x80
 8002cfa:	f820 3022 	strh.w	r3, [r0, r2, lsl #2]
      PCD_SET_EP_TX_STATUS(USBx, ep->num, USB_EP_TX_DIS);
 8002cfe:	780c      	ldrb	r4, [r1, #0]
 8002d00:	f830 3024 	ldrh.w	r3, [r0, r4, lsl #2]
 8002d04:	f423 43e0 	bic.w	r3, r3, #28672	; 0x7000
 8002d08:	f023 0340 	bic.w	r3, r3, #64	; 0x40
 8002d0c:	041b      	lsls	r3, r3, #16
 8002d0e:	0c1b      	lsrs	r3, r3, #16
 8002d10:	f248 0280 	movw	r2, #32896	; 0x8080
 8002d14:	4313      	orrs	r3, r2
 8002d16:	f820 3024 	strh.w	r3, [r0, r4, lsl #2]
      PCD_SET_EP_RX_STATUS(USBx, ep->num, USB_EP_RX_DIS);
 8002d1a:	7809      	ldrb	r1, [r1, #0]
 8002d1c:	f830 3021 	ldrh.w	r3, [r0, r1, lsl #2]
 8002d20:	f423 4380 	bic.w	r3, r3, #16384	; 0x4000
 8002d24:	f023 0370 	bic.w	r3, r3, #112	; 0x70
 8002d28:	e7b8      	b.n	8002c9c <USB_ActivateEndpoint+0x254>
 8002d2a:	bf00      	nop
 8002d2c:	ffff8000 	.word	0xffff8000

08002d30 <USB_DeactivateEndpoint>:
  * @param  USBx : Selected device
  * @param  ep: pointer to endpoint structure
  * @retval HAL status
  */
HAL_StatusTypeDef USB_DeactivateEndpoint(USB_TypeDef *USBx, USB_EPTypeDef *ep)
{
 8002d30:	b510      	push	{r4, lr}
 8002d32:	780b      	ldrb	r3, [r1, #0]
  if (ep->doublebuffer == 0) 
 8002d34:	7a8c      	ldrb	r4, [r1, #10]
 8002d36:	784a      	ldrb	r2, [r1, #1]
  {
    if (ep->is_in)
    {
      PCD_CLEAR_TX_DTOG(USBx, ep->num);
 8002d38:	b21b      	sxth	r3, r3
  if (ep->doublebuffer == 0) 
 8002d3a:	bbcc      	cbnz	r4, 8002db0 <USB_DeactivateEndpoint+0x80>
    if (ep->is_in)
 8002d3c:	b302      	cbz	r2, 8002d80 <USB_DeactivateEndpoint+0x50>
      PCD_CLEAR_TX_DTOG(USBx, ep->num);
 8002d3e:	f830 2023 	ldrh.w	r2, [r0, r3, lsl #2]
 8002d42:	0652      	lsls	r2, r2, #25
 8002d44:	d50b      	bpl.n	8002d5e <USB_DeactivateEndpoint+0x2e>
 8002d46:	f830 2023 	ldrh.w	r2, [r0, r3, lsl #2]
 8002d4a:	f022 02f0 	bic.w	r2, r2, #240	; 0xf0
 8002d4e:	0512      	lsls	r2, r2, #20
 8002d50:	0d12      	lsrs	r2, r2, #20
 8002d52:	f442 4200 	orr.w	r2, r2, #32768	; 0x8000
 8002d56:	f042 02c0 	orr.w	r2, r2, #192	; 0xc0
 8002d5a:	f820 2023 	strh.w	r2, [r0, r3, lsl #2]
      /* Configure DISABLE status for the Endpoint*/
      PCD_SET_EP_TX_STATUS(USBx, ep->num, USB_EP_TX_DIS); 
 8002d5e:	780a      	ldrb	r2, [r1, #0]
 8002d60:	f830 3022 	ldrh.w	r3, [r0, r2, lsl #2]
 8002d64:	f423 43e0 	bic.w	r3, r3, #28672	; 0x7000
 8002d68:	f023 0340 	bic.w	r3, r3, #64	; 0x40
    }
    else
    {
      PCD_CLEAR_RX_DTOG(USBx, ep->num);
      /* Configure DISABLE status for the Endpoint*/
      PCD_SET_EP_RX_STATUS(USBx, ep->num, USB_EP_RX_DIS);
 8002d6c:	041b      	lsls	r3, r3, #16
 8002d6e:	0c1b      	lsrs	r3, r3, #16
 8002d70:	f443 4300 	orr.w	r3, r3, #32768	; 0x8000
 8002d74:	f043 0380 	orr.w	r3, r3, #128	; 0x80
 8002d78:	f820 3022 	strh.w	r3, [r0, r2, lsl #2]
      PCD_SET_EP_RX_STATUS(USBx, ep->num, USB_EP_RX_DIS);
    }
  }
  
  return HAL_OK;
}
 8002d7c:	2000      	movs	r0, #0
 8002d7e:	bd10      	pop	{r4, pc}
      PCD_CLEAR_RX_DTOG(USBx, ep->num);
 8002d80:	f830 2023 	ldrh.w	r2, [r0, r3, lsl #2]
 8002d84:	0454      	lsls	r4, r2, #17
 8002d86:	d50b      	bpl.n	8002da0 <USB_DeactivateEndpoint+0x70>
 8002d88:	f830 2023 	ldrh.w	r2, [r0, r3, lsl #2]
 8002d8c:	f022 02f0 	bic.w	r2, r2, #240	; 0xf0
 8002d90:	0512      	lsls	r2, r2, #20
 8002d92:	0d12      	lsrs	r2, r2, #20
 8002d94:	f442 4240 	orr.w	r2, r2, #49152	; 0xc000
 8002d98:	f042 0280 	orr.w	r2, r2, #128	; 0x80
 8002d9c:	f820 2023 	strh.w	r2, [r0, r3, lsl #2]
      PCD_SET_EP_RX_STATUS(USBx, ep->num, USB_EP_RX_DIS);
 8002da0:	780a      	ldrb	r2, [r1, #0]
 8002da2:	f830 3022 	ldrh.w	r3, [r0, r2, lsl #2]
 8002da6:	f423 4380 	bic.w	r3, r3, #16384	; 0x4000
 8002daa:	f023 0370 	bic.w	r3, r3, #112	; 0x70
 8002dae:	e7dd      	b.n	8002d6c <USB_DeactivateEndpoint+0x3c>
    if (ep->is_in==0)
 8002db0:	2a00      	cmp	r2, #0
 8002db2:	d148      	bne.n	8002e46 <USB_DeactivateEndpoint+0x116>
      PCD_CLEAR_RX_DTOG(USBx, ep->num);
 8002db4:	f830 2023 	ldrh.w	r2, [r0, r3, lsl #2]
 8002db8:	0452      	lsls	r2, r2, #17
 8002dba:	d50b      	bpl.n	8002dd4 <USB_DeactivateEndpoint+0xa4>
 8002dbc:	f830 2023 	ldrh.w	r2, [r0, r3, lsl #2]
 8002dc0:	f022 02f0 	bic.w	r2, r2, #240	; 0xf0
 8002dc4:	0512      	lsls	r2, r2, #20
 8002dc6:	0d12      	lsrs	r2, r2, #20
 8002dc8:	f442 4240 	orr.w	r2, r2, #49152	; 0xc000
 8002dcc:	f042 0280 	orr.w	r2, r2, #128	; 0x80
 8002dd0:	f820 2023 	strh.w	r2, [r0, r3, lsl #2]
      PCD_CLEAR_TX_DTOG(USBx, ep->num);
 8002dd4:	780a      	ldrb	r2, [r1, #0]
 8002dd6:	f830 3022 	ldrh.w	r3, [r0, r2, lsl #2]
 8002dda:	065c      	lsls	r4, r3, #25
 8002ddc:	d50b      	bpl.n	8002df6 <USB_DeactivateEndpoint+0xc6>
 8002dde:	f830 3022 	ldrh.w	r3, [r0, r2, lsl #2]
 8002de2:	f023 03f0 	bic.w	r3, r3, #240	; 0xf0
 8002de6:	051b      	lsls	r3, r3, #20
 8002de8:	0d1b      	lsrs	r3, r3, #20
 8002dea:	f443 4300 	orr.w	r3, r3, #32768	; 0x8000
 8002dee:	f043 03c0 	orr.w	r3, r3, #192	; 0xc0
 8002df2:	f820 3022 	strh.w	r3, [r0, r2, lsl #2]
      PCD_TX_DTOG(USBx, ep->num);
 8002df6:	780a      	ldrb	r2, [r1, #0]
 8002df8:	f830 3022 	ldrh.w	r3, [r0, r2, lsl #2]
 8002dfc:	f023 03f0 	bic.w	r3, r3, #240	; 0xf0
 8002e00:	051b      	lsls	r3, r3, #20
 8002e02:	0d1b      	lsrs	r3, r3, #20
 8002e04:	f443 4300 	orr.w	r3, r3, #32768	; 0x8000
 8002e08:	f043 03c0 	orr.w	r3, r3, #192	; 0xc0
 8002e0c:	f820 3022 	strh.w	r3, [r0, r2, lsl #2]
      PCD_SET_EP_RX_STATUS(USBx, ep->num, USB_EP_RX_DIS);
 8002e10:	780c      	ldrb	r4, [r1, #0]
 8002e12:	f830 3024 	ldrh.w	r3, [r0, r4, lsl #2]
 8002e16:	f423 4380 	bic.w	r3, r3, #16384	; 0x4000
 8002e1a:	f023 0370 	bic.w	r3, r3, #112	; 0x70
 8002e1e:	041b      	lsls	r3, r3, #16
 8002e20:	0c1b      	lsrs	r3, r3, #16
 8002e22:	f248 0280 	movw	r2, #32896	; 0x8080
 8002e26:	4313      	orrs	r3, r2
 8002e28:	f820 3024 	strh.w	r3, [r0, r4, lsl #2]
      PCD_SET_EP_TX_STATUS(USBx, ep->num, USB_EP_TX_DIS);
 8002e2c:	7809      	ldrb	r1, [r1, #0]
 8002e2e:	f830 3021 	ldrh.w	r3, [r0, r1, lsl #2]
 8002e32:	f423 43e0 	bic.w	r3, r3, #28672	; 0x7000
 8002e36:	f023 0340 	bic.w	r3, r3, #64	; 0x40
      PCD_SET_EP_RX_STATUS(USBx, ep->num, USB_EP_RX_DIS);
 8002e3a:	041b      	lsls	r3, r3, #16
 8002e3c:	0c1b      	lsrs	r3, r3, #16
 8002e3e:	4313      	orrs	r3, r2
 8002e40:	f820 3021 	strh.w	r3, [r0, r1, lsl #2]
 8002e44:	e79a      	b.n	8002d7c <USB_DeactivateEndpoint+0x4c>
      PCD_CLEAR_RX_DTOG(USBx, ep->num);
 8002e46:	f830 2023 	ldrh.w	r2, [r0, r3, lsl #2]
 8002e4a:	0452      	lsls	r2, r2, #17
 8002e4c:	d50b      	bpl.n	8002e66 <USB_DeactivateEndpoint+0x136>
 8002e4e:	f830 2023 	ldrh.w	r2, [r0, r3, lsl #2]
 8002e52:	f022 02f0 	bic.w	r2, r2, #240	; 0xf0
 8002e56:	0512      	lsls	r2, r2, #20
 8002e58:	0d12      	lsrs	r2, r2, #20
 8002e5a:	f442 4240 	orr.w	r2, r2, #49152	; 0xc000
 8002e5e:	f042 0280 	orr.w	r2, r2, #128	; 0x80
 8002e62:	f820 2023 	strh.w	r2, [r0, r3, lsl #2]
      PCD_CLEAR_TX_DTOG(USBx, ep->num);
 8002e66:	780a      	ldrb	r2, [r1, #0]
 8002e68:	f830 3022 	ldrh.w	r3, [r0, r2, lsl #2]
 8002e6c:	065b      	lsls	r3, r3, #25
 8002e6e:	d50b      	bpl.n	8002e88 <USB_DeactivateEndpoint+0x158>
 8002e70:	f830 3022 	ldrh.w	r3, [r0, r2, lsl #2]
 8002e74:	f023 03f0 	bic.w	r3, r3, #240	; 0xf0
 8002e78:	051b      	lsls	r3, r3, #20
 8002e7a:	0d1b      	lsrs	r3, r3, #20
 8002e7c:	f443 4300 	orr.w	r3, r3, #32768	; 0x8000
 8002e80:	f043 03c0 	orr.w	r3, r3, #192	; 0xc0
 8002e84:	f820 3022 	strh.w	r3, [r0, r2, lsl #2]
      PCD_RX_DTOG(USBx, ep->num);
 8002e88:	780a      	ldrb	r2, [r1, #0]
 8002e8a:	f830 3022 	ldrh.w	r3, [r0, r2, lsl #2]
 8002e8e:	f023 03f0 	bic.w	r3, r3, #240	; 0xf0
 8002e92:	051b      	lsls	r3, r3, #20
 8002e94:	0d1b      	lsrs	r3, r3, #20
 8002e96:	f443 4340 	orr.w	r3, r3, #49152	; 0xc000
 8002e9a:	f043 0380 	orr.w	r3, r3, #128	; 0x80
 8002e9e:	f820 3022 	strh.w	r3, [r0, r2, lsl #2]
      PCD_SET_EP_TX_STATUS(USBx, ep->num, USB_EP_TX_DIS);
 8002ea2:	780c      	ldrb	r4, [r1, #0]
 8002ea4:	f830 3024 	ldrh.w	r3, [r0, r4, lsl #2]
 8002ea8:	f423 43e0 	bic.w	r3, r3, #28672	; 0x7000
 8002eac:	f023 0340 	bic.w	r3, r3, #64	; 0x40
 8002eb0:	041b      	lsls	r3, r3, #16
 8002eb2:	0c1b      	lsrs	r3, r3, #16
 8002eb4:	f248 0280 	movw	r2, #32896	; 0x8080
 8002eb8:	4313      	orrs	r3, r2
 8002eba:	f820 3024 	strh.w	r3, [r0, r4, lsl #2]
      PCD_SET_EP_RX_STATUS(USBx, ep->num, USB_EP_RX_DIS);
 8002ebe:	7809      	ldrb	r1, [r1, #0]
 8002ec0:	f830 3021 	ldrh.w	r3, [r0, r1, lsl #2]
 8002ec4:	f423 4380 	bic.w	r3, r3, #16384	; 0x4000
 8002ec8:	f023 0370 	bic.w	r3, r3, #112	; 0x70
 8002ecc:	e7b5      	b.n	8002e3a <USB_DeactivateEndpoint+0x10a>

08002ece <USB_EPSetStall>:
  * @param  ep: pointer to endpoint structure   
  * @retval HAL status
  */
HAL_StatusTypeDef USB_EPSetStall(USB_TypeDef *USBx , USB_EPTypeDef *ep)
{
  if (ep->num == 0)
 8002ece:	780a      	ldrb	r2, [r1, #0]
 8002ed0:	b98a      	cbnz	r2, 8002ef6 <USB_EPSetStall+0x28>
  {
    /* This macro sets STALL status for RX & TX*/ 
    PCD_SET_EP_TXRX_STATUS(USBx, ep->num, USB_EP_RX_STALL, USB_EP_TX_STALL); 
 8002ed2:	8803      	ldrh	r3, [r0, #0]
 8002ed4:	f423 4380 	bic.w	r3, r3, #16384	; 0x4000
 8002ed8:	f023 0340 	bic.w	r3, r3, #64	; 0x40
 8002edc:	041b      	lsls	r3, r3, #16
 8002ede:	0c1b      	lsrs	r3, r3, #16
 8002ee0:	f483 5380 	eor.w	r3, r3, #4096	; 0x1000
 8002ee4:	f083 0310 	eor.w	r3, r3, #16
 8002ee8:	f443 4300 	orr.w	r3, r3, #32768	; 0x8000
 8002eec:	f043 0380 	orr.w	r3, r3, #128	; 0x80
 8002ef0:	8003      	strh	r3, [r0, #0]
    {
      PCD_SET_EP_RX_STATUS(USBx, ep->num , USB_EP_RX_STALL);
    }
  }
  return HAL_OK;
}
 8002ef2:	2000      	movs	r0, #0
 8002ef4:	4770      	bx	lr
    if (ep->is_in)
 8002ef6:	784b      	ldrb	r3, [r1, #1]
 8002ef8:	b212      	sxth	r2, r2
 8002efa:	b183      	cbz	r3, 8002f1e <USB_EPSetStall+0x50>
      PCD_SET_EP_TX_STATUS(USBx, ep->num , USB_EP_TX_STALL); 
 8002efc:	f830 3022 	ldrh.w	r3, [r0, r2, lsl #2]
 8002f00:	f423 43e0 	bic.w	r3, r3, #28672	; 0x7000
 8002f04:	f023 0340 	bic.w	r3, r3, #64	; 0x40
 8002f08:	041b      	lsls	r3, r3, #16
 8002f0a:	0c1b      	lsrs	r3, r3, #16
 8002f0c:	f083 0310 	eor.w	r3, r3, #16
      PCD_SET_EP_RX_STATUS(USBx, ep->num , USB_EP_RX_STALL);
 8002f10:	f443 4300 	orr.w	r3, r3, #32768	; 0x8000
 8002f14:	f043 0380 	orr.w	r3, r3, #128	; 0x80
 8002f18:	f820 3022 	strh.w	r3, [r0, r2, lsl #2]
 8002f1c:	e7e9      	b.n	8002ef2 <USB_EPSetStall+0x24>
 8002f1e:	f830 3022 	ldrh.w	r3, [r0, r2, lsl #2]
 8002f22:	f423 4380 	bic.w	r3, r3, #16384	; 0x4000
 8002f26:	f023 0370 	bic.w	r3, r3, #112	; 0x70
 8002f2a:	041b      	lsls	r3, r3, #16
 8002f2c:	0c1b      	lsrs	r3, r3, #16
 8002f2e:	f483 5380 	eor.w	r3, r3, #4096	; 0x1000
 8002f32:	e7ed      	b.n	8002f10 <USB_EPSetStall+0x42>

08002f34 <USB_EPClearStall>:
  * @param  USBx : Selected device
  * @param  ep: pointer to endpoint structure
  * @retval HAL status
  */
HAL_StatusTypeDef USB_EPClearStall(USB_TypeDef *USBx, USB_EPTypeDef *ep)
{
 8002f34:	780b      	ldrb	r3, [r1, #0]
  if (ep->is_in)
 8002f36:	784a      	ldrb	r2, [r1, #1]
  {
    PCD_CLEAR_TX_DTOG(USBx, ep->num);
 8002f38:	b21b      	sxth	r3, r3
  if (ep->is_in)
 8002f3a:	b312      	cbz	r2, 8002f82 <USB_EPClearStall+0x4e>
    PCD_CLEAR_TX_DTOG(USBx, ep->num);
 8002f3c:	f830 2023 	ldrh.w	r2, [r0, r3, lsl #2]
 8002f40:	0652      	lsls	r2, r2, #25
 8002f42:	d50b      	bpl.n	8002f5c <USB_EPClearStall+0x28>
 8002f44:	f830 2023 	ldrh.w	r2, [r0, r3, lsl #2]
 8002f48:	f022 02f0 	bic.w	r2, r2, #240	; 0xf0
 8002f4c:	0512      	lsls	r2, r2, #20
 8002f4e:	0d12      	lsrs	r2, r2, #20
 8002f50:	f442 4200 	orr.w	r2, r2, #32768	; 0x8000
 8002f54:	f042 02c0 	orr.w	r2, r2, #192	; 0xc0
 8002f58:	f820 2023 	strh.w	r2, [r0, r3, lsl #2]
    PCD_SET_EP_TX_STATUS(USBx, ep->num, USB_EP_TX_VALID);
 8002f5c:	780a      	ldrb	r2, [r1, #0]
 8002f5e:	f830 3022 	ldrh.w	r3, [r0, r2, lsl #2]
 8002f62:	f423 43e0 	bic.w	r3, r3, #28672	; 0x7000
 8002f66:	f023 0340 	bic.w	r3, r3, #64	; 0x40
 8002f6a:	041b      	lsls	r3, r3, #16
 8002f6c:	0c1b      	lsrs	r3, r3, #16
 8002f6e:	f083 0330 	eor.w	r3, r3, #48	; 0x30
  }
  else
  {
    PCD_CLEAR_RX_DTOG(USBx, ep->num);
    PCD_SET_EP_RX_STATUS(USBx, ep->num, USB_EP_RX_VALID);
 8002f72:	f443 4300 	orr.w	r3, r3, #32768	; 0x8000
 8002f76:	f043 0380 	orr.w	r3, r3, #128	; 0x80
 8002f7a:	f820 3022 	strh.w	r3, [r0, r2, lsl #2]
  }
  return HAL_OK;
}
 8002f7e:	2000      	movs	r0, #0
 8002f80:	4770      	bx	lr
    PCD_CLEAR_RX_DTOG(USBx, ep->num);
 8002f82:	f830 2023 	ldrh.w	r2, [r0, r3, lsl #2]
 8002f86:	0452      	lsls	r2, r2, #17
 8002f88:	d50b      	bpl.n	8002fa2 <USB_EPClearStall+0x6e>
 8002f8a:	f830 2023 	ldrh.w	r2, [r0, r3, lsl #2]
 8002f8e:	f022 02f0 	bic.w	r2, r2, #240	; 0xf0
 8002f92:	0512      	lsls	r2, r2, #20
 8002f94:	0d12      	lsrs	r2, r2, #20
 8002f96:	f442 4240 	orr.w	r2, r2, #49152	; 0xc000
 8002f9a:	f042 0280 	orr.w	r2, r2, #128	; 0x80
 8002f9e:	f820 2023 	strh.w	r2, [r0, r3, lsl #2]
    PCD_SET_EP_RX_STATUS(USBx, ep->num, USB_EP_RX_VALID);
 8002fa2:	780a      	ldrb	r2, [r1, #0]
 8002fa4:	f830 3022 	ldrh.w	r3, [r0, r2, lsl #2]
 8002fa8:	f423 4380 	bic.w	r3, r3, #16384	; 0x4000
 8002fac:	f023 0370 	bic.w	r3, r3, #112	; 0x70
 8002fb0:	041b      	lsls	r3, r3, #16
 8002fb2:	0c1b      	lsrs	r3, r3, #16
 8002fb4:	f483 5340 	eor.w	r3, r3, #12288	; 0x3000
 8002fb8:	e7db      	b.n	8002f72 <USB_EPClearStall+0x3e>

08002fba <USB_SetDevAddress>:
  *          This parameter can be a value from 0 to 255
  * @retval HAL status
  */
HAL_StatusTypeDef  USB_SetDevAddress (USB_TypeDef *USBx, uint8_t address)
{
  if(address == 0) 
 8002fba:	b911      	cbnz	r1, 8002fc2 <USB_SetDevAddress+0x8>
  {
   /* set device address and enable function */
   USBx->DADDR = USB_DADDR_EF;
 8002fbc:	2380      	movs	r3, #128	; 0x80
 8002fbe:	f8a0 304c 	strh.w	r3, [r0, #76]	; 0x4c
  }
  
  return HAL_OK;
}
 8002fc2:	2000      	movs	r0, #0
 8002fc4:	4770      	bx	lr
	...

08002fc8 <USB_DevConnect>:
  * @retval HAL status
  */
HAL_StatusTypeDef  USB_DevConnect (USB_TypeDef *USBx)
{
  /* Enabling DP Pull-Down bit to Connect internal pull-up on USB DP line */
  USB->BCDR |= USB_BCDR_DPPU;
 8002fc8:	4a05      	ldr	r2, [pc, #20]	; (8002fe0 <USB_DevConnect+0x18>)
 8002fca:	f8b2 3058 	ldrh.w	r3, [r2, #88]	; 0x58
 8002fce:	ea6f 4343 	mvn.w	r3, r3, lsl #17
 8002fd2:	ea6f 4353 	mvn.w	r3, r3, lsr #17
 8002fd6:	b29b      	uxth	r3, r3
 8002fd8:	f8a2 3058 	strh.w	r3, [r2, #88]	; 0x58
  
  return HAL_OK;
}
 8002fdc:	2000      	movs	r0, #0
 8002fde:	4770      	bx	lr
 8002fe0:	40006800 	.word	0x40006800

08002fe4 <USB_DevDisconnect>:
  * @retval HAL status
  */
HAL_StatusTypeDef  USB_DevDisconnect (USB_TypeDef *USBx)
{
  /* Disable DP Pull-Down bit*/
  USB->BCDR &= ~(USB_BCDR_DPPU);
 8002fe4:	4a04      	ldr	r2, [pc, #16]	; (8002ff8 <USB_DevDisconnect+0x14>)
 8002fe6:	f8b2 3058 	ldrh.w	r3, [r2, #88]	; 0x58
 8002fea:	f3c3 030e 	ubfx	r3, r3, #0, #15
 8002fee:	f8a2 3058 	strh.w	r3, [r2, #88]	; 0x58
   
  return HAL_OK;
}
 8002ff2:	2000      	movs	r0, #0
 8002ff4:	4770      	bx	lr
 8002ff6:	bf00      	nop
 8002ff8:	40006800 	.word	0x40006800

08002ffc <USB_ReadInterrupts>:
  */
uint32_t  USB_ReadInterrupts (USB_TypeDef *USBx)
{
  uint32_t tmpreg = 0;
  
  tmpreg = USBx->ISTR;
 8002ffc:	f8b0 0044 	ldrh.w	r0, [r0, #68]	; 0x44
  return tmpreg;
}
 8003000:	b280      	uxth	r0, r0
 8003002:	4770      	bx	lr

08003004 <USB_EP0_OutStart>:
  UNUSED(USBx);
  UNUSED(psetup);
  UNUSED(dma);
  
  return HAL_OK;
}
 8003004:	2000      	movs	r0, #0
 8003006:	4770      	bx	lr

08003008 <USB_WritePMA>:
  * @param  wPMABufAddr : address into PMA.
  * @param  wNBytes : number of bytes to be copied.
  * @retval None
  */
void USB_WritePMA(USB_TypeDef *USBx, uint8_t *pbUsrBuf, uint16_t wPMABufAddr, uint16_t wNBytes)
{
 8003008:	b510      	push	{r4, lr}
  uint32_t n = (wNBytes + 1) >> 1;
 800300a:	3301      	adds	r3, #1
  uint32_t i;
  uint16_t temp1, temp2;
  uint16_t *pdwVal;
  pdwVal = (uint16_t *)(wPMABufAddr + (uint32_t)USBx + 0x400);
 800300c:	f500 6080 	add.w	r0, r0, #1024	; 0x400
  uint32_t n = (wNBytes + 1) >> 1;
 8003010:	105b      	asrs	r3, r3, #1
  pdwVal = (uint16_t *)(wPMABufAddr + (uint32_t)USBx + 0x400);
 8003012:	4402      	add	r2, r0
 8003014:	3102      	adds	r1, #2

  for (i = n; i != 0; i--)
 8003016:	b903      	cbnz	r3, 800301a <USB_WritePMA+0x12>
    pbUsrBuf++;
    temp2 = temp1 | (uint16_t) * pbUsrBuf << 8;
    *pdwVal++ = temp2;
    pbUsrBuf++;
  }
}
 8003018:	bd10      	pop	{r4, pc}
    temp2 = temp1 | (uint16_t) * pbUsrBuf << 8;
 800301a:	f811 4c01 	ldrb.w	r4, [r1, #-1]
 800301e:	f811 0c02 	ldrb.w	r0, [r1, #-2]
 8003022:	ea40 2004 	orr.w	r0, r0, r4, lsl #8
    *pdwVal++ = temp2;
 8003026:	f822 0b02 	strh.w	r0, [r2], #2
  for (i = n; i != 0; i--)
 800302a:	3b01      	subs	r3, #1
 800302c:	e7f2      	b.n	8003014 <USB_WritePMA+0xc>
	...

08003030 <USB_EPStartXfer>:
{
 8003030:	b570      	push	{r4, r5, r6, lr}
  uint32_t len = ep->xfer_len;
 8003032:	698a      	ldr	r2, [r1, #24]
{
 8003034:	460d      	mov	r5, r1
  if (ep->is_in == 1)
 8003036:	7849      	ldrb	r1, [r1, #1]
 8003038:	692b      	ldr	r3, [r5, #16]
 800303a:	2901      	cmp	r1, #1
{
 800303c:	4604      	mov	r4, r0
 800303e:	7aa8      	ldrb	r0, [r5, #10]
  if (ep->is_in == 1)
 8003040:	d162      	bne.n	8003108 <USB_EPStartXfer+0xd8>
    if (ep->xfer_len > ep->maxpacket)
 8003042:	429a      	cmp	r2, r3
      ep->xfer_len =0;
 8003044:	bf97      	itett	ls
 8003046:	2300      	movls	r3, #0
      ep->xfer_len-=len; 
 8003048:	1ad2      	subhi	r2, r2, r3
      ep->xfer_len =0;
 800304a:	61ab      	strls	r3, [r5, #24]
 800304c:	4613      	movls	r3, r2
      ep->xfer_len-=len; 
 800304e:	bf88      	it	hi
 8003050:	61aa      	strhi	r2, [r5, #24]
 8003052:	b29e      	uxth	r6, r3
    if (ep->doublebuffer == 0) 
 8003054:	bb08      	cbnz	r0, 800309a <USB_EPStartXfer+0x6a>
      USB_WritePMA(USBx, ep->xfer_buff, ep->pmaadress, len);
 8003056:	4633      	mov	r3, r6
 8003058:	88aa      	ldrh	r2, [r5, #4]
 800305a:	6969      	ldr	r1, [r5, #20]
 800305c:	4620      	mov	r0, r4
 800305e:	f7ff ffd3 	bl	8003008 <USB_WritePMA>
      PCD_SET_EP_TX_CNT(USBx, ep->num, len);
 8003062:	f8b4 3050 	ldrh.w	r3, [r4, #80]	; 0x50
 8003066:	782a      	ldrb	r2, [r5, #0]
 8003068:	b29b      	uxth	r3, r3
 800306a:	eb03 03c2 	add.w	r3, r3, r2, lsl #3
 800306e:	4423      	add	r3, r4
 8003070:	f8a3 6402 	strh.w	r6, [r3, #1026]	; 0x402
    PCD_SET_EP_TX_STATUS(USBx, ep->num, USB_EP_TX_VALID);
 8003074:	782a      	ldrb	r2, [r5, #0]
 8003076:	f834 3022 	ldrh.w	r3, [r4, r2, lsl #2]
 800307a:	f423 43e0 	bic.w	r3, r3, #28672	; 0x7000
 800307e:	f023 0340 	bic.w	r3, r3, #64	; 0x40
 8003082:	041b      	lsls	r3, r3, #16
 8003084:	0c1b      	lsrs	r3, r3, #16
 8003086:	f083 0330 	eor.w	r3, r3, #48	; 0x30
    PCD_SET_EP_RX_STATUS(USBx, ep->num, USB_EP_RX_VALID);
 800308a:	f443 4300 	orr.w	r3, r3, #32768	; 0x8000
 800308e:	f043 0380 	orr.w	r3, r3, #128	; 0x80
 8003092:	f824 3022 	strh.w	r3, [r4, r2, lsl #2]
}
 8003096:	2000      	movs	r0, #0
 8003098:	bd70      	pop	{r4, r5, r6, pc}
      if (PCD_GET_ENDPOINT(USBx, ep->num)& USB_EP_DTOG_TX)
 800309a:	7828      	ldrb	r0, [r5, #0]
 800309c:	b202      	sxth	r2, r0
 800309e:	f834 2022 	ldrh.w	r2, [r4, r2, lsl #2]
        PCD_SET_EP_DBUF1_CNT(USBx, ep->num, ep->is_in, len);
 80030a2:	f8b4 1050 	ldrh.w	r1, [r4, #80]	; 0x50
      if (PCD_GET_ENDPOINT(USBx, ep->num)& USB_EP_DTOG_TX)
 80030a6:	f012 0f40 	tst.w	r2, #64	; 0x40
        PCD_SET_EP_DBUF1_CNT(USBx, ep->num, ep->is_in, len);
 80030aa:	b289      	uxth	r1, r1
 80030ac:	f04f 0208 	mov.w	r2, #8
 80030b0:	fb12 1200 	smlabb	r2, r2, r0, r1
 80030b4:	4422      	add	r2, r4
      USB_WritePMA(USBx, ep->xfer_buff, pmabuffer, len);
 80030b6:	6969      	ldr	r1, [r5, #20]
        PCD_SET_EP_DBUF1_CNT(USBx, ep->num, ep->is_in, len);
 80030b8:	f8a2 3402 	strh.w	r3, [r2, #1026]	; 0x402
        pmabuffer = ep->pmaaddr1;
 80030bc:	bf14      	ite	ne
 80030be:	892a      	ldrhne	r2, [r5, #8]
        pmabuffer = ep->pmaaddr0;
 80030c0:	88ea      	ldrheq	r2, [r5, #6]
      USB_WritePMA(USBx, ep->xfer_buff, pmabuffer, len);
 80030c2:	4633      	mov	r3, r6
 80030c4:	4620      	mov	r0, r4
 80030c6:	f7ff ff9f 	bl	8003008 <USB_WritePMA>
      PCD_FreeUserBuffer(USBx, ep->num, ep->is_in);
 80030ca:	786a      	ldrb	r2, [r5, #1]
 80030cc:	782b      	ldrb	r3, [r5, #0]
 80030ce:	b96a      	cbnz	r2, 80030ec <USB_EPStartXfer+0xbc>
 80030d0:	b21b      	sxth	r3, r3
 80030d2:	f834 2023 	ldrh.w	r2, [r4, r3, lsl #2]
 80030d6:	f022 02f0 	bic.w	r2, r2, #240	; 0xf0
 80030da:	0512      	lsls	r2, r2, #20
 80030dc:	0d12      	lsrs	r2, r2, #20
 80030de:	f442 4200 	orr.w	r2, r2, #32768	; 0x8000
 80030e2:	f042 02c0 	orr.w	r2, r2, #192	; 0xc0
 80030e6:	f824 2023 	strh.w	r2, [r4, r3, lsl #2]
 80030ea:	e7c3      	b.n	8003074 <USB_EPStartXfer+0x44>
 80030ec:	2a01      	cmp	r2, #1
 80030ee:	d1c1      	bne.n	8003074 <USB_EPStartXfer+0x44>
 80030f0:	b21b      	sxth	r3, r3
 80030f2:	f834 2023 	ldrh.w	r2, [r4, r3, lsl #2]
 80030f6:	f022 02f0 	bic.w	r2, r2, #240	; 0xf0
 80030fa:	0512      	lsls	r2, r2, #20
 80030fc:	0d12      	lsrs	r2, r2, #20
 80030fe:	f442 4240 	orr.w	r2, r2, #49152	; 0xc000
 8003102:	f042 0280 	orr.w	r2, r2, #128	; 0x80
 8003106:	e7ee      	b.n	80030e6 <USB_EPStartXfer+0xb6>
    if (ep->xfer_len > ep->maxpacket)
 8003108:	429a      	cmp	r2, r3
      ep->xfer_len-=len; 
 800310a:	bf8b      	itete	hi
 800310c:	1ad2      	subhi	r2, r2, r3
      ep->xfer_len =0;
 800310e:	2300      	movls	r3, #0
      ep->xfer_len-=len; 
 8003110:	61aa      	strhi	r2, [r5, #24]
      ep->xfer_len =0;
 8003112:	61ab      	strls	r3, [r5, #24]
 8003114:	bf98      	it	ls
 8003116:	4613      	movls	r3, r2
 8003118:	782a      	ldrb	r2, [r5, #0]
    if (ep->doublebuffer == 0) 
 800311a:	b9a8      	cbnz	r0, 8003148 <USB_EPStartXfer+0x118>
      PCD_SET_EP_DBUF1_CNT(USBx, ep->num, ep->is_in, len);
 800311c:	f8b4 1050 	ldrh.w	r1, [r4, #80]	; 0x50
 8003120:	2b3e      	cmp	r3, #62	; 0x3e
 8003122:	b289      	uxth	r1, r1
 8003124:	eb01 01c2 	add.w	r1, r1, r2, lsl #3
 8003128:	f204 4006 	addw	r0, r4, #1030	; 0x406
 800312c:	d91a      	bls.n	8003164 <USB_EPStartXfer+0x134>
 800312e:	f3c3 124f 	ubfx	r2, r3, #5, #16
 8003132:	06de      	lsls	r6, r3, #27
 8003134:	bf08      	it	eq
 8003136:	f102 32ff 	addeq.w	r2, r2, #4294967295
 800313a:	4b0e      	ldr	r3, [pc, #56]	; (8003174 <USB_EPStartXfer+0x144>)
 800313c:	bf08      	it	eq
 800313e:	b292      	uxtheq	r2, r2
 8003140:	ea43 2282 	orr.w	r2, r3, r2, lsl #10
 8003144:	520a      	strh	r2, [r1, r0]
 8003146:	e001      	b.n	800314c <USB_EPStartXfer+0x11c>
 8003148:	2900      	cmp	r1, #0
 800314a:	d0e7      	beq.n	800311c <USB_EPStartXfer+0xec>
    PCD_SET_EP_RX_STATUS(USBx, ep->num, USB_EP_RX_VALID);
 800314c:	782a      	ldrb	r2, [r5, #0]
 800314e:	f834 3022 	ldrh.w	r3, [r4, r2, lsl #2]
 8003152:	f423 4380 	bic.w	r3, r3, #16384	; 0x4000
 8003156:	f023 0370 	bic.w	r3, r3, #112	; 0x70
 800315a:	041b      	lsls	r3, r3, #16
 800315c:	0c1b      	lsrs	r3, r3, #16
 800315e:	f483 5340 	eor.w	r3, r3, #12288	; 0x3000
 8003162:	e792      	b.n	800308a <USB_EPStartXfer+0x5a>
      PCD_SET_EP_DBUF1_CNT(USBx, ep->num, ep->is_in, len);
 8003164:	f3c3 024f 	ubfx	r2, r3, #1, #16
 8003168:	07db      	lsls	r3, r3, #31
 800316a:	bf44      	itt	mi
 800316c:	3201      	addmi	r2, #1
 800316e:	b292      	uxthmi	r2, r2
 8003170:	0292      	lsls	r2, r2, #10
 8003172:	e7e7      	b.n	8003144 <USB_EPStartXfer+0x114>
 8003174:	ffff8000 	.word	0xffff8000

08003178 <USB_ReadPMA>:
  * @param  wNBytes : number of bytes to be copied.
  * @retval None
  */
void USB_ReadPMA(USB_TypeDef *USBx, uint8_t *pbUsrBuf, uint16_t wPMABufAddr, uint16_t wNBytes)
{
  uint32_t n = (wNBytes + 1) >> 1;
 8003178:	3301      	adds	r3, #1
  uint32_t i;
  uint16_t *pdwVal;
  pdwVal = (uint16_t *)(wPMABufAddr + (uint32_t)USBx + 0x400);
 800317a:	f500 6080 	add.w	r0, r0, #1024	; 0x400
{
 800317e:	b510      	push	{r4, lr}
  uint32_t n = (wNBytes + 1) >> 1;
 8003180:	105b      	asrs	r3, r3, #1
  pdwVal = (uint16_t *)(wPMABufAddr + (uint32_t)USBx + 0x400);
 8003182:	4402      	add	r2, r0
  for (i = n; i != 0; i--)
 8003184:	2400      	movs	r4, #0
 8003186:	42a3      	cmp	r3, r4
 8003188:	d100      	bne.n	800318c <USB_ReadPMA+0x14>
  {
    *(uint16_t*)pbUsrBuf++ = *pdwVal++;
    pbUsrBuf++;
  }
}
 800318a:	bd10      	pop	{r4, pc}
    *(uint16_t*)pbUsrBuf++ = *pdwVal++;
 800318c:	f832 0014 	ldrh.w	r0, [r2, r4, lsl #1]
 8003190:	f821 0014 	strh.w	r0, [r1, r4, lsl #1]
 8003194:	3401      	adds	r4, #1
 8003196:	e7f6      	b.n	8003186 <USB_ReadPMA+0xe>

08003198 <USBD_CDC_DataIn>:
  * @param  epnum: endpoint number
  * @retval status
  */
static uint8_t  USBD_CDC_DataIn (USBD_HandleTypeDef *pdev, uint8_t epnum)
{
  USBD_CDC_HandleTypeDef   *hcdc = (USBD_CDC_HandleTypeDef*) pdev->pClassData;
 8003198:	f8d0 3218 	ldr.w	r3, [r0, #536]	; 0x218
  
  if(pdev->pClassData != NULL)
 800319c:	b11b      	cbz	r3, 80031a6 <USBD_CDC_DataIn+0xe>
  {
    
    hcdc->TxState = 0;
 800319e:	2000      	movs	r0, #0
 80031a0:	f8c3 0214 	str.w	r0, [r3, #532]	; 0x214

    return USBD_OK;
 80031a4:	4770      	bx	lr
  }
  else
  {
    return USBD_FAIL;
 80031a6:	2002      	movs	r0, #2
  }
}
 80031a8:	4770      	bx	lr

080031aa <USBD_CDC_EP0_RxReady>:
  */
static uint8_t  USBD_CDC_EP0_RxReady (USBD_HandleTypeDef *pdev)
{ 
  USBD_CDC_HandleTypeDef   *hcdc = (USBD_CDC_HandleTypeDef*) pdev->pClassData;
  
  if((pdev->pUserData != NULL) && (hcdc->CmdOpCode != 0xFF))
 80031aa:	f8d0 321c 	ldr.w	r3, [r0, #540]	; 0x21c
{ 
 80031ae:	b510      	push	{r4, lr}
  USBD_CDC_HandleTypeDef   *hcdc = (USBD_CDC_HandleTypeDef*) pdev->pClassData;
 80031b0:	f8d0 4218 	ldr.w	r4, [r0, #536]	; 0x218
  if((pdev->pUserData != NULL) && (hcdc->CmdOpCode != 0xFF))
 80031b4:	b15b      	cbz	r3, 80031ce <USBD_CDC_EP0_RxReady+0x24>
 80031b6:	f894 0200 	ldrb.w	r0, [r4, #512]	; 0x200
 80031ba:	28ff      	cmp	r0, #255	; 0xff
 80031bc:	d007      	beq.n	80031ce <USBD_CDC_EP0_RxReady+0x24>
  {
    ((USBD_CDC_ItfTypeDef *)pdev->pUserData)->Control(hcdc->CmdOpCode,
 80031be:	689b      	ldr	r3, [r3, #8]
 80031c0:	f894 2201 	ldrb.w	r2, [r4, #513]	; 0x201
 80031c4:	4621      	mov	r1, r4
 80031c6:	4798      	blx	r3
                                                      (uint8_t *)hcdc->data,
                                                      hcdc->CmdLength);
      hcdc->CmdOpCode = 0xFF; 
 80031c8:	23ff      	movs	r3, #255	; 0xff
 80031ca:	f884 3200 	strb.w	r3, [r4, #512]	; 0x200
      
  }
  return USBD_OK;
}
 80031ce:	2000      	movs	r0, #0
 80031d0:	bd10      	pop	{r4, pc}
	...

080031d4 <USBD_CDC_GetFSCfgDesc>:
  * @param  length : pointer data length
  * @retval pointer to descriptor buffer
  */
static uint8_t  *USBD_CDC_GetFSCfgDesc (uint16_t *length)
{
  *length = sizeof (USBD_CDC_CfgFSDesc);
 80031d4:	2343      	movs	r3, #67	; 0x43
 80031d6:	8003      	strh	r3, [r0, #0]
  return USBD_CDC_CfgFSDesc;
}
 80031d8:	4800      	ldr	r0, [pc, #0]	; (80031dc <USBD_CDC_GetFSCfgDesc+0x8>)
 80031da:	4770      	bx	lr
 80031dc:	20000038 	.word	0x20000038

080031e0 <USBD_CDC_GetHSCfgDesc>:
  * @param  length : pointer data length
  * @retval pointer to descriptor buffer
  */
static uint8_t  *USBD_CDC_GetHSCfgDesc (uint16_t *length)
{
  *length = sizeof (USBD_CDC_CfgHSDesc);
 80031e0:	2343      	movs	r3, #67	; 0x43
 80031e2:	8003      	strh	r3, [r0, #0]
  return USBD_CDC_CfgHSDesc;
}
 80031e4:	4800      	ldr	r0, [pc, #0]	; (80031e8 <USBD_CDC_GetHSCfgDesc+0x8>)
 80031e6:	4770      	bx	lr
 80031e8:	2000007c 	.word	0x2000007c

080031ec <USBD_CDC_GetOtherSpeedCfgDesc>:
  * @param  length : pointer data length
  * @retval pointer to descriptor buffer
  */
static uint8_t  *USBD_CDC_GetOtherSpeedCfgDesc (uint16_t *length)
{
  *length = sizeof (USBD_CDC_OtherSpeedCfgDesc);
 80031ec:	2343      	movs	r3, #67	; 0x43
 80031ee:	8003      	strh	r3, [r0, #0]
  return USBD_CDC_OtherSpeedCfgDesc;
}
 80031f0:	4800      	ldr	r0, [pc, #0]	; (80031f4 <USBD_CDC_GetOtherSpeedCfgDesc+0x8>)
 80031f2:	4770      	bx	lr
 80031f4:	200000cc 	.word	0x200000cc

080031f8 <USBD_CDC_GetDeviceQualifierDescriptor>:
* @param  length : pointer data length
* @retval pointer to descriptor buffer
*/
uint8_t  *USBD_CDC_GetDeviceQualifierDescriptor (uint16_t *length)
{
  *length = sizeof (USBD_CDC_DeviceQualifierDesc);
 80031f8:	230a      	movs	r3, #10
 80031fa:	8003      	strh	r3, [r0, #0]
  return USBD_CDC_DeviceQualifierDesc;
}
 80031fc:	4800      	ldr	r0, [pc, #0]	; (8003200 <USBD_CDC_GetDeviceQualifierDescriptor+0x8>)
 80031fe:	4770      	bx	lr
 8003200:	200000c0 	.word	0x200000c0

08003204 <USBD_CDC_DataOut>:
{      
 8003204:	b538      	push	{r3, r4, r5, lr}
 8003206:	4605      	mov	r5, r0
  USBD_CDC_HandleTypeDef   *hcdc = (USBD_CDC_HandleTypeDef*) pdev->pClassData;
 8003208:	f8d0 4218 	ldr.w	r4, [r0, #536]	; 0x218
  hcdc->RxLength = USBD_LL_GetRxDataSize (pdev, epnum);
 800320c:	f001 f920 	bl	8004450 <USBD_LL_GetRxDataSize>
  if(pdev->pClassData != NULL)
 8003210:	f8d5 3218 	ldr.w	r3, [r5, #536]	; 0x218
  hcdc->RxLength = USBD_LL_GetRxDataSize (pdev, epnum);
 8003214:	f8c4 020c 	str.w	r0, [r4, #524]	; 0x20c
  if(pdev->pClassData != NULL)
 8003218:	b14b      	cbz	r3, 800322e <USBD_CDC_DataOut+0x2a>
    ((USBD_CDC_ItfTypeDef *)pdev->pUserData)->Receive(hcdc->RxBuffer, &hcdc->RxLength);
 800321a:	f8d5 321c 	ldr.w	r3, [r5, #540]	; 0x21c
 800321e:	f8d4 0204 	ldr.w	r0, [r4, #516]	; 0x204
 8003222:	68db      	ldr	r3, [r3, #12]
 8003224:	f504 7103 	add.w	r1, r4, #524	; 0x20c
 8003228:	4798      	blx	r3
    return USBD_OK;
 800322a:	2000      	movs	r0, #0
 800322c:	bd38      	pop	{r3, r4, r5, pc}
    return USBD_FAIL;
 800322e:	2002      	movs	r0, #2
}
 8003230:	bd38      	pop	{r3, r4, r5, pc}
	...

08003234 <USBD_CDC_Setup>:
{
 8003234:	b5f8      	push	{r3, r4, r5, r6, r7, lr}
  switch (req->bmRequest & USB_REQ_TYPE_MASK)
 8003236:	780f      	ldrb	r7, [r1, #0]
 8003238:	f017 0360 	ands.w	r3, r7, #96	; 0x60
{
 800323c:	4606      	mov	r6, r0
 800323e:	460c      	mov	r4, r1
  switch (req->bmRequest & USB_REQ_TYPE_MASK)
 8003240:	d023      	beq.n	800328a <USBD_CDC_Setup+0x56>
 8003242:	2b20      	cmp	r3, #32
 8003244:	d119      	bne.n	800327a <USBD_CDC_Setup+0x46>
    if (req->wLength)
 8003246:	88ca      	ldrh	r2, [r1, #6]
 8003248:	784b      	ldrb	r3, [r1, #1]
 800324a:	b1c2      	cbz	r2, 800327e <USBD_CDC_Setup+0x4a>
      if (req->bmRequest & 0x80)
 800324c:	0639      	lsls	r1, r7, #24
  USBD_CDC_HandleTypeDef   *hcdc = (USBD_CDC_HandleTypeDef*) pdev->pClassData;
 800324e:	f8d0 5218 	ldr.w	r5, [r0, #536]	; 0x218
      if (req->bmRequest & 0x80)
 8003252:	d50b      	bpl.n	800326c <USBD_CDC_Setup+0x38>
        ((USBD_CDC_ItfTypeDef *)pdev->pUserData)->Control(req->bRequest,
 8003254:	f8d0 121c 	ldr.w	r1, [r0, #540]	; 0x21c
 8003258:	4618      	mov	r0, r3
 800325a:	688f      	ldr	r7, [r1, #8]
 800325c:	4629      	mov	r1, r5
 800325e:	47b8      	blx	r7
          USBD_CtlSendData (pdev, 
 8003260:	88e2      	ldrh	r2, [r4, #6]
 8003262:	4629      	mov	r1, r5
 8003264:	4630      	mov	r0, r6
      USBD_CtlSendData (pdev,
 8003266:	f000 fc27 	bl	8003ab8 <USBD_CtlSendData>
      break;
 800326a:	e006      	b.n	800327a <USBD_CDC_Setup+0x46>
        hcdc->CmdOpCode = req->bRequest;
 800326c:	f885 3200 	strb.w	r3, [r5, #512]	; 0x200
        hcdc->CmdLength = req->wLength;
 8003270:	f885 2201 	strb.w	r2, [r5, #513]	; 0x201
        USBD_CtlPrepareRx (pdev, 
 8003274:	4629      	mov	r1, r5
 8003276:	f000 fc34 	bl	8003ae2 <USBD_CtlPrepareRx>
}
 800327a:	2000      	movs	r0, #0
 800327c:	bdf8      	pop	{r3, r4, r5, r6, r7, pc}
      ((USBD_CDC_ItfTypeDef *)pdev->pUserData)->Control(req->bRequest,
 800327e:	f8d0 021c 	ldr.w	r0, [r0, #540]	; 0x21c
 8003282:	6884      	ldr	r4, [r0, #8]
 8003284:	4618      	mov	r0, r3
 8003286:	47a0      	blx	r4
 8003288:	e7f7      	b.n	800327a <USBD_CDC_Setup+0x46>
    switch (req->bRequest)
 800328a:	784b      	ldrb	r3, [r1, #1]
 800328c:	2b0a      	cmp	r3, #10
 800328e:	d1f4      	bne.n	800327a <USBD_CDC_Setup+0x46>
      USBD_CtlSendData (pdev,
 8003290:	2201      	movs	r2, #1
 8003292:	4901      	ldr	r1, [pc, #4]	; (8003298 <USBD_CDC_Setup+0x64>)
 8003294:	e7e7      	b.n	8003266 <USBD_CDC_Setup+0x32>
 8003296:	bf00      	nop
 8003298:	2000026c 	.word	0x2000026c

0800329c <USBD_CDC_DeInit>:
{
 800329c:	b510      	push	{r4, lr}
  USBD_LL_CloseEP(pdev,
 800329e:	2181      	movs	r1, #129	; 0x81
{
 80032a0:	4604      	mov	r4, r0
  USBD_LL_CloseEP(pdev,
 80032a2:	f001 f871 	bl	8004388 <USBD_LL_CloseEP>
  USBD_LL_CloseEP(pdev,
 80032a6:	2101      	movs	r1, #1
 80032a8:	4620      	mov	r0, r4
 80032aa:	f001 f86d 	bl	8004388 <USBD_LL_CloseEP>
  USBD_LL_CloseEP(pdev,
 80032ae:	2182      	movs	r1, #130	; 0x82
 80032b0:	4620      	mov	r0, r4
 80032b2:	f001 f869 	bl	8004388 <USBD_LL_CloseEP>
  if(pdev->pClassData != NULL)
 80032b6:	f8d4 3218 	ldr.w	r3, [r4, #536]	; 0x218
 80032ba:	b153      	cbz	r3, 80032d2 <USBD_CDC_DeInit+0x36>
    ((USBD_CDC_ItfTypeDef *)pdev->pUserData)->DeInit();
 80032bc:	f8d4 321c 	ldr.w	r3, [r4, #540]	; 0x21c
 80032c0:	685b      	ldr	r3, [r3, #4]
 80032c2:	4798      	blx	r3
    USBD_free(pdev->pClassData);
 80032c4:	f8d4 0218 	ldr.w	r0, [r4, #536]	; 0x218
 80032c8:	f001 f8fc 	bl	80044c4 <USBD_static_free>
    pdev->pClassData = NULL;
 80032cc:	2300      	movs	r3, #0
 80032ce:	f8c4 3218 	str.w	r3, [r4, #536]	; 0x218
}
 80032d2:	2000      	movs	r0, #0
 80032d4:	bd10      	pop	{r4, pc}

080032d6 <USBD_CDC_Init>:
{
 80032d6:	b5f8      	push	{r3, r4, r5, r6, r7, lr}
  if(pdev->dev_speed == USBD_SPEED_HIGH  ) 
 80032d8:	7c03      	ldrb	r3, [r0, #16]
{
 80032da:	4604      	mov	r4, r0
  if(pdev->dev_speed == USBD_SPEED_HIGH  ) 
 80032dc:	bb7b      	cbnz	r3, 800333e <USBD_CDC_Init+0x68>
    USBD_LL_OpenEP(pdev,
 80032de:	f44f 7300 	mov.w	r3, #512	; 0x200
 80032e2:	2202      	movs	r2, #2
 80032e4:	2181      	movs	r1, #129	; 0x81
 80032e6:	f001 f83f 	bl	8004368 <USBD_LL_OpenEP>
    USBD_LL_OpenEP(pdev,
 80032ea:	f44f 7300 	mov.w	r3, #512	; 0x200
    USBD_LL_OpenEP(pdev,
 80032ee:	2202      	movs	r2, #2
 80032f0:	2101      	movs	r1, #1
 80032f2:	4620      	mov	r0, r4
 80032f4:	f001 f838 	bl	8004368 <USBD_LL_OpenEP>
  USBD_LL_OpenEP(pdev,
 80032f8:	2308      	movs	r3, #8
 80032fa:	2203      	movs	r2, #3
 80032fc:	2182      	movs	r1, #130	; 0x82
 80032fe:	4620      	mov	r0, r4
 8003300:	f001 f832 	bl	8004368 <USBD_LL_OpenEP>
  pdev->pClassData = USBD_malloc(sizeof (USBD_CDC_HandleTypeDef));
 8003304:	f44f 7007 	mov.w	r0, #540	; 0x21c
 8003308:	f001 f8cc 	bl	80044a4 <USBD_static_malloc>
 800330c:	4606      	mov	r6, r0
 800330e:	f8c4 0218 	str.w	r0, [r4, #536]	; 0x218
  if(pdev->pClassData == NULL)
 8003312:	b320      	cbz	r0, 800335e <USBD_CDC_Init+0x88>
    ((USBD_CDC_ItfTypeDef *)pdev->pUserData)->Init();
 8003314:	f8d4 321c 	ldr.w	r3, [r4, #540]	; 0x21c
 8003318:	681b      	ldr	r3, [r3, #0]
 800331a:	4798      	blx	r3
    if(pdev->dev_speed == USBD_SPEED_HIGH  ) 
 800331c:	7c27      	ldrb	r7, [r4, #16]
    hcdc->TxState =0;
 800331e:	2500      	movs	r5, #0
 8003320:	f8c6 5214 	str.w	r5, [r6, #532]	; 0x214
    hcdc->RxState =0;
 8003324:	f8c6 5218 	str.w	r5, [r6, #536]	; 0x218
    if(pdev->dev_speed == USBD_SPEED_HIGH  ) 
 8003328:	b987      	cbnz	r7, 800334c <USBD_CDC_Init+0x76>
      USBD_LL_PrepareReceive(pdev,
 800332a:	f44f 7300 	mov.w	r3, #512	; 0x200
 800332e:	f8d6 2204 	ldr.w	r2, [r6, #516]	; 0x204
 8003332:	2101      	movs	r1, #1
 8003334:	4620      	mov	r0, r4
 8003336:	f001 f87d 	bl	8004434 <USBD_LL_PrepareReceive>
  uint8_t ret = 0;
 800333a:	4638      	mov	r0, r7
 800333c:	bdf8      	pop	{r3, r4, r5, r6, r7, pc}
    USBD_LL_OpenEP(pdev,
 800333e:	2340      	movs	r3, #64	; 0x40
 8003340:	2202      	movs	r2, #2
 8003342:	2181      	movs	r1, #129	; 0x81
 8003344:	f001 f810 	bl	8004368 <USBD_LL_OpenEP>
    USBD_LL_OpenEP(pdev,
 8003348:	2340      	movs	r3, #64	; 0x40
 800334a:	e7d0      	b.n	80032ee <USBD_CDC_Init+0x18>
      USBD_LL_PrepareReceive(pdev,
 800334c:	2340      	movs	r3, #64	; 0x40
 800334e:	f8d6 2204 	ldr.w	r2, [r6, #516]	; 0x204
 8003352:	2101      	movs	r1, #1
 8003354:	4620      	mov	r0, r4
 8003356:	f001 f86d 	bl	8004434 <USBD_LL_PrepareReceive>
  uint8_t ret = 0;
 800335a:	4628      	mov	r0, r5
 800335c:	bdf8      	pop	{r3, r4, r5, r6, r7, pc}
    ret = 1; 
 800335e:	2001      	movs	r0, #1
}
 8003360:	bdf8      	pop	{r3, r4, r5, r6, r7, pc}

08003362 <USBD_CDC_RegisterInterface>:
uint8_t  USBD_CDC_RegisterInterface  (USBD_HandleTypeDef   *pdev, 
                                      USBD_CDC_ItfTypeDef *fops)
{
  uint8_t  ret = USBD_FAIL;
  
  if(fops != NULL)
 8003362:	b119      	cbz	r1, 800336c <USBD_CDC_RegisterInterface+0xa>
  {
    pdev->pUserData= fops;
 8003364:	f8c0 121c 	str.w	r1, [r0, #540]	; 0x21c
    ret = USBD_OK;    
 8003368:	2000      	movs	r0, #0
 800336a:	4770      	bx	lr
  uint8_t  ret = USBD_FAIL;
 800336c:	2002      	movs	r0, #2
  }
  
  return ret;
}
 800336e:	4770      	bx	lr

08003370 <USBD_CDC_SetTxBuffer>:
  */
uint8_t  USBD_CDC_SetTxBuffer  (USBD_HandleTypeDef   *pdev,
                                uint8_t  *pbuff,
                                uint16_t length)
{
  USBD_CDC_HandleTypeDef   *hcdc = (USBD_CDC_HandleTypeDef*) pdev->pClassData;
 8003370:	f8d0 3218 	ldr.w	r3, [r0, #536]	; 0x218
  
  hcdc->TxBuffer = pbuff;
  hcdc->TxLength = length;  
  
  return USBD_OK;  
}
 8003374:	2000      	movs	r0, #0
  hcdc->TxBuffer = pbuff;
 8003376:	f8c3 1208 	str.w	r1, [r3, #520]	; 0x208
  hcdc->TxLength = length;  
 800337a:	f8c3 2210 	str.w	r2, [r3, #528]	; 0x210
}
 800337e:	4770      	bx	lr

08003380 <USBD_CDC_SetRxBuffer>:
uint8_t  USBD_CDC_SetRxBuffer  (USBD_HandleTypeDef   *pdev,
                                   uint8_t  *pbuff)
{
  USBD_CDC_HandleTypeDef   *hcdc = (USBD_CDC_HandleTypeDef*) pdev->pClassData;
  
  hcdc->RxBuffer = pbuff;
 8003380:	f8d0 3218 	ldr.w	r3, [r0, #536]	; 0x218
  
  return USBD_OK;
}
 8003384:	2000      	movs	r0, #0
  hcdc->RxBuffer = pbuff;
 8003386:	f8c3 1204 	str.w	r1, [r3, #516]	; 0x204
}
 800338a:	4770      	bx	lr

0800338c <USBD_CDC_TransmitPacket>:
  * @param  epnum: endpoint number
  * @retval status
  */
uint8_t  USBD_CDC_TransmitPacket(USBD_HandleTypeDef *pdev)
{      
  USBD_CDC_HandleTypeDef   *hcdc = (USBD_CDC_HandleTypeDef*) pdev->pClassData;
 800338c:	f8d0 2218 	ldr.w	r2, [r0, #536]	; 0x218
{      
 8003390:	b510      	push	{r4, lr}
  
  if(pdev->pClassData != NULL)
 8003392:	b172      	cbz	r2, 80033b2 <USBD_CDC_TransmitPacket+0x26>
  {
    if(hcdc->TxState == 0)
 8003394:	f8d2 4214 	ldr.w	r4, [r2, #532]	; 0x214
 8003398:	2301      	movs	r3, #1
 800339a:	b964      	cbnz	r4, 80033b6 <USBD_CDC_TransmitPacket+0x2a>
    {
      /* Tx Transfer in progress */
      hcdc->TxState = 1;
 800339c:	f8c2 3214 	str.w	r3, [r2, #532]	; 0x214
      
      /* Transmit next packet */
      USBD_LL_Transmit(pdev,
 80033a0:	2181      	movs	r1, #129	; 0x81
 80033a2:	f8b2 3210 	ldrh.w	r3, [r2, #528]	; 0x210
 80033a6:	f8d2 2208 	ldr.w	r2, [r2, #520]	; 0x208
 80033aa:	f001 f835 	bl	8004418 <USBD_LL_Transmit>
                       CDC_IN_EP,
                       hcdc->TxBuffer,
                       hcdc->TxLength);
      
      return USBD_OK;
 80033ae:	4620      	mov	r0, r4
 80033b0:	bd10      	pop	{r4, pc}
      return USBD_BUSY;
    }
  }
  else
  {
    return USBD_FAIL;
 80033b2:	2002      	movs	r0, #2
 80033b4:	bd10      	pop	{r4, pc}
      return USBD_BUSY;
 80033b6:	4618      	mov	r0, r3
  }
}
 80033b8:	bd10      	pop	{r4, pc}

080033ba <USBD_CDC_ReceivePacket>:
  * @param  pdev: device instance
  * @retval status
  */
uint8_t  USBD_CDC_ReceivePacket(USBD_HandleTypeDef *pdev)
{      
  USBD_CDC_HandleTypeDef   *hcdc = (USBD_CDC_HandleTypeDef*) pdev->pClassData;
 80033ba:	f8d0 2218 	ldr.w	r2, [r0, #536]	; 0x218
{      
 80033be:	b510      	push	{r4, lr}
  
  /* Suspend or Resume USB Out process */
  if(pdev->pClassData != NULL)
 80033c0:	b162      	cbz	r2, 80033dc <USBD_CDC_ReceivePacket+0x22>
  {
    if(pdev->dev_speed == USBD_SPEED_HIGH  ) 
 80033c2:	7c04      	ldrb	r4, [r0, #16]
 80033c4:	b944      	cbnz	r4, 80033d8 <USBD_CDC_ReceivePacket+0x1e>
    {      
      /* Prepare Out endpoint to receive next packet */
      USBD_LL_PrepareReceive(pdev,
 80033c6:	f44f 7300 	mov.w	r3, #512	; 0x200
                             CDC_DATA_HS_OUT_PACKET_SIZE);
    }
    else
    {
      /* Prepare Out endpoint to receive next packet */
      USBD_LL_PrepareReceive(pdev,
 80033ca:	f8d2 2204 	ldr.w	r2, [r2, #516]	; 0x204
 80033ce:	2101      	movs	r1, #1
 80033d0:	f001 f830 	bl	8004434 <USBD_LL_PrepareReceive>
                             CDC_OUT_EP,
                             hcdc->RxBuffer,
                             CDC_DATA_FS_OUT_PACKET_SIZE);
    }
    return USBD_OK;
 80033d4:	2000      	movs	r0, #0
 80033d6:	bd10      	pop	{r4, pc}
      USBD_LL_PrepareReceive(pdev,
 80033d8:	2340      	movs	r3, #64	; 0x40
 80033da:	e7f6      	b.n	80033ca <USBD_CDC_ReceivePacket+0x10>
  }
  else
  {
    return USBD_FAIL;
 80033dc:	2002      	movs	r0, #2
  }
}
 80033de:	bd10      	pop	{r4, pc}

080033e0 <USBD_HID_GetCfgDesc>:
  * @param  length : pointer data length
  * @retval pointer to descriptor buffer
  */
static uint8_t  *USBD_HID_GetCfgDesc (uint16_t *length)
{
  *length = sizeof (USBD_HID_CfgDesc);
 80033e0:	2322      	movs	r3, #34	; 0x22
 80033e2:	8003      	strh	r3, [r0, #0]
  return USBD_HID_CfgDesc;
}
 80033e4:	4800      	ldr	r0, [pc, #0]	; (80033e8 <USBD_HID_GetCfgDesc+0x8>)
 80033e6:	4770      	bx	lr
 80033e8:	20000178 	.word	0x20000178

080033ec <USBD_HID_DataIn>:
                              uint8_t epnum)
{
  
  /* Ensure that the FIFO is empty before a new transfer, this condition could 
  be caused by  a new transfer before the end of the previous transfer */
  ((USBD_HID_HandleTypeDef *)pdev->pClassData)->state = HID_IDLE;
 80033ec:	f8d0 3218 	ldr.w	r3, [r0, #536]	; 0x218
 80033f0:	2000      	movs	r0, #0
 80033f2:	7318      	strb	r0, [r3, #12]
  return USBD_OK;
}
 80033f4:	4770      	bx	lr
	...

080033f8 <USBD_HID_GetDeviceQualifierDesc>:
* @param  length : pointer data length
* @retval pointer to descriptor buffer
*/
static uint8_t  *USBD_HID_GetDeviceQualifierDesc (uint16_t *length)
{
  *length = sizeof (USBD_HID_DeviceQualifierDesc);
 80033f8:	230a      	movs	r3, #10
 80033fa:	8003      	strh	r3, [r0, #0]
  return USBD_HID_DeviceQualifierDesc;
}
 80033fc:	4800      	ldr	r0, [pc, #0]	; (8003400 <USBD_HID_GetDeviceQualifierDesc+0x8>)
 80033fe:	4770      	bx	lr
 8003400:	200001a8 	.word	0x200001a8

08003404 <USBD_HID_Setup>:
{
 8003404:	b538      	push	{r3, r4, r5, lr}
  switch (req->bmRequest & USB_REQ_TYPE_MASK)
 8003406:	780c      	ldrb	r4, [r1, #0]
  USBD_HID_HandleTypeDef     *hhid = (USBD_HID_HandleTypeDef*) pdev->pClassData;
 8003408:	f8d0 3218 	ldr.w	r3, [r0, #536]	; 0x218
  switch (req->bmRequest & USB_REQ_TYPE_MASK)
 800340c:	f014 0460 	ands.w	r4, r4, #96	; 0x60
{
 8003410:	4605      	mov	r5, r0
  switch (req->bmRequest & USB_REQ_TYPE_MASK)
 8003412:	d023      	beq.n	800345c <USBD_HID_Setup+0x58>
 8003414:	2c20      	cmp	r4, #32
 8003416:	d10c      	bne.n	8003432 <USBD_HID_Setup+0x2e>
    switch (req->bRequest)
 8003418:	784a      	ldrb	r2, [r1, #1]
 800341a:	3a02      	subs	r2, #2
 800341c:	2a09      	cmp	r2, #9
 800341e:	d817      	bhi.n	8003450 <USBD_HID_Setup+0x4c>
 8003420:	e8df f002 	tbb	[pc, r2]
 8003424:	16160913 	.word	0x16160913
 8003428:	16161616 	.word	0x16161616
 800342c:	050f      	.short	0x050f
      hhid->Protocol = (uint8_t)(req->wValue);
 800342e:	788a      	ldrb	r2, [r1, #2]
 8003430:	601a      	str	r2, [r3, #0]
  return USBD_OK;
 8003432:	2400      	movs	r4, #0
 8003434:	e010      	b.n	8003458 <USBD_HID_Setup+0x54>
      USBD_CtlSendData (pdev, 
 8003436:	2201      	movs	r2, #1
 8003438:	4619      	mov	r1, r3
      USBD_CtlSendData (pdev, 
 800343a:	4628      	mov	r0, r5
 800343c:	f000 fb3c 	bl	8003ab8 <USBD_CtlSendData>
 8003440:	e7f7      	b.n	8003432 <USBD_HID_Setup+0x2e>
      hhid->IdleState = (uint8_t)(req->wValue >> 8);
 8003442:	884a      	ldrh	r2, [r1, #2]
 8003444:	0a12      	lsrs	r2, r2, #8
 8003446:	605a      	str	r2, [r3, #4]
 8003448:	e7f3      	b.n	8003432 <USBD_HID_Setup+0x2e>
      USBD_CtlSendData (pdev, 
 800344a:	2201      	movs	r2, #1
 800344c:	1d19      	adds	r1, r3, #4
 800344e:	e7f4      	b.n	800343a <USBD_HID_Setup+0x36>
      USBD_CtlError (pdev, req);
 8003450:	4628      	mov	r0, r5
 8003452:	f000 fb0a 	bl	8003a6a <USBD_CtlError>
      return USBD_FAIL; 
 8003456:	2402      	movs	r4, #2
}
 8003458:	4620      	mov	r0, r4
 800345a:	bd38      	pop	{r3, r4, r5, pc}
    switch (req->bRequest)
 800345c:	784a      	ldrb	r2, [r1, #1]
 800345e:	2a0a      	cmp	r2, #10
 8003460:	d018      	beq.n	8003494 <USBD_HID_Setup+0x90>
 8003462:	2a0b      	cmp	r2, #11
 8003464:	d01c      	beq.n	80034a0 <USBD_HID_Setup+0x9c>
 8003466:	2a06      	cmp	r2, #6
 8003468:	d1f6      	bne.n	8003458 <USBD_HID_Setup+0x54>
      if( req->wValue >> 8 == HID_REPORT_DESC)
 800346a:	884b      	ldrh	r3, [r1, #2]
 800346c:	0a1b      	lsrs	r3, r3, #8
 800346e:	2b22      	cmp	r3, #34	; 0x22
 8003470:	d105      	bne.n	800347e <USBD_HID_Setup+0x7a>
        len = MIN(HID_MOUSE_REPORT_DESC_SIZE , req->wLength);
 8003472:	88ca      	ldrh	r2, [r1, #6]
        pbuf = HID_MOUSE_ReportDesc;
 8003474:	490c      	ldr	r1, [pc, #48]	; (80034a8 <USBD_HID_Setup+0xa4>)
        len = MIN(HID_MOUSE_REPORT_DESC_SIZE , req->wLength);
 8003476:	2a2d      	cmp	r2, #45	; 0x2d
 8003478:	bf28      	it	cs
 800347a:	222d      	movcs	r2, #45	; 0x2d
 800347c:	e7dd      	b.n	800343a <USBD_HID_Setup+0x36>
      else if( req->wValue >> 8 == HID_DESCRIPTOR_TYPE)
 800347e:	2b21      	cmp	r3, #33	; 0x21
 8003480:	d105      	bne.n	800348e <USBD_HID_Setup+0x8a>
        len = MIN(USB_HID_DESC_SIZ , req->wLength);
 8003482:	88ca      	ldrh	r2, [r1, #6]
        pbuf = USBD_HID_Desc;   
 8003484:	4909      	ldr	r1, [pc, #36]	; (80034ac <USBD_HID_Setup+0xa8>)
        len = MIN(USB_HID_DESC_SIZ , req->wLength);
 8003486:	2a09      	cmp	r2, #9
 8003488:	bf28      	it	cs
 800348a:	2209      	movcs	r2, #9
 800348c:	e7d5      	b.n	800343a <USBD_HID_Setup+0x36>
  uint8_t  *pbuf = NULL;
 800348e:	4621      	mov	r1, r4
  uint16_t len = 0;
 8003490:	4622      	mov	r2, r4
 8003492:	e7d2      	b.n	800343a <USBD_HID_Setup+0x36>
      USBD_CtlSendData (pdev,
 8003494:	2201      	movs	r2, #1
 8003496:	f103 0108 	add.w	r1, r3, #8
 800349a:	f000 fb0d 	bl	8003ab8 <USBD_CtlSendData>
      break;
 800349e:	e7db      	b.n	8003458 <USBD_HID_Setup+0x54>
      hhid->AltSetting = (uint8_t)(req->wValue);
 80034a0:	788a      	ldrb	r2, [r1, #2]
 80034a2:	609a      	str	r2, [r3, #8]
      break;
 80034a4:	e7d8      	b.n	8003458 <USBD_HID_Setup+0x54>
 80034a6:	bf00      	nop
 80034a8:	20000110 	.word	0x20000110
 80034ac:	2000019c 	.word	0x2000019c

080034b0 <USBD_HID_DeInit>:
{
 80034b0:	b510      	push	{r4, lr}
 80034b2:	4604      	mov	r4, r0
  USBD_LL_CloseEP(pdev,
 80034b4:	2181      	movs	r1, #129	; 0x81
 80034b6:	f000 ff67 	bl	8004388 <USBD_LL_CloseEP>
  if(pdev->pClassData != NULL)
 80034ba:	f8d4 0218 	ldr.w	r0, [r4, #536]	; 0x218
 80034be:	b120      	cbz	r0, 80034ca <USBD_HID_DeInit+0x1a>
    USBD_free(pdev->pClassData);
 80034c0:	f001 f800 	bl	80044c4 <USBD_static_free>
    pdev->pClassData = NULL;
 80034c4:	2300      	movs	r3, #0
 80034c6:	f8c4 3218 	str.w	r3, [r4, #536]	; 0x218
}
 80034ca:	2000      	movs	r0, #0
 80034cc:	bd10      	pop	{r4, pc}

080034ce <USBD_HID_Init>:
{
 80034ce:	b510      	push	{r4, lr}
  USBD_LL_OpenEP(pdev,
 80034d0:	2308      	movs	r3, #8
 80034d2:	2203      	movs	r2, #3
 80034d4:	2181      	movs	r1, #129	; 0x81
{
 80034d6:	4604      	mov	r4, r0
  USBD_LL_OpenEP(pdev,
 80034d8:	f000 ff46 	bl	8004368 <USBD_LL_OpenEP>
  pdev->pClassData = USBD_malloc(sizeof (USBD_HID_HandleTypeDef));
 80034dc:	2010      	movs	r0, #16
 80034de:	f000 ffe1 	bl	80044a4 <USBD_static_malloc>
 80034e2:	f8c4 0218 	str.w	r0, [r4, #536]	; 0x218
  if(pdev->pClassData == NULL)
 80034e6:	b118      	cbz	r0, 80034f0 <USBD_HID_Init+0x22>
    ((USBD_HID_HandleTypeDef *)pdev->pClassData)->state = HID_IDLE;
 80034e8:	2300      	movs	r3, #0
 80034ea:	7303      	strb	r3, [r0, #12]
  uint8_t ret = 0;
 80034ec:	4618      	mov	r0, r3
 80034ee:	bd10      	pop	{r4, pc}
    ret = 1; 
 80034f0:	2001      	movs	r0, #1
}
 80034f2:	bd10      	pop	{r4, pc}

080034f4 <USBD_Init>:
* @param  pdesc: Descriptor structure address
* @param  id: Low level core index
* @retval None
*/
USBD_StatusTypeDef USBD_Init(USBD_HandleTypeDef *pdev, USBD_DescriptorsTypeDef *pdesc, uint8_t id)
{
 80034f4:	b508      	push	{r3, lr}
  /* Check whether the USB Host handle is valid */
  if(pdev == NULL)
 80034f6:	b180      	cbz	r0, 800351a <USBD_Init+0x26>
    USBD_ErrLog("Invalid Device handle");
    return USBD_FAIL; 
  }
  
  /* Unlink previous class*/
  if(pdev->pClass != NULL)
 80034f8:	f8d0 3214 	ldr.w	r3, [r0, #532]	; 0x214
 80034fc:	b113      	cbz	r3, 8003504 <USBD_Init+0x10>
  {
    pdev->pClass = NULL;
 80034fe:	2300      	movs	r3, #0
 8003500:	f8c0 3214 	str.w	r3, [r0, #532]	; 0x214
  }
  
  /* Assign USBD Descriptors */
  if(pdesc != NULL)
 8003504:	b109      	cbz	r1, 800350a <USBD_Init+0x16>
  {
    pdev->pDesc = pdesc;
 8003506:	f8c0 1210 	str.w	r1, [r0, #528]	; 0x210
  }
  
  /* Set Device initial State */
  pdev->dev_state  = USBD_STATE_DEFAULT;
 800350a:	2301      	movs	r3, #1
 800350c:	f880 31fc 	strb.w	r3, [r0, #508]	; 0x1fc
  pdev->id = id;
 8003510:	7002      	strb	r2, [r0, #0]
  /* Initialize low level driver */
  USBD_LL_Init(pdev);
 8003512:	f000 fec9 	bl	80042a8 <USBD_LL_Init>
  
  return USBD_OK; 
 8003516:	2000      	movs	r0, #0
 8003518:	bd08      	pop	{r3, pc}
    return USBD_FAIL; 
 800351a:	2002      	movs	r0, #2
}
 800351c:	bd08      	pop	{r3, pc}

0800351e <USBD_RegisterClass>:
  * @retval USBD Status
  */
USBD_StatusTypeDef  USBD_RegisterClass(USBD_HandleTypeDef *pdev, USBD_ClassTypeDef *pclass)
{
  USBD_StatusTypeDef   status = USBD_OK;
  if(pclass != 0)
 800351e:	b119      	cbz	r1, 8003528 <USBD_RegisterClass+0xa>
  {
    /* link the class to the USB Device handle */
    pdev->pClass = pclass;
 8003520:	f8c0 1214 	str.w	r1, [r0, #532]	; 0x214
    status = USBD_OK;
 8003524:	2000      	movs	r0, #0
 8003526:	4770      	bx	lr
  }
  else
  {
    USBD_ErrLog("Invalid Class handle");
    status = USBD_FAIL; 
 8003528:	2002      	movs	r0, #2
  }
  
  return status;
}
 800352a:	4770      	bx	lr

0800352c <USBD_Start>:
  *         Start the USB Device Core.
  * @param  pdev: Device Handle
  * @retval USBD Status
  */
USBD_StatusTypeDef  USBD_Start  (USBD_HandleTypeDef *pdev)
{
 800352c:	b508      	push	{r3, lr}
  
  /* Start the low level driver  */
  USBD_LL_Start(pdev); 
 800352e:	f000 ff0d 	bl	800434c <USBD_LL_Start>
  
  return USBD_OK;  
}
 8003532:	2000      	movs	r0, #0
 8003534:	bd08      	pop	{r3, pc}

08003536 <USBD_SetClassConfig>:
* @param  cfgidx: configuration index
* @retval status
*/

USBD_StatusTypeDef USBD_SetClassConfig(USBD_HandleTypeDef  *pdev, uint8_t cfgidx)
{
 8003536:	b508      	push	{r3, lr}
  USBD_StatusTypeDef   ret = USBD_FAIL;
  
  if(pdev->pClass != NULL)
 8003538:	f8d0 3214 	ldr.w	r3, [r0, #532]	; 0x214
 800353c:	b90b      	cbnz	r3, 8003542 <USBD_SetClassConfig+0xc>
  USBD_StatusTypeDef   ret = USBD_FAIL;
 800353e:	2002      	movs	r0, #2
 8003540:	bd08      	pop	{r3, pc}
  {
    /* Set configuration  and Start the Class*/
    if(pdev->pClass->Init(pdev, cfgidx) == 0)
 8003542:	681b      	ldr	r3, [r3, #0]
 8003544:	4798      	blx	r3
 8003546:	2800      	cmp	r0, #0
 8003548:	d1f9      	bne.n	800353e <USBD_SetClassConfig+0x8>
    {
      ret = USBD_OK;
    }
  }
  return ret; 
}
 800354a:	bd08      	pop	{r3, pc}

0800354c <USBD_ClrClassConfig>:
* @param  pdev: device instance
* @param  cfgidx: configuration index
* @retval status: USBD_StatusTypeDef
*/
USBD_StatusTypeDef USBD_ClrClassConfig(USBD_HandleTypeDef  *pdev, uint8_t cfgidx)
{
 800354c:	b508      	push	{r3, lr}
  /* Clear configuration  and De-initialize the Class process*/
  pdev->pClass->DeInit(pdev, cfgidx);  
 800354e:	f8d0 3214 	ldr.w	r3, [r0, #532]	; 0x214
 8003552:	685b      	ldr	r3, [r3, #4]
 8003554:	4798      	blx	r3
  return USBD_OK;
}
 8003556:	2000      	movs	r0, #0
 8003558:	bd08      	pop	{r3, pc}

0800355a <USBD_LL_SetupStage>:
*         Handle the setup stage
* @param  pdev: device instance
* @retval status
*/
USBD_StatusTypeDef USBD_LL_SetupStage(USBD_HandleTypeDef *pdev, uint8_t *psetup)
{
 800355a:	b538      	push	{r3, r4, r5, lr}
 800355c:	4604      	mov	r4, r0

  USBD_ParseSetupRequest(&pdev->request, psetup);
 800355e:	f500 7502 	add.w	r5, r0, #520	; 0x208
 8003562:	4628      	mov	r0, r5
 8003564:	f000 fa6d 	bl	8003a42 <USBD_ParseSetupRequest>
  
  pdev->ep0_state = USBD_EP0_SETUP;
 8003568:	2301      	movs	r3, #1
  pdev->ep0_data_len = pdev->request.wLength;
  
  switch (pdev->request.bmRequest & 0x1F) 
 800356a:	f894 1208 	ldrb.w	r1, [r4, #520]	; 0x208
  pdev->ep0_state = USBD_EP0_SETUP;
 800356e:	f8c4 31f4 	str.w	r3, [r4, #500]	; 0x1f4
  pdev->ep0_data_len = pdev->request.wLength;
 8003572:	f8b4 320e 	ldrh.w	r3, [r4, #526]	; 0x20e
 8003576:	f8c4 31f8 	str.w	r3, [r4, #504]	; 0x1f8
  switch (pdev->request.bmRequest & 0x1F) 
 800357a:	f001 031f 	and.w	r3, r1, #31
 800357e:	2b01      	cmp	r3, #1
 8003580:	d00e      	beq.n	80035a0 <USBD_LL_SetupStage+0x46>
 8003582:	d307      	bcc.n	8003594 <USBD_LL_SetupStage+0x3a>
 8003584:	2b02      	cmp	r3, #2
 8003586:	d010      	beq.n	80035aa <USBD_LL_SetupStage+0x50>
  case USB_REQ_RECIPIENT_ENDPOINT:        
    USBD_StdEPReq(pdev, &pdev->request);   
    break;
    
  default:           
    USBD_LL_StallEP(pdev , pdev->request.bmRequest & 0x80);
 8003588:	f001 0180 	and.w	r1, r1, #128	; 0x80
 800358c:	4620      	mov	r0, r4
 800358e:	f000 ff09 	bl	80043a4 <USBD_LL_StallEP>
    break;
 8003592:	e003      	b.n	800359c <USBD_LL_SetupStage+0x42>
    USBD_StdDevReq (pdev, &pdev->request);
 8003594:	4629      	mov	r1, r5
 8003596:	4620      	mov	r0, r4
 8003598:	f000 f8d6 	bl	8003748 <USBD_StdDevReq>
  }  
  return USBD_OK;  
}
 800359c:	2000      	movs	r0, #0
 800359e:	bd38      	pop	{r3, r4, r5, pc}
    USBD_StdItfReq(pdev, &pdev->request);
 80035a0:	4629      	mov	r1, r5
 80035a2:	4620      	mov	r0, r4
 80035a4:	f000 f9d2 	bl	800394c <USBD_StdItfReq>
    break;
 80035a8:	e7f8      	b.n	800359c <USBD_LL_SetupStage+0x42>
    USBD_StdEPReq(pdev, &pdev->request);   
 80035aa:	4629      	mov	r1, r5
 80035ac:	4620      	mov	r0, r4
 80035ae:	f000 f9e5 	bl	800397c <USBD_StdEPReq>
    break;
 80035b2:	e7f3      	b.n	800359c <USBD_LL_SetupStage+0x42>

080035b4 <USBD_LL_DataOutStage>:
* @param  pdev: device instance
* @param  epnum: endpoint index
* @retval status
*/
USBD_StatusTypeDef USBD_LL_DataOutStage(USBD_HandleTypeDef *pdev , uint8_t epnum, uint8_t *pdata)
{
 80035b4:	b538      	push	{r3, r4, r5, lr}
 80035b6:	4604      	mov	r4, r0
 80035b8:	4615      	mov	r5, r2
  USBD_EndpointTypeDef    *pep;
  
  if(epnum == 0) 
 80035ba:	bb11      	cbnz	r1, 8003602 <USBD_LL_DataOutStage+0x4e>
  {
    pep = &pdev->ep_out[0];
    
    if ( pdev->ep0_state == USBD_EP0_DATA_OUT)
 80035bc:	f8d0 31f4 	ldr.w	r3, [r0, #500]	; 0x1f4
 80035c0:	2b03      	cmp	r3, #3
 80035c2:	d10f      	bne.n	80035e4 <USBD_LL_DataOutStage+0x30>
    {
      if(pep->rem_length > pep->maxpacket)
 80035c4:	f8d0 310c 	ldr.w	r3, [r0, #268]	; 0x10c
 80035c8:	f8d0 2110 	ldr.w	r2, [r0, #272]	; 0x110
 80035cc:	4293      	cmp	r3, r2
 80035ce:	d90b      	bls.n	80035e8 <USBD_LL_DataOutStage+0x34>
      {
        pep->rem_length -=  pep->maxpacket;
 80035d0:	1a9b      	subs	r3, r3, r2
       
        USBD_CtlContinueRx (pdev, 
                            pdata,
                            MIN(pep->rem_length ,pep->maxpacket));
 80035d2:	429a      	cmp	r2, r3
 80035d4:	bf28      	it	cs
 80035d6:	461a      	movcs	r2, r3
        pep->rem_length -=  pep->maxpacket;
 80035d8:	f8c0 310c 	str.w	r3, [r0, #268]	; 0x10c
        USBD_CtlContinueRx (pdev, 
 80035dc:	b292      	uxth	r2, r2
 80035de:	4629      	mov	r1, r5
 80035e0:	f000 fa8e 	bl	8003b00 <USBD_CtlContinueRx>
          (pdev->dev_state == USBD_STATE_CONFIGURED))
  {
    pdev->pClass->DataOut(pdev, epnum); 
  }  
  return USBD_OK;
}
 80035e4:	2000      	movs	r0, #0
 80035e6:	bd38      	pop	{r3, r4, r5, pc}
        if((pdev->pClass->EP0_RxReady != NULL)&&
 80035e8:	f8d0 3214 	ldr.w	r3, [r0, #532]	; 0x214
 80035ec:	691b      	ldr	r3, [r3, #16]
 80035ee:	b123      	cbz	r3, 80035fa <USBD_LL_DataOutStage+0x46>
 80035f0:	f890 21fc 	ldrb.w	r2, [r0, #508]	; 0x1fc
 80035f4:	2a03      	cmp	r2, #3
 80035f6:	d100      	bne.n	80035fa <USBD_LL_DataOutStage+0x46>
          pdev->pClass->EP0_RxReady(pdev); 
 80035f8:	4798      	blx	r3
        USBD_CtlSendStatus(pdev);
 80035fa:	4620      	mov	r0, r4
 80035fc:	f000 fa88 	bl	8003b10 <USBD_CtlSendStatus>
 8003600:	e7f0      	b.n	80035e4 <USBD_LL_DataOutStage+0x30>
  else if((pdev->pClass->DataOut != NULL)&&
 8003602:	f8d0 3214 	ldr.w	r3, [r0, #532]	; 0x214
 8003606:	699b      	ldr	r3, [r3, #24]
 8003608:	2b00      	cmp	r3, #0
 800360a:	d0eb      	beq.n	80035e4 <USBD_LL_DataOutStage+0x30>
 800360c:	f890 21fc 	ldrb.w	r2, [r0, #508]	; 0x1fc
 8003610:	2a03      	cmp	r2, #3
 8003612:	d1e7      	bne.n	80035e4 <USBD_LL_DataOutStage+0x30>
    pdev->pClass->DataOut(pdev, epnum); 
 8003614:	4798      	blx	r3
 8003616:	e7e5      	b.n	80035e4 <USBD_LL_DataOutStage+0x30>

08003618 <USBD_LL_DataInStage>:
* @param  pdev: device instance
* @param  epnum: endpoint index
* @retval status
*/
USBD_StatusTypeDef USBD_LL_DataInStage(USBD_HandleTypeDef *pdev ,uint8_t epnum, uint8_t *pdata)
{
 8003618:	b570      	push	{r4, r5, r6, lr}
 800361a:	4613      	mov	r3, r2
 800361c:	4604      	mov	r4, r0
  USBD_EndpointTypeDef    *pep;
    
  if(epnum == 0) 
 800361e:	460e      	mov	r6, r1
 8003620:	2900      	cmp	r1, #0
 8003622:	d13d      	bne.n	80036a0 <USBD_LL_DataInStage+0x88>
  {
    pep = &pdev->ep_in[0];
    
    if ( pdev->ep0_state == USBD_EP0_DATA_IN)
 8003624:	f8d0 21f4 	ldr.w	r2, [r0, #500]	; 0x1f4
 8003628:	2a02      	cmp	r2, #2
 800362a:	d10f      	bne.n	800364c <USBD_LL_DataInStage+0x34>
    {
      if(pep->rem_length > pep->maxpacket)
 800362c:	69c5      	ldr	r5, [r0, #28]
 800362e:	6a02      	ldr	r2, [r0, #32]
 8003630:	4295      	cmp	r5, r2
 8003632:	d914      	bls.n	800365e <USBD_LL_DataInStage+0x46>
      {
        pep->rem_length -=  pep->maxpacket;
 8003634:	1aaa      	subs	r2, r5, r2
 8003636:	61c2      	str	r2, [r0, #28]
        
        USBD_CtlContinueSendData (pdev, 
 8003638:	4619      	mov	r1, r3
 800363a:	b292      	uxth	r2, r2
 800363c:	f000 fa49 	bl	8003ad2 <USBD_CtlContinueSendData>
                                  pdata, 
                                  pep->rem_length);
        
        /* Prepare endpoint for premature end of transfer */
        USBD_LL_PrepareReceive (pdev,
 8003640:	4633      	mov	r3, r6
          
          USBD_CtlContinueSendData(pdev , NULL, 0);
          pdev->ep0_data_len = 0;
          
        /* Prepare endpoint for premature end of transfer */
        USBD_LL_PrepareReceive (pdev,
 8003642:	461a      	mov	r2, r3
 8003644:	4619      	mov	r1, r3
 8003646:	4620      	mov	r0, r4
 8003648:	f000 fef4 	bl	8004434 <USBD_LL_PrepareReceive>
          }          
          USBD_CtlReceiveStatus(pdev);
        }
      }
    }
    if (pdev->dev_test_mode == 1)
 800364c:	f894 3200 	ldrb.w	r3, [r4, #512]	; 0x200
 8003650:	2b01      	cmp	r3, #1
 8003652:	d102      	bne.n	800365a <USBD_LL_DataInStage+0x42>
    {
      USBD_RunTestMode(pdev); 
      pdev->dev_test_mode = 0;
 8003654:	2300      	movs	r3, #0
 8003656:	f884 3200 	strb.w	r3, [r4, #512]	; 0x200
          (pdev->dev_state == USBD_STATE_CONFIGURED))
  {
    pdev->pClass->DataIn(pdev, epnum); 
  }  
  return USBD_OK;
}
 800365a:	2000      	movs	r0, #0
 800365c:	bd70      	pop	{r4, r5, r6, pc}
        if((pep->total_length % pep->maxpacket == 0) &&
 800365e:	6983      	ldr	r3, [r0, #24]
 8003660:	fbb3 f5f2 	udiv	r5, r3, r2
 8003664:	fb02 3515 	mls	r5, r2, r5, r3
 8003668:	b965      	cbnz	r5, 8003684 <USBD_LL_DataInStage+0x6c>
 800366a:	429a      	cmp	r2, r3
 800366c:	d80a      	bhi.n	8003684 <USBD_LL_DataInStage+0x6c>
           (pep->total_length >= pep->maxpacket) &&
 800366e:	f8d0 21f8 	ldr.w	r2, [r0, #504]	; 0x1f8
 8003672:	4293      	cmp	r3, r2
 8003674:	d206      	bcs.n	8003684 <USBD_LL_DataInStage+0x6c>
          USBD_CtlContinueSendData(pdev , NULL, 0);
 8003676:	462a      	mov	r2, r5
 8003678:	f000 fa2b 	bl	8003ad2 <USBD_CtlContinueSendData>
          pdev->ep0_data_len = 0;
 800367c:	f8c4 51f8 	str.w	r5, [r4, #504]	; 0x1f8
        USBD_LL_PrepareReceive (pdev,
 8003680:	462b      	mov	r3, r5
 8003682:	e7de      	b.n	8003642 <USBD_LL_DataInStage+0x2a>
          if((pdev->pClass->EP0_TxSent != NULL)&&
 8003684:	f8d4 3214 	ldr.w	r3, [r4, #532]	; 0x214
 8003688:	68db      	ldr	r3, [r3, #12]
 800368a:	b12b      	cbz	r3, 8003698 <USBD_LL_DataInStage+0x80>
 800368c:	f894 21fc 	ldrb.w	r2, [r4, #508]	; 0x1fc
 8003690:	2a03      	cmp	r2, #3
 8003692:	d101      	bne.n	8003698 <USBD_LL_DataInStage+0x80>
            pdev->pClass->EP0_TxSent(pdev); 
 8003694:	4620      	mov	r0, r4
 8003696:	4798      	blx	r3
          USBD_CtlReceiveStatus(pdev);
 8003698:	4620      	mov	r0, r4
 800369a:	f000 fa44 	bl	8003b26 <USBD_CtlReceiveStatus>
 800369e:	e7d5      	b.n	800364c <USBD_LL_DataInStage+0x34>
  else if((pdev->pClass->DataIn != NULL)&& 
 80036a0:	f8d0 3214 	ldr.w	r3, [r0, #532]	; 0x214
 80036a4:	695b      	ldr	r3, [r3, #20]
 80036a6:	2b00      	cmp	r3, #0
 80036a8:	d0d7      	beq.n	800365a <USBD_LL_DataInStage+0x42>
 80036aa:	f890 21fc 	ldrb.w	r2, [r0, #508]	; 0x1fc
 80036ae:	2a03      	cmp	r2, #3
 80036b0:	d1d3      	bne.n	800365a <USBD_LL_DataInStage+0x42>
    pdev->pClass->DataIn(pdev, epnum); 
 80036b2:	4798      	blx	r3
 80036b4:	e7d1      	b.n	800365a <USBD_LL_DataInStage+0x42>

080036b6 <USBD_LL_Reset>:
* @param  pdev: device instance
* @retval status
*/

USBD_StatusTypeDef USBD_LL_Reset(USBD_HandleTypeDef  *pdev)
{
 80036b6:	b538      	push	{r3, r4, r5, lr}
  /* Open EP0 OUT */
  USBD_LL_OpenEP(pdev,
 80036b8:	2200      	movs	r2, #0
{
 80036ba:	4604      	mov	r4, r0
  USBD_LL_OpenEP(pdev,
 80036bc:	4611      	mov	r1, r2
              0x00,
              USBD_EP_TYPE_CTRL,
              USB_MAX_EP0_SIZE);
  
  pdev->ep_out[0].maxpacket = USB_MAX_EP0_SIZE;
 80036be:	2540      	movs	r5, #64	; 0x40
  USBD_LL_OpenEP(pdev,
 80036c0:	2340      	movs	r3, #64	; 0x40
 80036c2:	f000 fe51 	bl	8004368 <USBD_LL_OpenEP>
  
  /* Open EP0 IN */
  USBD_LL_OpenEP(pdev,
 80036c6:	462b      	mov	r3, r5
  pdev->ep_out[0].maxpacket = USB_MAX_EP0_SIZE;
 80036c8:	f8c4 5110 	str.w	r5, [r4, #272]	; 0x110
  USBD_LL_OpenEP(pdev,
 80036cc:	2200      	movs	r2, #0
 80036ce:	2180      	movs	r1, #128	; 0x80
 80036d0:	4620      	mov	r0, r4
 80036d2:	f000 fe49 	bl	8004368 <USBD_LL_OpenEP>
              USBD_EP_TYPE_CTRL,
              USB_MAX_EP0_SIZE);
  
  pdev->ep_in[0].maxpacket = USB_MAX_EP0_SIZE;
  /* Upon Reset call user call back */
  pdev->dev_state = USBD_STATE_DEFAULT;
 80036d6:	2301      	movs	r3, #1
 80036d8:	f884 31fc 	strb.w	r3, [r4, #508]	; 0x1fc
  
  if (pdev->pClassData) 
 80036dc:	f8d4 3218 	ldr.w	r3, [r4, #536]	; 0x218
  pdev->ep_in[0].maxpacket = USB_MAX_EP0_SIZE;
 80036e0:	6225      	str	r5, [r4, #32]
  if (pdev->pClassData) 
 80036e2:	b12b      	cbz	r3, 80036f0 <USBD_LL_Reset+0x3a>
    pdev->pClass->DeInit(pdev, pdev->dev_config);  
 80036e4:	f8d4 3214 	ldr.w	r3, [r4, #532]	; 0x214
 80036e8:	7921      	ldrb	r1, [r4, #4]
 80036ea:	685b      	ldr	r3, [r3, #4]
 80036ec:	4620      	mov	r0, r4
 80036ee:	4798      	blx	r3
 
  
  return USBD_OK;
}
 80036f0:	2000      	movs	r0, #0
 80036f2:	bd38      	pop	{r3, r4, r5, pc}

080036f4 <USBD_LL_SetSpeed>:
* @param  pdev: device instance
* @retval status
*/
USBD_StatusTypeDef USBD_LL_SetSpeed(USBD_HandleTypeDef  *pdev, USBD_SpeedTypeDef speed)
{
  pdev->dev_speed = speed;
 80036f4:	7401      	strb	r1, [r0, #16]
  return USBD_OK;
}
 80036f6:	2000      	movs	r0, #0
 80036f8:	4770      	bx	lr

080036fa <USBD_LL_Suspend>:
* @retval status
*/

USBD_StatusTypeDef USBD_LL_Suspend(USBD_HandleTypeDef  *pdev)
{
  pdev->dev_old_state =  pdev->dev_state;
 80036fa:	f890 31fc 	ldrb.w	r3, [r0, #508]	; 0x1fc
 80036fe:	f880 31fd 	strb.w	r3, [r0, #509]	; 0x1fd
  pdev->dev_state  = USBD_STATE_SUSPENDED;
 8003702:	2304      	movs	r3, #4
 8003704:	f880 31fc 	strb.w	r3, [r0, #508]	; 0x1fc
  return USBD_OK;
}
 8003708:	2000      	movs	r0, #0
 800370a:	4770      	bx	lr

0800370c <USBD_LL_Resume>:
* @retval status
*/

USBD_StatusTypeDef USBD_LL_Resume(USBD_HandleTypeDef  *pdev)
{
  pdev->dev_state = pdev->dev_old_state;  
 800370c:	f890 31fd 	ldrb.w	r3, [r0, #509]	; 0x1fd
 8003710:	f880 31fc 	strb.w	r3, [r0, #508]	; 0x1fc
  return USBD_OK;
}
 8003714:	2000      	movs	r0, #0
 8003716:	4770      	bx	lr

08003718 <USBD_LL_SOF>:
* @param  pdev: device instance
* @retval status
*/

USBD_StatusTypeDef USBD_LL_SOF(USBD_HandleTypeDef  *pdev)
{
 8003718:	b508      	push	{r3, lr}
  if(pdev->dev_state == USBD_STATE_CONFIGURED)
 800371a:	f890 21fc 	ldrb.w	r2, [r0, #508]	; 0x1fc
 800371e:	2a03      	cmp	r2, #3
 8003720:	d104      	bne.n	800372c <USBD_LL_SOF+0x14>
  {
    if(pdev->pClass->SOF != NULL)
 8003722:	f8d0 3214 	ldr.w	r3, [r0, #532]	; 0x214
 8003726:	69db      	ldr	r3, [r3, #28]
 8003728:	b103      	cbz	r3, 800372c <USBD_LL_SOF+0x14>
    {
      pdev->pClass->SOF(pdev);
 800372a:	4798      	blx	r3
    }
  }
  return USBD_OK;
}
 800372c:	2000      	movs	r0, #0
 800372e:	bd08      	pop	{r3, pc}

08003730 <USBD_CtlError.constprop.0>:
* @param  pdev: device instance
* @param  req: usb request
* @retval None
*/

void USBD_CtlError( USBD_HandleTypeDef *pdev ,
 8003730:	b510      	push	{r4, lr}
                            USBD_SetupReqTypedef *req)
{
  USBD_LL_StallEP(pdev , 0x80);
 8003732:	2180      	movs	r1, #128	; 0x80
void USBD_CtlError( USBD_HandleTypeDef *pdev ,
 8003734:	4604      	mov	r4, r0
  USBD_LL_StallEP(pdev , 0x80);
 8003736:	f000 fe35 	bl	80043a4 <USBD_LL_StallEP>
  USBD_LL_StallEP(pdev , 0);
 800373a:	4620      	mov	r0, r4
 800373c:	2100      	movs	r1, #0
}
 800373e:	e8bd 4010 	ldmia.w	sp!, {r4, lr}
  USBD_LL_StallEP(pdev , 0);
 8003742:	f000 be2f 	b.w	80043a4 <USBD_LL_StallEP>
	...

08003748 <USBD_StdDevReq>:
{
 8003748:	b537      	push	{r0, r1, r2, r4, r5, lr}
  switch (req->bRequest) 
 800374a:	784b      	ldrb	r3, [r1, #1]
{
 800374c:	4604      	mov	r4, r0
 800374e:	460d      	mov	r5, r1
  switch (req->bRequest) 
 8003750:	2b09      	cmp	r3, #9
 8003752:	f200 8082 	bhi.w	800385a <USBD_StdDevReq+0x112>
 8003756:	e8df f013 	tbh	[pc, r3, lsl #1]
 800375a:	00d1      	.short	0x00d1
 800375c:	008000ed 	.word	0x008000ed
 8003760:	008000e1 	.word	0x008000e1
 8003764:	000a0075 	.word	0x000a0075
 8003768:	00c10080 	.word	0x00c10080
 800376c:	0095      	.short	0x0095
  switch (req->wValue >> 8)
 800376e:	884b      	ldrh	r3, [r1, #2]
 8003770:	0a1a      	lsrs	r2, r3, #8
 8003772:	3a01      	subs	r2, #1
 8003774:	2a0e      	cmp	r2, #14
 8003776:	d870      	bhi.n	800385a <USBD_StdDevReq+0x112>
 8003778:	e8df f002 	tbb	[pc, r2]
 800377c:	6f312420 	.word	0x6f312420
 8003780:	6f5a516f 	.word	0x6f5a516f
 8003784:	6f6f6f6f 	.word	0x6f6f6f6f
 8003788:	6f6f      	.short	0x6f6f
 800378a:	08          	.byte	0x08
 800378b:	00          	.byte	0x00
    pbuf = pdev->pDesc->GetBOSDescriptor(pdev->dev_speed, &len);
 800378c:	f8d0 3210 	ldr.w	r3, [r0, #528]	; 0x210
 8003790:	69db      	ldr	r3, [r3, #28]
    pbuf = pdev->pDesc->GetDeviceDescriptor(pdev->dev_speed, &len);
 8003792:	7c20      	ldrb	r0, [r4, #16]
 8003794:	f10d 0106 	add.w	r1, sp, #6
 8003798:	4798      	blx	r3
  if((len != 0)&& (req->wLength != 0))
 800379a:	f8bd 2006 	ldrh.w	r2, [sp, #6]
 800379e:	2a00      	cmp	r2, #0
 80037a0:	d06b      	beq.n	800387a <USBD_StdDevReq+0x132>
 80037a2:	88eb      	ldrh	r3, [r5, #6]
 80037a4:	2b00      	cmp	r3, #0
 80037a6:	d068      	beq.n	800387a <USBD_StdDevReq+0x132>
    len = MIN(len , req->wLength);
 80037a8:	429a      	cmp	r2, r3
 80037aa:	bf28      	it	cs
 80037ac:	461a      	movcs	r2, r3
 80037ae:	f8ad 2006 	strh.w	r2, [sp, #6]
    USBD_CtlSendData (pdev, 
 80037b2:	4601      	mov	r1, r0
    USBD_CtlSendData (pdev, 
 80037b4:	4620      	mov	r0, r4
 80037b6:	f000 f97f 	bl	8003ab8 <USBD_CtlSendData>
 80037ba:	e05e      	b.n	800387a <USBD_StdDevReq+0x132>
    pbuf = pdev->pDesc->GetDeviceDescriptor(pdev->dev_speed, &len);
 80037bc:	f8d0 3210 	ldr.w	r3, [r0, #528]	; 0x210
 80037c0:	681b      	ldr	r3, [r3, #0]
 80037c2:	e7e6      	b.n	8003792 <USBD_StdDevReq+0x4a>
    if(pdev->dev_speed == USBD_SPEED_HIGH )   
 80037c4:	7c02      	ldrb	r2, [r0, #16]
 80037c6:	f8d0 3214 	ldr.w	r3, [r0, #532]	; 0x214
 80037ca:	b932      	cbnz	r2, 80037da <USBD_StdDevReq+0x92>
      pbuf   = (uint8_t *)pdev->pClass->GetHSConfigDescriptor(&len);
 80037cc:	6a9b      	ldr	r3, [r3, #40]	; 0x28
      pbuf   = (uint8_t *)pdev->pClass->GetFSConfigDescriptor(&len);
 80037ce:	f10d 0006 	add.w	r0, sp, #6
 80037d2:	4798      	blx	r3
      pbuf[1] = USB_DESC_TYPE_CONFIGURATION;
 80037d4:	2302      	movs	r3, #2
      pbuf[1] = USB_DESC_TYPE_OTHER_SPEED_CONFIGURATION;
 80037d6:	7043      	strb	r3, [r0, #1]
 80037d8:	e7df      	b.n	800379a <USBD_StdDevReq+0x52>
      pbuf   = (uint8_t *)pdev->pClass->GetFSConfigDescriptor(&len);
 80037da:	6adb      	ldr	r3, [r3, #44]	; 0x2c
 80037dc:	e7f7      	b.n	80037ce <USBD_StdDevReq+0x86>
    switch ((uint8_t)(req->wValue))
 80037de:	b2db      	uxtb	r3, r3
 80037e0:	2b05      	cmp	r3, #5
 80037e2:	d83a      	bhi.n	800385a <USBD_StdDevReq+0x112>
 80037e4:	e8df f003 	tbb	[pc, r3]
 80037e8:	0f0b0703 	.word	0x0f0b0703
 80037ec:	1713      	.short	0x1713
     pbuf = pdev->pDesc->GetLangIDStrDescriptor(pdev->dev_speed, &len);        
 80037ee:	f8d0 3210 	ldr.w	r3, [r0, #528]	; 0x210
 80037f2:	685b      	ldr	r3, [r3, #4]
 80037f4:	e7cd      	b.n	8003792 <USBD_StdDevReq+0x4a>
      pbuf = pdev->pDesc->GetManufacturerStrDescriptor(pdev->dev_speed, &len);
 80037f6:	f8d0 3210 	ldr.w	r3, [r0, #528]	; 0x210
 80037fa:	689b      	ldr	r3, [r3, #8]
 80037fc:	e7c9      	b.n	8003792 <USBD_StdDevReq+0x4a>
      pbuf = pdev->pDesc->GetProductStrDescriptor(pdev->dev_speed, &len);
 80037fe:	f8d0 3210 	ldr.w	r3, [r0, #528]	; 0x210
 8003802:	68db      	ldr	r3, [r3, #12]
 8003804:	e7c5      	b.n	8003792 <USBD_StdDevReq+0x4a>
      pbuf = pdev->pDesc->GetSerialStrDescriptor(pdev->dev_speed, &len);
 8003806:	f8d0 3210 	ldr.w	r3, [r0, #528]	; 0x210
 800380a:	691b      	ldr	r3, [r3, #16]
 800380c:	e7c1      	b.n	8003792 <USBD_StdDevReq+0x4a>
      pbuf = pdev->pDesc->GetConfigurationStrDescriptor(pdev->dev_speed, &len);
 800380e:	f8d0 3210 	ldr.w	r3, [r0, #528]	; 0x210
 8003812:	695b      	ldr	r3, [r3, #20]
 8003814:	e7bd      	b.n	8003792 <USBD_StdDevReq+0x4a>
      pbuf = pdev->pDesc->GetInterfaceStrDescriptor(pdev->dev_speed, &len);
 8003816:	f8d0 3210 	ldr.w	r3, [r0, #528]	; 0x210
 800381a:	699b      	ldr	r3, [r3, #24]
 800381c:	e7b9      	b.n	8003792 <USBD_StdDevReq+0x4a>
    if(pdev->dev_speed == USBD_SPEED_HIGH  )   
 800381e:	7c03      	ldrb	r3, [r0, #16]
 8003820:	b9db      	cbnz	r3, 800385a <USBD_StdDevReq+0x112>
      pbuf   = (uint8_t *)pdev->pClass->GetDeviceQualifierDescriptor(&len);
 8003822:	f8d0 3214 	ldr.w	r3, [r0, #532]	; 0x214
 8003826:	f10d 0006 	add.w	r0, sp, #6
 800382a:	6b5b      	ldr	r3, [r3, #52]	; 0x34
 800382c:	4798      	blx	r3
 800382e:	e7b4      	b.n	800379a <USBD_StdDevReq+0x52>
    if(pdev->dev_speed == USBD_SPEED_HIGH  )   
 8003830:	7c03      	ldrb	r3, [r0, #16]
 8003832:	b993      	cbnz	r3, 800385a <USBD_StdDevReq+0x112>
      pbuf   = (uint8_t *)pdev->pClass->GetOtherSpeedConfigDescriptor(&len);
 8003834:	f8d0 3214 	ldr.w	r3, [r0, #532]	; 0x214
 8003838:	f10d 0006 	add.w	r0, sp, #6
 800383c:	6b1b      	ldr	r3, [r3, #48]	; 0x30
 800383e:	4798      	blx	r3
      pbuf[1] = USB_DESC_TYPE_OTHER_SPEED_CONFIGURATION;
 8003840:	2307      	movs	r3, #7
 8003842:	e7c8      	b.n	80037d6 <USBD_StdDevReq+0x8e>
  if ((req->wIndex == 0) && (req->wLength == 0)) 
 8003844:	888b      	ldrh	r3, [r1, #4]
 8003846:	b943      	cbnz	r3, 800385a <USBD_StdDevReq+0x112>
 8003848:	88cb      	ldrh	r3, [r1, #6]
 800384a:	b933      	cbnz	r3, 800385a <USBD_StdDevReq+0x112>
    if (pdev->dev_state == USBD_STATE_CONFIGURED) 
 800384c:	f890 31fc 	ldrb.w	r3, [r0, #508]	; 0x1fc
    dev_addr = (uint8_t)(req->wValue) & 0x7F;     
 8003850:	788d      	ldrb	r5, [r1, #2]
    if (pdev->dev_state == USBD_STATE_CONFIGURED) 
 8003852:	2b03      	cmp	r3, #3
    dev_addr = (uint8_t)(req->wValue) & 0x7F;     
 8003854:	f005 057f 	and.w	r5, r5, #127	; 0x7f
    if (pdev->dev_state == USBD_STATE_CONFIGURED) 
 8003858:	d103      	bne.n	8003862 <USBD_StdDevReq+0x11a>
    USBD_CtlError(pdev , req);
 800385a:	4620      	mov	r0, r4
 800385c:	f7ff ff68 	bl	8003730 <USBD_CtlError.constprop.0>
    break;
 8003860:	e00b      	b.n	800387a <USBD_StdDevReq+0x132>
      pdev->dev_address = dev_addr;
 8003862:	f880 51fe 	strb.w	r5, [r0, #510]	; 0x1fe
      USBD_LL_SetUSBAddress(pdev, dev_addr);               
 8003866:	4629      	mov	r1, r5
 8003868:	f000 fdc8 	bl	80043fc <USBD_LL_SetUSBAddress>
      USBD_CtlSendStatus(pdev);                         
 800386c:	4620      	mov	r0, r4
 800386e:	f000 f94f 	bl	8003b10 <USBD_CtlSendStatus>
      if (dev_addr != 0) 
 8003872:	b12d      	cbz	r5, 8003880 <USBD_StdDevReq+0x138>
        pdev->dev_state  = USBD_STATE_ADDRESSED;
 8003874:	2302      	movs	r3, #2
        pdev->dev_state  = USBD_STATE_DEFAULT; 
 8003876:	f884 31fc 	strb.w	r3, [r4, #508]	; 0x1fc
}
 800387a:	2000      	movs	r0, #0
 800387c:	b003      	add	sp, #12
 800387e:	bd30      	pop	{r4, r5, pc}
        pdev->dev_state  = USBD_STATE_DEFAULT; 
 8003880:	2301      	movs	r3, #1
 8003882:	e7f8      	b.n	8003876 <USBD_StdDevReq+0x12e>
  cfgidx = (uint8_t)(req->wValue);                 
 8003884:	7889      	ldrb	r1, [r1, #2]
 8003886:	4d30      	ldr	r5, [pc, #192]	; (8003948 <USBD_StdDevReq+0x200>)
  if (cfgidx > USBD_MAX_NUM_CONFIGURATION ) 
 8003888:	2901      	cmp	r1, #1
  cfgidx = (uint8_t)(req->wValue);                 
 800388a:	7029      	strb	r1, [r5, #0]
  if (cfgidx > USBD_MAX_NUM_CONFIGURATION ) 
 800388c:	d8e5      	bhi.n	800385a <USBD_StdDevReq+0x112>
    switch (pdev->dev_state) 
 800388e:	f890 31fc 	ldrb.w	r3, [r0, #508]	; 0x1fc
 8003892:	2b02      	cmp	r3, #2
 8003894:	d00c      	beq.n	80038b0 <USBD_StdDevReq+0x168>
 8003896:	2b03      	cmp	r3, #3
 8003898:	d1df      	bne.n	800385a <USBD_StdDevReq+0x112>
      if (cfgidx == 0) 
 800389a:	b9b1      	cbnz	r1, 80038ca <USBD_StdDevReq+0x182>
        pdev->dev_state = USBD_STATE_ADDRESSED;
 800389c:	2302      	movs	r3, #2
 800389e:	f880 31fc 	strb.w	r3, [r0, #508]	; 0x1fc
        pdev->dev_config = cfgidx;          
 80038a2:	6041      	str	r1, [r0, #4]
        USBD_ClrClassConfig(pdev , cfgidx);
 80038a4:	f7ff fe52 	bl	800354c <USBD_ClrClassConfig>
      USBD_CtlSendStatus(pdev);
 80038a8:	4620      	mov	r0, r4
 80038aa:	f000 f931 	bl	8003b10 <USBD_CtlSendStatus>
 80038ae:	e7e4      	b.n	800387a <USBD_StdDevReq+0x132>
      if (cfgidx) 
 80038b0:	2900      	cmp	r1, #0
 80038b2:	d0f9      	beq.n	80038a8 <USBD_StdDevReq+0x160>
        pdev->dev_config = cfgidx;
 80038b4:	2101      	movs	r1, #1
        pdev->dev_state = USBD_STATE_CONFIGURED;
 80038b6:	2303      	movs	r3, #3
        pdev->dev_config = cfgidx;
 80038b8:	6041      	str	r1, [r0, #4]
        pdev->dev_state = USBD_STATE_CONFIGURED;
 80038ba:	f880 31fc 	strb.w	r3, [r0, #508]	; 0x1fc
        if(USBD_SetClassConfig(pdev , cfgidx) == USBD_FAIL)
 80038be:	4620      	mov	r0, r4
 80038c0:	f7ff fe39 	bl	8003536 <USBD_SetClassConfig>
 80038c4:	2802      	cmp	r0, #2
 80038c6:	d1ef      	bne.n	80038a8 <USBD_StdDevReq+0x160>
 80038c8:	e7c7      	b.n	800385a <USBD_StdDevReq+0x112>
      else  if (cfgidx != pdev->dev_config) 
 80038ca:	6841      	ldr	r1, [r0, #4]
 80038cc:	2901      	cmp	r1, #1
 80038ce:	d0eb      	beq.n	80038a8 <USBD_StdDevReq+0x160>
        USBD_ClrClassConfig(pdev , pdev->dev_config);
 80038d0:	b2c9      	uxtb	r1, r1
 80038d2:	f7ff fe3b 	bl	800354c <USBD_ClrClassConfig>
        pdev->dev_config = cfgidx;
 80038d6:	7829      	ldrb	r1, [r5, #0]
 80038d8:	6061      	str	r1, [r4, #4]
 80038da:	e7f0      	b.n	80038be <USBD_StdDevReq+0x176>
  if (req->wLength != 1) 
 80038dc:	88ca      	ldrh	r2, [r1, #6]
 80038de:	2a01      	cmp	r2, #1
 80038e0:	d1bb      	bne.n	800385a <USBD_StdDevReq+0x112>
    switch (pdev->dev_state )  
 80038e2:	f890 31fc 	ldrb.w	r3, [r0, #508]	; 0x1fc
 80038e6:	2b02      	cmp	r3, #2
 80038e8:	d003      	beq.n	80038f2 <USBD_StdDevReq+0x1aa>
 80038ea:	2b03      	cmp	r3, #3
 80038ec:	d1b5      	bne.n	800385a <USBD_StdDevReq+0x112>
      USBD_CtlSendData (pdev, 
 80038ee:	1d01      	adds	r1, r0, #4
 80038f0:	e760      	b.n	80037b4 <USBD_StdDevReq+0x6c>
      pdev->dev_default_config = 0;
 80038f2:	4601      	mov	r1, r0
 80038f4:	2300      	movs	r3, #0
 80038f6:	f841 3f08 	str.w	r3, [r1, #8]!
 80038fa:	e75b      	b.n	80037b4 <USBD_StdDevReq+0x6c>
  switch (pdev->dev_state) 
 80038fc:	f890 31fc 	ldrb.w	r3, [r0, #508]	; 0x1fc
 8003900:	3b02      	subs	r3, #2
 8003902:	2b01      	cmp	r3, #1
 8003904:	d8a9      	bhi.n	800385a <USBD_StdDevReq+0x112>
    pdev->dev_config_status = USB_CONFIG_SELF_POWERED;                                  
 8003906:	2301      	movs	r3, #1
 8003908:	60c3      	str	r3, [r0, #12]
    if (pdev->dev_remote_wakeup) 
 800390a:	f8d0 3204 	ldr.w	r3, [r0, #516]	; 0x204
 800390e:	b10b      	cbz	r3, 8003914 <USBD_StdDevReq+0x1cc>
       pdev->dev_config_status |= USB_CONFIG_REMOTE_WAKEUP;                                
 8003910:	2303      	movs	r3, #3
 8003912:	60c3      	str	r3, [r0, #12]
    USBD_CtlSendData (pdev, 
 8003914:	2202      	movs	r2, #2
 8003916:	f104 010c 	add.w	r1, r4, #12
 800391a:	e74b      	b.n	80037b4 <USBD_StdDevReq+0x6c>
  if (req->wValue == USB_FEATURE_REMOTE_WAKEUP)
 800391c:	884b      	ldrh	r3, [r1, #2]
 800391e:	2b01      	cmp	r3, #1
 8003920:	d1ab      	bne.n	800387a <USBD_StdDevReq+0x132>
      pdev->dev_remote_wakeup = 0; 
 8003922:	f8c4 3204 	str.w	r3, [r4, #516]	; 0x204
      pdev->pClass->Setup (pdev, req);   
 8003926:	f8d4 3214 	ldr.w	r3, [r4, #532]	; 0x214
 800392a:	4629      	mov	r1, r5
 800392c:	689b      	ldr	r3, [r3, #8]
 800392e:	4620      	mov	r0, r4
 8003930:	4798      	blx	r3
 8003932:	e7b9      	b.n	80038a8 <USBD_StdDevReq+0x160>
  switch (pdev->dev_state)
 8003934:	f890 31fc 	ldrb.w	r3, [r0, #508]	; 0x1fc
 8003938:	3b02      	subs	r3, #2
 800393a:	2b01      	cmp	r3, #1
 800393c:	d88d      	bhi.n	800385a <USBD_StdDevReq+0x112>
    if (req->wValue == USB_FEATURE_REMOTE_WAKEUP) 
 800393e:	884b      	ldrh	r3, [r1, #2]
 8003940:	2b01      	cmp	r3, #1
 8003942:	d19a      	bne.n	800387a <USBD_StdDevReq+0x132>
      pdev->dev_remote_wakeup = 0; 
 8003944:	2300      	movs	r3, #0
 8003946:	e7ec      	b.n	8003922 <USBD_StdDevReq+0x1da>
 8003948:	2000026d 	.word	0x2000026d

0800394c <USBD_StdItfReq>:
{
 800394c:	b538      	push	{r3, r4, r5, lr}
  switch (pdev->dev_state) 
 800394e:	f890 31fc 	ldrb.w	r3, [r0, #508]	; 0x1fc
 8003952:	2b03      	cmp	r3, #3
{
 8003954:	4604      	mov	r4, r0
 8003956:	460d      	mov	r5, r1
  switch (pdev->dev_state) 
 8003958:	d10d      	bne.n	8003976 <USBD_StdItfReq+0x2a>
    if (LOBYTE(req->wIndex) <= USBD_MAX_NUM_INTERFACES) 
 800395a:	790b      	ldrb	r3, [r1, #4]
 800395c:	2b01      	cmp	r3, #1
 800395e:	d80a      	bhi.n	8003976 <USBD_StdItfReq+0x2a>
      pdev->pClass->Setup (pdev, req); 
 8003960:	f8d0 3214 	ldr.w	r3, [r0, #532]	; 0x214
 8003964:	689b      	ldr	r3, [r3, #8]
 8003966:	4798      	blx	r3
      if((req->wLength == 0)&& (ret == USBD_OK))
 8003968:	88eb      	ldrh	r3, [r5, #6]
 800396a:	b913      	cbnz	r3, 8003972 <USBD_StdItfReq+0x26>
         USBD_CtlSendStatus(pdev);
 800396c:	4620      	mov	r0, r4
 800396e:	f000 f8cf 	bl	8003b10 <USBD_CtlSendStatus>
}
 8003972:	2000      	movs	r0, #0
 8003974:	bd38      	pop	{r3, r4, r5, pc}
     USBD_CtlError(pdev , req);
 8003976:	f7ff fedb 	bl	8003730 <USBD_CtlError.constprop.0>
    break;
 800397a:	e7fa      	b.n	8003972 <USBD_StdItfReq+0x26>

0800397c <USBD_StdEPReq>:
{
 800397c:	b570      	push	{r4, r5, r6, lr}
  if ((req->bmRequest & 0x60) == 0x20)
 800397e:	780a      	ldrb	r2, [r1, #0]
  ep_addr  = LOBYTE(req->wIndex);   
 8003980:	888e      	ldrh	r6, [r1, #4]
  if ((req->bmRequest & 0x60) == 0x20)
 8003982:	f002 0260 	and.w	r2, r2, #96	; 0x60
 8003986:	2a20      	cmp	r2, #32
{
 8003988:	4604      	mov	r4, r0
 800398a:	460d      	mov	r5, r1
  ep_addr  = LOBYTE(req->wIndex);   
 800398c:	b2f3      	uxtb	r3, r6
  if ((req->bmRequest & 0x60) == 0x20)
 800398e:	d105      	bne.n	800399c <USBD_StdEPReq+0x20>
    pdev->pClass->Setup (pdev, req);
 8003990:	f8d0 3214 	ldr.w	r3, [r0, #532]	; 0x214
 8003994:	689b      	ldr	r3, [r3, #8]
 8003996:	4798      	blx	r3
}
 8003998:	2000      	movs	r0, #0
 800399a:	bd70      	pop	{r4, r5, r6, pc}
  switch (req->bRequest) 
 800399c:	784a      	ldrb	r2, [r1, #1]
 800399e:	2a01      	cmp	r2, #1
 80039a0:	d01c      	beq.n	80039dc <USBD_StdEPReq+0x60>
 80039a2:	d32a      	bcc.n	80039fa <USBD_StdEPReq+0x7e>
 80039a4:	2a03      	cmp	r2, #3
 80039a6:	d1f7      	bne.n	8003998 <USBD_StdEPReq+0x1c>
    switch (pdev->dev_state) 
 80039a8:	f890 21fc 	ldrb.w	r2, [r0, #508]	; 0x1fc
 80039ac:	2a02      	cmp	r2, #2
 80039ae:	d040      	beq.n	8003a32 <USBD_StdEPReq+0xb6>
 80039b0:	2a03      	cmp	r2, #3
 80039b2:	d002      	beq.n	80039ba <USBD_StdEPReq+0x3e>
      USBD_CtlError(pdev , req);
 80039b4:	f7ff febc 	bl	8003730 <USBD_CtlError.constprop.0>
      break;
 80039b8:	e7ee      	b.n	8003998 <USBD_StdEPReq+0x1c>
      if (req->wValue == USB_FEATURE_EP_HALT)
 80039ba:	884a      	ldrh	r2, [r1, #2]
 80039bc:	b922      	cbnz	r2, 80039c8 <USBD_StdEPReq+0x4c>
        if ((ep_addr != 0x00) && (ep_addr != 0x80)) 
 80039be:	065e      	lsls	r6, r3, #25
 80039c0:	d002      	beq.n	80039c8 <USBD_StdEPReq+0x4c>
          USBD_LL_StallEP(pdev , ep_addr);
 80039c2:	4619      	mov	r1, r3
 80039c4:	f000 fcee 	bl	80043a4 <USBD_LL_StallEP>
          pdev->pClass->Setup (pdev, req);
 80039c8:	f8d4 3214 	ldr.w	r3, [r4, #532]	; 0x214
 80039cc:	4629      	mov	r1, r5
 80039ce:	689b      	ldr	r3, [r3, #8]
 80039d0:	4620      	mov	r0, r4
 80039d2:	4798      	blx	r3
        USBD_CtlSendStatus(pdev);
 80039d4:	4620      	mov	r0, r4
 80039d6:	f000 f89b 	bl	8003b10 <USBD_CtlSendStatus>
 80039da:	e7dd      	b.n	8003998 <USBD_StdEPReq+0x1c>
    switch (pdev->dev_state) 
 80039dc:	f890 21fc 	ldrb.w	r2, [r0, #508]	; 0x1fc
 80039e0:	2a02      	cmp	r2, #2
 80039e2:	d026      	beq.n	8003a32 <USBD_StdEPReq+0xb6>
 80039e4:	2a03      	cmp	r2, #3
 80039e6:	d1e5      	bne.n	80039b4 <USBD_StdEPReq+0x38>
      if (req->wValue == USB_FEATURE_EP_HALT)
 80039e8:	884a      	ldrh	r2, [r1, #2]
 80039ea:	2a00      	cmp	r2, #0
 80039ec:	d1d4      	bne.n	8003998 <USBD_StdEPReq+0x1c>
        if ((ep_addr & 0x7F) != 0x00) 
 80039ee:	0659      	lsls	r1, r3, #25
 80039f0:	d0f0      	beq.n	80039d4 <USBD_StdEPReq+0x58>
          USBD_LL_ClearStallEP(pdev , ep_addr);
 80039f2:	4619      	mov	r1, r3
 80039f4:	f000 fce4 	bl	80043c0 <USBD_LL_ClearStallEP>
 80039f8:	e7e6      	b.n	80039c8 <USBD_StdEPReq+0x4c>
    switch (pdev->dev_state) 
 80039fa:	f890 21fc 	ldrb.w	r2, [r0, #508]	; 0x1fc
 80039fe:	2a02      	cmp	r2, #2
 8003a00:	d017      	beq.n	8003a32 <USBD_StdEPReq+0xb6>
 8003a02:	2a03      	cmp	r2, #3
 8003a04:	d1d6      	bne.n	80039b4 <USBD_StdEPReq+0x38>
 8003a06:	f003 057f 	and.w	r5, r3, #127	; 0x7f
      pep = ((ep_addr & 0x80) == 0x80) ? &pdev->ep_in[ep_addr & 0x7F]:\
 8003a0a:	f016 0f80 	tst.w	r6, #128	; 0x80
 8003a0e:	eb00 1505 	add.w	r5, r0, r5, lsl #4
      if(USBD_LL_IsStallEP(pdev, ep_addr))
 8003a12:	4619      	mov	r1, r3
      pep = ((ep_addr & 0x80) == 0x80) ? &pdev->ep_in[ep_addr & 0x7F]:\
 8003a14:	bf14      	ite	ne
 8003a16:	3514      	addne	r5, #20
 8003a18:	f505 7582 	addeq.w	r5, r5, #260	; 0x104
      if(USBD_LL_IsStallEP(pdev, ep_addr))
 8003a1c:	f000 fcde 	bl	80043dc <USBD_LL_IsStallEP>
 8003a20:	b168      	cbz	r0, 8003a3e <USBD_StdEPReq+0xc2>
        pep->status = 0x0001;     
 8003a22:	2301      	movs	r3, #1
 8003a24:	602b      	str	r3, [r5, #0]
      USBD_CtlSendData (pdev,
 8003a26:	2202      	movs	r2, #2
 8003a28:	4629      	mov	r1, r5
 8003a2a:	4620      	mov	r0, r4
 8003a2c:	f000 f844 	bl	8003ab8 <USBD_CtlSendData>
      break;
 8003a30:	e7b2      	b.n	8003998 <USBD_StdEPReq+0x1c>
      if ((ep_addr & 0x7F) != 0x00) 
 8003a32:	065a      	lsls	r2, r3, #25
 8003a34:	d0b0      	beq.n	8003998 <USBD_StdEPReq+0x1c>
        USBD_LL_StallEP(pdev , ep_addr);
 8003a36:	4619      	mov	r1, r3
 8003a38:	f000 fcb4 	bl	80043a4 <USBD_LL_StallEP>
 8003a3c:	e7ac      	b.n	8003998 <USBD_StdEPReq+0x1c>
        pep->status = 0x0000;  
 8003a3e:	6028      	str	r0, [r5, #0]
 8003a40:	e7f1      	b.n	8003a26 <USBD_StdEPReq+0xaa>

08003a42 <USBD_ParseSetupRequest>:
  req->bmRequest     = *(uint8_t *)  (pdata);
 8003a42:	780b      	ldrb	r3, [r1, #0]
 8003a44:	7003      	strb	r3, [r0, #0]
  req->bRequest      = *(uint8_t *)  (pdata +  1);
 8003a46:	784b      	ldrb	r3, [r1, #1]
 8003a48:	7043      	strb	r3, [r0, #1]
  req->wValue        = SWAPBYTE      (pdata +  2);
 8003a4a:	78ca      	ldrb	r2, [r1, #3]
 8003a4c:	788b      	ldrb	r3, [r1, #2]
 8003a4e:	eb03 2302 	add.w	r3, r3, r2, lsl #8
 8003a52:	8043      	strh	r3, [r0, #2]
  req->wIndex        = SWAPBYTE      (pdata +  4);
 8003a54:	794a      	ldrb	r2, [r1, #5]
 8003a56:	790b      	ldrb	r3, [r1, #4]
 8003a58:	eb03 2302 	add.w	r3, r3, r2, lsl #8
 8003a5c:	8083      	strh	r3, [r0, #4]
  req->wLength       = SWAPBYTE      (pdata +  6);
 8003a5e:	79ca      	ldrb	r2, [r1, #7]
 8003a60:	798b      	ldrb	r3, [r1, #6]
 8003a62:	eb03 2302 	add.w	r3, r3, r2, lsl #8
 8003a66:	80c3      	strh	r3, [r0, #6]
 8003a68:	4770      	bx	lr

08003a6a <USBD_CtlError>:
{
 8003a6a:	b510      	push	{r4, lr}
  USBD_LL_StallEP(pdev , 0x80);
 8003a6c:	2180      	movs	r1, #128	; 0x80
{
 8003a6e:	4604      	mov	r4, r0
  USBD_LL_StallEP(pdev , 0x80);
 8003a70:	f000 fc98 	bl	80043a4 <USBD_LL_StallEP>
  USBD_LL_StallEP(pdev , 0);
 8003a74:	4620      	mov	r0, r4
 8003a76:	2100      	movs	r1, #0
}
 8003a78:	e8bd 4010 	ldmia.w	sp!, {r4, lr}
  USBD_LL_StallEP(pdev , 0);
 8003a7c:	f000 bc92 	b.w	80043a4 <USBD_LL_StallEP>

08003a80 <USBD_GetString>:
  * @param  unicode : Formatted string buffer (unicode)
  * @param  len : descriptor length
  * @retval None
  */
void USBD_GetString(uint8_t *desc, uint8_t *unicode, uint16_t *len)
{
 8003a80:	b530      	push	{r4, r5, lr}
  uint8_t idx = 0;
  
  if (desc != NULL) 
 8003a82:	b188      	cbz	r0, 8003aa8 <USBD_GetString+0x28>
 8003a84:	4605      	mov	r5, r0
 8003a86:	1a2b      	subs	r3, r5, r0
  */
static uint8_t USBD_GetLen(uint8_t *buf)
{
    uint8_t  len = 0;

    while (*buf != '\0') 
 8003a88:	f815 4b01 	ldrb.w	r4, [r5], #1
 8003a8c:	b2db      	uxtb	r3, r3
 8003a8e:	2c00      	cmp	r4, #0
 8003a90:	d1f9      	bne.n	8003a86 <USBD_GetString+0x6>
    *len =  USBD_GetLen(desc) * 2 + 2;    
 8003a92:	005b      	lsls	r3, r3, #1
 8003a94:	3302      	adds	r3, #2
 8003a96:	8013      	strh	r3, [r2, #0]
    unicode[idx++] = *len;
 8003a98:	700b      	strb	r3, [r1, #0]
    unicode[idx++] =  USB_DESC_TYPE_STRING;
 8003a9a:	2303      	movs	r3, #3
 8003a9c:	704b      	strb	r3, [r1, #1]
 8003a9e:	3801      	subs	r0, #1
 8003aa0:	2302      	movs	r3, #2
    while (*desc != '\0') 
 8003aa2:	f810 5f01 	ldrb.w	r5, [r0, #1]!
 8003aa6:	b905      	cbnz	r5, 8003aaa <USBD_GetString+0x2a>
 8003aa8:	bd30      	pop	{r4, r5, pc}
      unicode[idx++] = *desc++;
 8003aaa:	1c5a      	adds	r2, r3, #1
 8003aac:	b2d2      	uxtb	r2, r2
 8003aae:	54cd      	strb	r5, [r1, r3]
      unicode[idx++] =  0x00;
 8003ab0:	3302      	adds	r3, #2
 8003ab2:	b2db      	uxtb	r3, r3
 8003ab4:	548c      	strb	r4, [r1, r2]
 8003ab6:	e7f4      	b.n	8003aa2 <USBD_GetString+0x22>

08003ab8 <USBD_CtlSendData>:
* @retval status
*/
USBD_StatusTypeDef  USBD_CtlSendData (USBD_HandleTypeDef  *pdev, 
                               uint8_t *pbuf,
                               uint16_t len)
{
 8003ab8:	b510      	push	{r4, lr}
 8003aba:	4613      	mov	r3, r2
  /* Set EP0 State */
  pdev->ep0_state          = USBD_EP0_DATA_IN;                                      
 8003abc:	2202      	movs	r2, #2
 8003abe:	f8c0 21f4 	str.w	r2, [r0, #500]	; 0x1f4
  pdev->ep_in[0].total_length = len;
 8003ac2:	6183      	str	r3, [r0, #24]
  pdev->ep_in[0].rem_length   = len;
 /* Start the transfer */
  USBD_LL_Transmit (pdev, 0x00, pbuf, len);  
 8003ac4:	460a      	mov	r2, r1
  pdev->ep_in[0].rem_length   = len;
 8003ac6:	61c3      	str	r3, [r0, #28]
  USBD_LL_Transmit (pdev, 0x00, pbuf, len);  
 8003ac8:	2100      	movs	r1, #0
 8003aca:	f000 fca5 	bl	8004418 <USBD_LL_Transmit>
  
  return USBD_OK;
}
 8003ace:	2000      	movs	r0, #0
 8003ad0:	bd10      	pop	{r4, pc}

08003ad2 <USBD_CtlContinueSendData>:
* @retval status
*/
USBD_StatusTypeDef  USBD_CtlContinueSendData (USBD_HandleTypeDef  *pdev, 
                                       uint8_t *pbuf,
                                       uint16_t len)
{
 8003ad2:	b508      	push	{r3, lr}
 /* Start the next transfer */
  USBD_LL_Transmit (pdev, 0x00, pbuf, len);   
 8003ad4:	4613      	mov	r3, r2
 8003ad6:	460a      	mov	r2, r1
 8003ad8:	2100      	movs	r1, #0
 8003ada:	f000 fc9d 	bl	8004418 <USBD_LL_Transmit>
  
  return USBD_OK;
}
 8003ade:	2000      	movs	r0, #0
 8003ae0:	bd08      	pop	{r3, pc}

08003ae2 <USBD_CtlPrepareRx>:
* @retval status
*/
USBD_StatusTypeDef  USBD_CtlPrepareRx (USBD_HandleTypeDef  *pdev,
                                  uint8_t *pbuf,                                  
                                  uint16_t len)
{
 8003ae2:	b510      	push	{r4, lr}
 8003ae4:	4613      	mov	r3, r2
  /* Set EP0 State */
  pdev->ep0_state = USBD_EP0_DATA_OUT; 
 8003ae6:	2203      	movs	r2, #3
 8003ae8:	f8c0 21f4 	str.w	r2, [r0, #500]	; 0x1f4
  pdev->ep_out[0].total_length = len;
 8003aec:	f8c0 3108 	str.w	r3, [r0, #264]	; 0x108
  pdev->ep_out[0].rem_length   = len;
  /* Start the transfer */
  USBD_LL_PrepareReceive (pdev,
 8003af0:	460a      	mov	r2, r1
  pdev->ep_out[0].rem_length   = len;
 8003af2:	f8c0 310c 	str.w	r3, [r0, #268]	; 0x10c
  USBD_LL_PrepareReceive (pdev,
 8003af6:	2100      	movs	r1, #0
 8003af8:	f000 fc9c 	bl	8004434 <USBD_LL_PrepareReceive>
                          0,
                          pbuf,
                         len);
  
  return USBD_OK;
}
 8003afc:	2000      	movs	r0, #0
 8003afe:	bd10      	pop	{r4, pc}

08003b00 <USBD_CtlContinueRx>:
* @retval status
*/
USBD_StatusTypeDef  USBD_CtlContinueRx (USBD_HandleTypeDef  *pdev, 
                                          uint8_t *pbuf,                                          
                                          uint16_t len)
{
 8003b00:	b508      	push	{r3, lr}

  USBD_LL_PrepareReceive (pdev,
 8003b02:	4613      	mov	r3, r2
 8003b04:	460a      	mov	r2, r1
 8003b06:	2100      	movs	r1, #0
 8003b08:	f000 fc94 	bl	8004434 <USBD_LL_PrepareReceive>
                          0,                     
                          pbuf,                         
                          len);
  return USBD_OK;
}
 8003b0c:	2000      	movs	r0, #0
 8003b0e:	bd08      	pop	{r3, pc}

08003b10 <USBD_CtlSendStatus>:
*         send zero lzngth packet on the ctl pipe
* @param  pdev: device instance
* @retval status
*/
USBD_StatusTypeDef  USBD_CtlSendStatus (USBD_HandleTypeDef  *pdev)
{
 8003b10:	b508      	push	{r3, lr}

  /* Set EP0 State */
  pdev->ep0_state = USBD_EP0_STATUS_IN;
 8003b12:	2304      	movs	r3, #4
 8003b14:	f8c0 31f4 	str.w	r3, [r0, #500]	; 0x1f4
  
 /* Start the transfer */
  USBD_LL_Transmit (pdev, 0x00, NULL, 0);   
 8003b18:	2300      	movs	r3, #0
 8003b1a:	461a      	mov	r2, r3
 8003b1c:	4619      	mov	r1, r3
 8003b1e:	f000 fc7b 	bl	8004418 <USBD_LL_Transmit>
  
  return USBD_OK;
}
 8003b22:	2000      	movs	r0, #0
 8003b24:	bd08      	pop	{r3, pc}

08003b26 <USBD_CtlReceiveStatus>:
*         receive zero lzngth packet on the ctl pipe
* @param  pdev: device instance
* @retval status
*/
USBD_StatusTypeDef  USBD_CtlReceiveStatus (USBD_HandleTypeDef  *pdev)
{
 8003b26:	b508      	push	{r3, lr}
  /* Set EP0 State */
  pdev->ep0_state = USBD_EP0_STATUS_OUT; 
 8003b28:	2305      	movs	r3, #5
 8003b2a:	f8c0 31f4 	str.w	r3, [r0, #500]	; 0x1f4
  
 /* Start the transfer */  
  USBD_LL_PrepareReceive ( pdev,
 8003b2e:	2300      	movs	r3, #0
 8003b30:	461a      	mov	r2, r3
 8003b32:	4619      	mov	r1, r3
 8003b34:	f000 fc7e 	bl	8004434 <USBD_LL_PrepareReceive>
                    0,
                    NULL,
                    0);  

  return USBD_OK;
}
 8003b38:	2000      	movs	r0, #0
 8003b3a:	bd08      	pop	{r3, pc}

08003b3c <MX_VCP_USB_DEVICE_Init>:
/**
  * Init USB device Library, add supported class and start the library
  * @retval None
  */
void MX_VCP_USB_DEVICE_Init(void)
{
 8003b3c:	b508      	push	{r3, lr}
	/* USER CODE BEGIN USB_DEVICE_Init_PreTreatment */

	/* USER CODE END USB_DEVICE_Init_PreTreatment */

	/* Init Device Library, add supported class and start the library. */
	USBD_Init(&hUsbDeviceFS, &VCP_FS_Desc, DEVICE_FS);
 8003b3e:	2200      	movs	r2, #0
 8003b40:	490a      	ldr	r1, [pc, #40]	; (8003b6c <MX_VCP_USB_DEVICE_Init+0x30>)
 8003b42:	480b      	ldr	r0, [pc, #44]	; (8003b70 <MX_VCP_USB_DEVICE_Init+0x34>)
 8003b44:	f7ff fcd6 	bl	80034f4 <USBD_Init>
	USBD_RegisterClass(&hUsbDeviceFS, &USBD_CDC);
 8003b48:	490a      	ldr	r1, [pc, #40]	; (8003b74 <MX_VCP_USB_DEVICE_Init+0x38>)
 8003b4a:	4809      	ldr	r0, [pc, #36]	; (8003b70 <MX_VCP_USB_DEVICE_Init+0x34>)
 8003b4c:	f7ff fce7 	bl	800351e <USBD_RegisterClass>
	USBD_CDC_RegisterInterface(&hUsbDeviceFS, &USBD_Interface_fops_FS);
 8003b50:	4909      	ldr	r1, [pc, #36]	; (8003b78 <MX_VCP_USB_DEVICE_Init+0x3c>)
 8003b52:	4807      	ldr	r0, [pc, #28]	; (8003b70 <MX_VCP_USB_DEVICE_Init+0x34>)
 8003b54:	f7ff fc05 	bl	8003362 <USBD_CDC_RegisterInterface>
	/* Verify if the Battery Charging Detection mode (BCD) is used : */
	/* If yes, the USB device is started in the HAL_PCDEx_BCD_Callback */
	/* upon reception of PCD_BCD_DISCOVERY_COMPLETED message. */
	/* If no, the USB device is started now. */
	if (USBD_LL_BatteryCharging(&hUsbDeviceFS) != USBD_OK) {
 8003b58:	4805      	ldr	r0, [pc, #20]	; (8003b70 <MX_VCP_USB_DEVICE_Init+0x34>)
 8003b5a:	f000 fcb4 	bl	80044c6 <USBD_LL_BatteryCharging>
 8003b5e:	b120      	cbz	r0, 8003b6a <MX_VCP_USB_DEVICE_Init+0x2e>
		USBD_Start(&hUsbDeviceFS);
 8003b60:	4803      	ldr	r0, [pc, #12]	; (8003b70 <MX_VCP_USB_DEVICE_Init+0x34>)
	}
	/* USER CODE BEGIN USB_DEVICE_Init_PostTreatment */

	/* USER CODE END USB_DEVICE_Init_PostTreatment */
}
 8003b62:	e8bd 4008 	ldmia.w	sp!, {r3, lr}
		USBD_Start(&hUsbDeviceFS);
 8003b66:	f7ff bce1 	b.w	800352c <USBD_Start>
 8003b6a:	bd08      	pop	{r3, pc}
 8003b6c:	200001d8 	.word	0x200001d8
 8003b70:	200008b0 	.word	0x200008b0
 8003b74:	20000000 	.word	0x20000000
 8003b78:	200001fc 	.word	0x200001fc

08003b7c <USBD_VCP_FS_DeviceDescriptor>:
  * @param  length : Pointer to data length variable
  * @retval Pointer to descriptor buffer
  */
uint8_t * USBD_VCP_FS_DeviceDescriptor(USBD_SpeedTypeDef speed, uint16_t *length)
{
  *length = sizeof(USBD_VCP_FS_DeviceDesc);
 8003b7c:	2312      	movs	r3, #18
 8003b7e:	800b      	strh	r3, [r1, #0]
  return USBD_VCP_FS_DeviceDesc;
}
 8003b80:	4800      	ldr	r0, [pc, #0]	; (8003b84 <USBD_VCP_FS_DeviceDescriptor+0x8>)
 8003b82:	4770      	bx	lr
 8003b84:	200001c0 	.word	0x200001c0

08003b88 <USBD_VCP_FS_LangIDStrDescriptor>:
  * @param  length : Pointer to data length variable
  * @retval Pointer to descriptor buffer
  */
uint8_t * USBD_VCP_FS_LangIDStrDescriptor(USBD_SpeedTypeDef speed, uint16_t *length)
{
  *length = sizeof(USBD_VCP_LangIDDesc);
 8003b88:	2304      	movs	r3, #4
 8003b8a:	800b      	strh	r3, [r1, #0]
  return USBD_VCP_LangIDDesc;
}
 8003b8c:	4800      	ldr	r0, [pc, #0]	; (8003b90 <USBD_VCP_FS_LangIDStrDescriptor+0x8>)
 8003b8e:	4770      	bx	lr
 8003b90:	200001d4 	.word	0x200001d4

08003b94 <USBD_VCP_FS_USR_BOSDescriptor>:
  * @param  length : Pointer to data length variable
  * @retval Pointer to descriptor buffer
  */
uint8_t * USBD_VCP_FS_USR_BOSDescriptor(USBD_SpeedTypeDef speed, uint16_t *length)
{
  *length = sizeof(USBD_VCP_FS_BOSDesc);
 8003b94:	230c      	movs	r3, #12
 8003b96:	800b      	strh	r3, [r1, #0]
  return (uint8_t*)USBD_VCP_FS_BOSDesc;
}
 8003b98:	4800      	ldr	r0, [pc, #0]	; (8003b9c <USBD_VCP_FS_USR_BOSDescriptor+0x8>)
 8003b9a:	4770      	bx	lr
 8003b9c:	200001b4 	.word	0x200001b4

08003ba0 <USBD_VCP_FS_ManufacturerStrDescriptor>:
{
 8003ba0:	b510      	push	{r4, lr}
  USBD_GetString((uint8_t *)USBD_MANUFACTURER_STRING, USBD_VCP_StrDesc, length);
 8003ba2:	4c04      	ldr	r4, [pc, #16]	; (8003bb4 <USBD_VCP_FS_ManufacturerStrDescriptor+0x14>)
 8003ba4:	4804      	ldr	r0, [pc, #16]	; (8003bb8 <USBD_VCP_FS_ManufacturerStrDescriptor+0x18>)
 8003ba6:	460a      	mov	r2, r1
 8003ba8:	4621      	mov	r1, r4
 8003baa:	f7ff ff69 	bl	8003a80 <USBD_GetString>
}
 8003bae:	4620      	mov	r0, r4
 8003bb0:	bd10      	pop	{r4, pc}
 8003bb2:	bf00      	nop
 8003bb4:	20000ad4 	.word	0x20000ad4
 8003bb8:	08004666 	.word	0x08004666

08003bbc <USBD_VCP_FS_ProductStrDescriptor>:
{
 8003bbc:	b510      	push	{r4, lr}
    USBD_GetString((uint8_t *)USBD_PRODUCT_STRING_FS, USBD_VCP_StrDesc, length);
 8003bbe:	4c04      	ldr	r4, [pc, #16]	; (8003bd0 <USBD_VCP_FS_ProductStrDescriptor+0x14>)
 8003bc0:	4804      	ldr	r0, [pc, #16]	; (8003bd4 <USBD_VCP_FS_ProductStrDescriptor+0x18>)
 8003bc2:	460a      	mov	r2, r1
 8003bc4:	4621      	mov	r1, r4
 8003bc6:	f7ff ff5b 	bl	8003a80 <USBD_GetString>
}
 8003bca:	4620      	mov	r0, r4
 8003bcc:	bd10      	pop	{r4, pc}
 8003bce:	bf00      	nop
 8003bd0:	20000ad4 	.word	0x20000ad4
 8003bd4:	08004679 	.word	0x08004679

08003bd8 <USBD_VCP_FS_SerialStrDescriptor>:
{
 8003bd8:	b510      	push	{r4, lr}
    USBD_GetString((uint8_t *)USBD_SERIALNUMBER_STRING_FS, USBD_VCP_StrDesc, length);
 8003bda:	4c04      	ldr	r4, [pc, #16]	; (8003bec <USBD_VCP_FS_SerialStrDescriptor+0x14>)
 8003bdc:	4804      	ldr	r0, [pc, #16]	; (8003bf0 <USBD_VCP_FS_SerialStrDescriptor+0x18>)
 8003bde:	460a      	mov	r2, r1
 8003be0:	4621      	mov	r1, r4
 8003be2:	f7ff ff4d 	bl	8003a80 <USBD_GetString>
}
 8003be6:	4620      	mov	r0, r4
 8003be8:	bd10      	pop	{r4, pc}
 8003bea:	bf00      	nop
 8003bec:	20000ad4 	.word	0x20000ad4
 8003bf0:	0800468f 	.word	0x0800468f

08003bf4 <USBD_VCP_FS_ConfigStrDescriptor>:
{
 8003bf4:	b510      	push	{r4, lr}
    USBD_GetString((uint8_t *)USBD_CONFIGURATION_STRING_FS, USBD_VCP_StrDesc, length);
 8003bf6:	4c04      	ldr	r4, [pc, #16]	; (8003c08 <USBD_VCP_FS_ConfigStrDescriptor+0x14>)
 8003bf8:	4804      	ldr	r0, [pc, #16]	; (8003c0c <USBD_VCP_FS_ConfigStrDescriptor+0x18>)
 8003bfa:	460a      	mov	r2, r1
 8003bfc:	4621      	mov	r1, r4
 8003bfe:	f7ff ff3f 	bl	8003a80 <USBD_GetString>
}
 8003c02:	4620      	mov	r0, r4
 8003c04:	bd10      	pop	{r4, pc}
 8003c06:	bf00      	nop
 8003c08:	20000ad4 	.word	0x20000ad4
 8003c0c:	0800464d 	.word	0x0800464d

08003c10 <USBD_VCP_FS_InterfaceStrDescriptor>:
{
 8003c10:	b510      	push	{r4, lr}
    USBD_GetString((uint8_t *)USBD_INTERFACE_STRING_FS, USBD_VCP_StrDesc, length);
 8003c12:	4c04      	ldr	r4, [pc, #16]	; (8003c24 <USBD_VCP_FS_InterfaceStrDescriptor+0x14>)
 8003c14:	4804      	ldr	r0, [pc, #16]	; (8003c28 <USBD_VCP_FS_InterfaceStrDescriptor+0x18>)
 8003c16:	460a      	mov	r2, r1
 8003c18:	4621      	mov	r1, r4
 8003c1a:	f7ff ff31 	bl	8003a80 <USBD_GetString>
}
 8003c1e:	4620      	mov	r0, r4
 8003c20:	bd10      	pop	{r4, pc}
 8003c22:	bf00      	nop
 8003c24:	20000ad4 	.word	0x20000ad4
 8003c28:	08004658 	.word	0x08004658

08003c2c <SystemClock_Config>:
/**
  * @brief System Clock Configuration
  * @retval None
  */
void SystemClock_Config(void)
{
 8003c2c:	b570      	push	{r4, r5, r6, lr}
 8003c2e:	b0ac      	sub	sp, #176	; 0xb0
  RCC_ClkInitTypeDef RCC_ClkInitStruct;
  RCC_PeriphCLKInitTypeDef PeriphClkInit;

    /**Initializes the CPU, AHB and APB busses clocks 
    */
  RCC_OscInitStruct.OscillatorType = RCC_OSCILLATORTYPE_MSI;
 8003c30:	2310      	movs	r3, #16
 8003c32:	9306      	str	r3, [sp, #24]
  RCC_OscInitStruct.MSIState = RCC_MSI_ON;
  RCC_OscInitStruct.MSICalibrationValue = 0;
 8003c34:	2300      	movs	r3, #0
 8003c36:	930d      	str	r3, [sp, #52]	; 0x34
  RCC_OscInitStruct.MSIClockRange = RCC_MSIRANGE_6;
 8003c38:	2360      	movs	r3, #96	; 0x60
  RCC_OscInitStruct.MSIState = RCC_MSI_ON;
 8003c3a:	2501      	movs	r5, #1
  RCC_OscInitStruct.PLL.PLLState = RCC_PLL_ON;
 8003c3c:	2402      	movs	r4, #2
  RCC_OscInitStruct.MSIClockRange = RCC_MSIRANGE_6;
 8003c3e:	930e      	str	r3, [sp, #56]	; 0x38
  RCC_OscInitStruct.PLL.PLLSource = RCC_PLLSOURCE_MSI;
  RCC_OscInitStruct.PLL.PLLM = 1;
  RCC_OscInitStruct.PLL.PLLN = 40;
  RCC_OscInitStruct.PLL.PLLP = RCC_PLLP_DIV7;
 8003c40:	2607      	movs	r6, #7
  RCC_OscInitStruct.PLL.PLLN = 40;
 8003c42:	2328      	movs	r3, #40	; 0x28
  RCC_OscInitStruct.PLL.PLLQ = RCC_PLLQ_DIV2;
  RCC_OscInitStruct.PLL.PLLR = RCC_PLLR_DIV2;
  if (HAL_RCC_OscConfig(&RCC_OscInitStruct) != HAL_OK)
 8003c44:	a806      	add	r0, sp, #24
  RCC_OscInitStruct.MSIState = RCC_MSI_ON;
 8003c46:	950c      	str	r5, [sp, #48]	; 0x30
  RCC_OscInitStruct.PLL.PLLState = RCC_PLL_ON;
 8003c48:	9410      	str	r4, [sp, #64]	; 0x40
  RCC_OscInitStruct.PLL.PLLSource = RCC_PLLSOURCE_MSI;
 8003c4a:	9511      	str	r5, [sp, #68]	; 0x44
  RCC_OscInitStruct.PLL.PLLM = 1;
 8003c4c:	9512      	str	r5, [sp, #72]	; 0x48
  RCC_OscInitStruct.PLL.PLLN = 40;
 8003c4e:	9313      	str	r3, [sp, #76]	; 0x4c
  RCC_OscInitStruct.PLL.PLLP = RCC_PLLP_DIV7;
 8003c50:	9614      	str	r6, [sp, #80]	; 0x50
  RCC_OscInitStruct.PLL.PLLQ = RCC_PLLQ_DIV2;
 8003c52:	9415      	str	r4, [sp, #84]	; 0x54
  RCC_OscInitStruct.PLL.PLLR = RCC_PLLR_DIV2;
 8003c54:	9416      	str	r4, [sp, #88]	; 0x58
  if (HAL_RCC_OscConfig(&RCC_OscInitStruct) != HAL_OK)
 8003c56:	f7fd fc2d 	bl	80014b4 <HAL_RCC_OscConfig>
 8003c5a:	b100      	cbz	r0, 8003c5e <SystemClock_Config+0x32>
 8003c5c:	e7fe      	b.n	8003c5c <SystemClock_Config+0x30>
    _Error_Handler(__FILE__, __LINE__);
  }

    /**Initializes the CPU, AHB and APB busses clocks 
    */
  RCC_ClkInitStruct.ClockType = RCC_CLOCKTYPE_HCLK|RCC_CLOCKTYPE_SYSCLK
 8003c5e:	230f      	movs	r3, #15
  RCC_ClkInitStruct.SYSCLKSource = RCC_SYSCLKSOURCE_PLLCLK;
  RCC_ClkInitStruct.AHBCLKDivider = RCC_SYSCLK_DIV1;
  RCC_ClkInitStruct.APB1CLKDivider = RCC_HCLK_DIV1;
  RCC_ClkInitStruct.APB2CLKDivider = RCC_HCLK_DIV1;

  if (HAL_RCC_ClockConfig(&RCC_ClkInitStruct, FLASH_LATENCY_4) != HAL_OK)
 8003c60:	2104      	movs	r1, #4
  RCC_ClkInitStruct.ClockType = RCC_CLOCKTYPE_HCLK|RCC_CLOCKTYPE_SYSCLK
 8003c62:	9301      	str	r3, [sp, #4]
  RCC_ClkInitStruct.AHBCLKDivider = RCC_SYSCLK_DIV1;
 8003c64:	9003      	str	r0, [sp, #12]
  RCC_ClkInitStruct.SYSCLKSource = RCC_SYSCLKSOURCE_PLLCLK;
 8003c66:	2303      	movs	r3, #3
  RCC_ClkInitStruct.APB1CLKDivider = RCC_HCLK_DIV1;
 8003c68:	9004      	str	r0, [sp, #16]
  RCC_ClkInitStruct.APB2CLKDivider = RCC_HCLK_DIV1;
 8003c6a:	9005      	str	r0, [sp, #20]
  if (HAL_RCC_ClockConfig(&RCC_ClkInitStruct, FLASH_LATENCY_4) != HAL_OK)
 8003c6c:	eb0d 0001 	add.w	r0, sp, r1
  RCC_ClkInitStruct.SYSCLKSource = RCC_SYSCLKSOURCE_PLLCLK;
 8003c70:	9302      	str	r3, [sp, #8]
  if (HAL_RCC_ClockConfig(&RCC_ClkInitStruct, FLASH_LATENCY_4) != HAL_OK)
 8003c72:	f7fd fe7b 	bl	800196c <HAL_RCC_ClockConfig>
 8003c76:	b100      	cbz	r0, 8003c7a <SystemClock_Config+0x4e>
 8003c78:	e7fe      	b.n	8003c78 <SystemClock_Config+0x4c>
  {
    _Error_Handler(__FILE__, __LINE__);
  }

  PeriphClkInit.PeriphClockSelection = RCC_PERIPHCLK_USART1|RCC_PERIPHCLK_USART2
 8003c7a:	f242 0303 	movw	r3, #8195	; 0x2003
 8003c7e:	9317      	str	r3, [sp, #92]	; 0x5c
                              |RCC_PERIPHCLK_USB;
  PeriphClkInit.Usart1ClockSelection = RCC_USART1CLKSOURCE_PCLK2;
  PeriphClkInit.Usart2ClockSelection = RCC_USART2CLKSOURCE_PCLK1;
  PeriphClkInit.UsbClockSelection = RCC_USBCLKSOURCE_PLLSAI1;
 8003c80:	f04f 6380 	mov.w	r3, #67108864	; 0x4000000
 8003c84:	9327      	str	r3, [sp, #156]	; 0x9c
  PeriphClkInit.PLLSAI1.PLLSAI1Source = RCC_PLLSOURCE_MSI;
  PeriphClkInit.PLLSAI1.PLLSAI1M = 1;
  PeriphClkInit.PLLSAI1.PLLSAI1N = 24;
 8003c86:	2318      	movs	r3, #24
  PeriphClkInit.Usart1ClockSelection = RCC_USART1CLKSOURCE_PCLK2;
 8003c88:	901f      	str	r0, [sp, #124]	; 0x7c
  PeriphClkInit.Usart2ClockSelection = RCC_USART2CLKSOURCE_PCLK1;
 8003c8a:	9020      	str	r0, [sp, #128]	; 0x80
  PeriphClkInit.PLLSAI1.PLLSAI1N = 24;
 8003c8c:	931a      	str	r3, [sp, #104]	; 0x68
  PeriphClkInit.PLLSAI1.PLLSAI1P = RCC_PLLP_DIV7;
  PeriphClkInit.PLLSAI1.PLLSAI1Q = RCC_PLLQ_DIV2;
  PeriphClkInit.PLLSAI1.PLLSAI1R = RCC_PLLR_DIV2;
  PeriphClkInit.PLLSAI1.PLLSAI1ClockOut = RCC_PLLSAI1_48M2CLK;
  if (HAL_RCCEx_PeriphCLKConfig(&PeriphClkInit) != HAL_OK)
 8003c8e:	a817      	add	r0, sp, #92	; 0x5c
  PeriphClkInit.PLLSAI1.PLLSAI1ClockOut = RCC_PLLSAI1_48M2CLK;
 8003c90:	f44f 1380 	mov.w	r3, #1048576	; 0x100000
  PeriphClkInit.PLLSAI1.PLLSAI1Source = RCC_PLLSOURCE_MSI;
 8003c94:	9518      	str	r5, [sp, #96]	; 0x60
  PeriphClkInit.PLLSAI1.PLLSAI1M = 1;
 8003c96:	9519      	str	r5, [sp, #100]	; 0x64
  PeriphClkInit.PLLSAI1.PLLSAI1P = RCC_PLLP_DIV7;
 8003c98:	961b      	str	r6, [sp, #108]	; 0x6c
  PeriphClkInit.PLLSAI1.PLLSAI1Q = RCC_PLLQ_DIV2;
 8003c9a:	941c      	str	r4, [sp, #112]	; 0x70
  PeriphClkInit.PLLSAI1.PLLSAI1R = RCC_PLLR_DIV2;
 8003c9c:	941d      	str	r4, [sp, #116]	; 0x74
  PeriphClkInit.PLLSAI1.PLLSAI1ClockOut = RCC_PLLSAI1_48M2CLK;
 8003c9e:	931e      	str	r3, [sp, #120]	; 0x78
  if (HAL_RCCEx_PeriphCLKConfig(&PeriphClkInit) != HAL_OK)
 8003ca0:	f7fd ffcc 	bl	8001c3c <HAL_RCCEx_PeriphCLKConfig>
 8003ca4:	b100      	cbz	r0, 8003ca8 <SystemClock_Config+0x7c>
 8003ca6:	e7fe      	b.n	8003ca6 <SystemClock_Config+0x7a>
    _Error_Handler(__FILE__, __LINE__);
  }

    /**Configure the main internal regulator output voltage 
    */
  if (HAL_PWREx_ControlVoltageScaling(PWR_REGULATOR_VOLTAGE_SCALE1) != HAL_OK)
 8003ca8:	f44f 7000 	mov.w	r0, #512	; 0x200
 8003cac:	f7fd fb1c 	bl	80012e8 <HAL_PWREx_ControlVoltageScaling>
 8003cb0:	4604      	mov	r4, r0
 8003cb2:	b100      	cbz	r0, 8003cb6 <SystemClock_Config+0x8a>
 8003cb4:	e7fe      	b.n	8003cb4 <SystemClock_Config+0x88>
    _Error_Handler(__FILE__, __LINE__);
  }

    /**Configure the Systick interrupt time 
    */
  HAL_SYSTICK_Config(HAL_RCC_GetHCLKFreq()/1000);
 8003cb6:	f7fd ff0f 	bl	8001ad8 <HAL_RCC_GetHCLKFreq>
 8003cba:	f44f 737a 	mov.w	r3, #1000	; 0x3e8
 8003cbe:	fbb0 f0f3 	udiv	r0, r0, r3
 8003cc2:	f7fc fc8b 	bl	80005dc <HAL_SYSTICK_Config>

    /**Configure the Systick 
    */
  HAL_SYSTICK_CLKSourceConfig(SYSTICK_CLKSOURCE_HCLK);
 8003cc6:	2004      	movs	r0, #4
 8003cc8:	f7fc fc9e 	bl	8000608 <HAL_SYSTICK_CLKSourceConfig>

  /* SysTick_IRQn interrupt configuration */
  HAL_NVIC_SetPriority(SysTick_IRQn, 0, 0);
 8003ccc:	4622      	mov	r2, r4
 8003cce:	4621      	mov	r1, r4
 8003cd0:	f04f 30ff 	mov.w	r0, #4294967295
 8003cd4:	f7fc fc42 	bl	800055c <HAL_NVIC_SetPriority>
}
 8003cd8:	b02c      	add	sp, #176	; 0xb0
 8003cda:	bd70      	pop	{r4, r5, r6, pc}

08003cdc <main>:
{
 8003cdc:	b580      	push	{r7, lr}
{

  GPIO_InitTypeDef GPIO_InitStruct;

  /* GPIO Ports Clock Enable */
  __HAL_RCC_GPIOA_CLK_ENABLE();
 8003cde:	4c55      	ldr	r4, [pc, #340]	; (8003e34 <main+0x158>)
{
 8003ce0:	b08c      	sub	sp, #48	; 0x30
  HAL_Init();
 8003ce2:	f7fc fc0f 	bl	8000504 <HAL_Init>
  SystemClock_Config();
 8003ce6:	f7ff ffa1 	bl	8003c2c <SystemClock_Config>
  __HAL_RCC_GPIOA_CLK_ENABLE();
 8003cea:	6ce3      	ldr	r3, [r4, #76]	; 0x4c
  __HAL_RCC_GPIOB_CLK_ENABLE();

  /*Configure GPIO pin Output Level */
  HAL_GPIO_WritePin(GPIOB, GPIO_PIN_5, GPIO_PIN_RESET);
 8003cec:	4852      	ldr	r0, [pc, #328]	; (8003e38 <main+0x15c>)
  __HAL_RCC_GPIOA_CLK_ENABLE();
 8003cee:	f043 0301 	orr.w	r3, r3, #1
 8003cf2:	64e3      	str	r3, [r4, #76]	; 0x4c
 8003cf4:	6ce3      	ldr	r3, [r4, #76]	; 0x4c
 8003cf6:	f003 0301 	and.w	r3, r3, #1
 8003cfa:	9302      	str	r3, [sp, #8]
 8003cfc:	9b02      	ldr	r3, [sp, #8]
  __HAL_RCC_GPIOB_CLK_ENABLE();
 8003cfe:	6ce3      	ldr	r3, [r4, #76]	; 0x4c
 8003d00:	f043 0302 	orr.w	r3, r3, #2
 8003d04:	64e3      	str	r3, [r4, #76]	; 0x4c
 8003d06:	6ce3      	ldr	r3, [r4, #76]	; 0x4c
 8003d08:	f003 0302 	and.w	r3, r3, #2
 8003d0c:	9303      	str	r3, [sp, #12]
  HAL_GPIO_WritePin(GPIOB, GPIO_PIN_5, GPIO_PIN_RESET);
 8003d0e:	2200      	movs	r2, #0
 8003d10:	2120      	movs	r1, #32
  __HAL_RCC_GPIOB_CLK_ENABLE();
 8003d12:	9b03      	ldr	r3, [sp, #12]
  HAL_GPIO_WritePin(GPIOB, GPIO_PIN_5, GPIO_PIN_RESET);
 8003d14:	f7fc fe5e 	bl	80009d4 <HAL_GPIO_WritePin>
  HAL_GPIO_WritePin(GPIOB, GPIO_PIN_4, GPIO_PIN_SET);
 8003d18:	2201      	movs	r2, #1
 8003d1a:	2110      	movs	r1, #16
 8003d1c:	4846      	ldr	r0, [pc, #280]	; (8003e38 <main+0x15c>)
 8003d1e:	f7fc fe59 	bl	80009d4 <HAL_GPIO_WritePin>

  /*Configure GPIO pin : PB3 */
  GPIO_InitStruct.Pin = GPIO_PIN_4;
  GPIO_InitStruct.Mode = GPIO_MODE_INPUT;
 8003d22:	2500      	movs	r5, #0
  GPIO_InitStruct.Pull = GPIO_PULLUP;
 8003d24:	2601      	movs	r6, #1
  HAL_GPIO_Init(GPIOB, &GPIO_InitStruct);
 8003d26:	a907      	add	r1, sp, #28
 8003d28:	4843      	ldr	r0, [pc, #268]	; (8003e38 <main+0x15c>)
  GPIO_InitStruct.Mode = GPIO_MODE_INPUT;
 8003d2a:	9508      	str	r5, [sp, #32]
  GPIO_InitStruct.Pin = GPIO_PIN_4;
 8003d2c:	2710      	movs	r7, #16
 8003d2e:	9707      	str	r7, [sp, #28]
  GPIO_InitStruct.Pull = GPIO_PULLUP;
 8003d30:	9609      	str	r6, [sp, #36]	; 0x24
  HAL_GPIO_Init(GPIOB, &GPIO_InitStruct);
 8003d32:	f7fc fd95 	bl	8000860 <HAL_GPIO_Init>

  /*Configure GPIO pins : PB4 PB5 */
  GPIO_InitStruct.Pin = GPIO_PIN_5;
 8003d36:	2320      	movs	r3, #32
  GPIO_InitStruct.Mode = GPIO_MODE_OUTPUT_PP;
  GPIO_InitStruct.Pull = GPIO_NOPULL;
  GPIO_InitStruct.Speed = GPIO_SPEED_FREQ_LOW;
  HAL_GPIO_Init(GPIOB, &GPIO_InitStruct);
 8003d38:	a907      	add	r1, sp, #28
 8003d3a:	483f      	ldr	r0, [pc, #252]	; (8003e38 <main+0x15c>)
  GPIO_InitStruct.Pin = GPIO_PIN_5;
 8003d3c:	9307      	str	r3, [sp, #28]
  GPIO_InitStruct.Mode = GPIO_MODE_OUTPUT_PP;
 8003d3e:	9608      	str	r6, [sp, #32]
  GPIO_InitStruct.Pull = GPIO_NOPULL;
 8003d40:	9509      	str	r5, [sp, #36]	; 0x24
  GPIO_InitStruct.Speed = GPIO_SPEED_FREQ_LOW;
 8003d42:	950a      	str	r5, [sp, #40]	; 0x28
  HAL_GPIO_Init(GPIOB, &GPIO_InitStruct);
 8003d44:	f7fc fd8c 	bl	8000860 <HAL_GPIO_Init>
  __HAL_RCC_DMA1_CLK_ENABLE();
 8003d48:	6ca3      	ldr	r3, [r4, #72]	; 0x48
 8003d4a:	4333      	orrs	r3, r6
 8003d4c:	64a3      	str	r3, [r4, #72]	; 0x48
 8003d4e:	6ca3      	ldr	r3, [r4, #72]	; 0x48
  htim15.Instance = TIM15;
 8003d50:	4c3a      	ldr	r4, [pc, #232]	; (8003e3c <main+0x160>)
  __HAL_RCC_DMA1_CLK_ENABLE();
 8003d52:	4033      	ands	r3, r6
 8003d54:	9301      	str	r3, [sp, #4]
  HAL_NVIC_SetPriority(DMA1_Channel4_IRQn, 0, 0);
 8003d56:	462a      	mov	r2, r5
 8003d58:	4629      	mov	r1, r5
 8003d5a:	200e      	movs	r0, #14
  __HAL_RCC_DMA1_CLK_ENABLE();
 8003d5c:	9b01      	ldr	r3, [sp, #4]
  HAL_NVIC_SetPriority(DMA1_Channel4_IRQn, 0, 0);
 8003d5e:	f7fc fbfd 	bl	800055c <HAL_NVIC_SetPriority>
  HAL_NVIC_EnableIRQ(DMA1_Channel4_IRQn);
 8003d62:	200e      	movs	r0, #14
 8003d64:	f7fc fc2e 	bl	80005c4 <HAL_NVIC_EnableIRQ>
  htim15.Init.Prescaler = 39999;
 8003d68:	4b35      	ldr	r3, [pc, #212]	; (8003e40 <main+0x164>)
  htim15.Init.CounterMode = TIM_COUNTERMODE_UP;
 8003d6a:	60a5      	str	r5, [r4, #8]
  htim15.Init.Prescaler = 39999;
 8003d6c:	f649 4e3f 	movw	lr, #39999	; 0x9c3f
 8003d70:	e884 4008 	stmia.w	r4, {r3, lr}
  if (HAL_TIM_Base_Init(&htim15) != HAL_OK)
 8003d74:	4620      	mov	r0, r4
  htim15.Init.Period = 50;
 8003d76:	2332      	movs	r3, #50	; 0x32
 8003d78:	60e3      	str	r3, [r4, #12]
  htim15.Init.ClockDivision = TIM_CLOCKDIVISION_DIV1;
 8003d7a:	6125      	str	r5, [r4, #16]
  htim15.Init.RepetitionCounter = 0;
 8003d7c:	6165      	str	r5, [r4, #20]
  htim15.Init.AutoReloadPreload = TIM_AUTORELOAD_PRELOAD_DISABLE;
 8003d7e:	61a5      	str	r5, [r4, #24]
  if (HAL_TIM_Base_Init(&htim15) != HAL_OK)
 8003d80:	f7fe f98a 	bl	8002098 <HAL_TIM_Base_Init>
 8003d84:	b100      	cbz	r0, 8003d88 <main+0xac>
 8003d86:	e7fe      	b.n	8003d86 <main+0xaa>
  sSlaveConfig.SlaveMode = TIM_SLAVEMODE_RESET;
 8003d88:	2304      	movs	r3, #4
  sSlaveConfig.InputTrigger = TIM_TS_ITR0;
 8003d8a:	9008      	str	r0, [sp, #32]
  if (HAL_TIM_SlaveConfigSynchronization(&htim15, &sSlaveConfig) != HAL_OK)
 8003d8c:	a907      	add	r1, sp, #28
 8003d8e:	4620      	mov	r0, r4
  sSlaveConfig.SlaveMode = TIM_SLAVEMODE_RESET;
 8003d90:	9307      	str	r3, [sp, #28]
  if (HAL_TIM_SlaveConfigSynchronization(&htim15, &sSlaveConfig) != HAL_OK)
 8003d92:	f7fe f9f5 	bl	8002180 <HAL_TIM_SlaveConfigSynchronization>
 8003d96:	b100      	cbz	r0, 8003d9a <main+0xbe>
 8003d98:	e7fe      	b.n	8003d98 <main+0xbc>
  sMasterConfig.MasterOutputTrigger = TIM_TRGO_RESET;
 8003d9a:	9004      	str	r0, [sp, #16]
  sMasterConfig.MasterSlaveMode = TIM_MASTERSLAVEMODE_DISABLE;
 8003d9c:	9006      	str	r0, [sp, #24]
  if (HAL_TIMEx_MasterConfigSynchronization(&htim15, &sMasterConfig) != HAL_OK)
 8003d9e:	a904      	add	r1, sp, #16
 8003da0:	4620      	mov	r0, r4
 8003da2:	f7fe fa0d 	bl	80021c0 <HAL_TIMEx_MasterConfigSynchronization>
 8003da6:	b100      	cbz	r0, 8003daa <main+0xce>
 8003da8:	e7fe      	b.n	8003da8 <main+0xcc>
  huart1.Instance = USART1;
 8003daa:	4b26      	ldr	r3, [pc, #152]	; (8003e44 <main+0x168>)
  huart1.Init.BaudRate = 115200;
 8003dac:	4a26      	ldr	r2, [pc, #152]	; (8003e48 <main+0x16c>)
  huart1.Init.WordLength = UART_WORDLENGTH_8B;
 8003dae:	6098      	str	r0, [r3, #8]
  huart1.Init.BaudRate = 115200;
 8003db0:	f44f 35e1 	mov.w	r5, #115200	; 0x1c200
 8003db4:	e883 0024 	stmia.w	r3, {r2, r5}
  huart1.Init.StopBits = UART_STOPBITS_1;
 8003db8:	60d8      	str	r0, [r3, #12]
  huart1.Init.Parity = UART_PARITY_NONE;
 8003dba:	6118      	str	r0, [r3, #16]
  huart1.Init.Mode = UART_MODE_TX_RX;
 8003dbc:	220c      	movs	r2, #12
  huart1.Init.HwFlowCtl = UART_HWCONTROL_NONE;
 8003dbe:	6198      	str	r0, [r3, #24]
  huart1.Init.OverSampling = UART_OVERSAMPLING_16;
 8003dc0:	61d8      	str	r0, [r3, #28]
  huart1.Init.OneBitSampling = UART_ONE_BIT_SAMPLE_DISABLE;
 8003dc2:	6218      	str	r0, [r3, #32]
  huart1.AdvancedInit.AdvFeatureInit = UART_ADVFEATURE_NO_INIT;
 8003dc4:	6258      	str	r0, [r3, #36]	; 0x24
  if (HAL_UART_Init(&huart1) != HAL_OK)
 8003dc6:	4618      	mov	r0, r3
  huart1.Init.Mode = UART_MODE_TX_RX;
 8003dc8:	615a      	str	r2, [r3, #20]
  if (HAL_UART_Init(&huart1) != HAL_OK)
 8003dca:	f7fe fdda 	bl	8002982 <HAL_UART_Init>
 8003dce:	4604      	mov	r4, r0
 8003dd0:	b100      	cbz	r0, 8003dd4 <main+0xf8>
 8003dd2:	e7fe      	b.n	8003dd2 <main+0xf6>
  HAL_GPIO_WritePin(GPIOB,GPIO_PIN_4,1);
 8003dd4:	4632      	mov	r2, r6
 8003dd6:	4639      	mov	r1, r7
 8003dd8:	4817      	ldr	r0, [pc, #92]	; (8003e38 <main+0x15c>)
 8003dda:	f7fc fdfb 	bl	80009d4 <HAL_GPIO_WritePin>
  if(HAL_GPIO_ReadPin(GPIOB,GPIO_PIN_4)){
 8003dde:	4639      	mov	r1, r7
 8003de0:	4815      	ldr	r0, [pc, #84]	; (8003e38 <main+0x15c>)
 8003de2:	f7fc fdf1 	bl	80009c8 <HAL_GPIO_ReadPin>
 8003de6:	4b19      	ldr	r3, [pc, #100]	; (8003e4c <main+0x170>)
 8003de8:	b1b0      	cbz	r0, 8003e18 <main+0x13c>
	  configFlag=0; // =1, hid
 8003dea:	701c      	strb	r4, [r3, #0]
	  MX_USB_DEVICE_Init();
 8003dec:	f000 f992 	bl	8004114 <MX_USB_DEVICE_Init>
  huart2.Instance = USART2;
 8003df0:	4817      	ldr	r0, [pc, #92]	; (8003e50 <main+0x174>)
  huart2.Init.BaudRate = 115200;
 8003df2:	4b18      	ldr	r3, [pc, #96]	; (8003e54 <main+0x178>)
 8003df4:	f44f 34e1 	mov.w	r4, #115200	; 0x1c200
 8003df8:	e880 0018 	stmia.w	r0, {r3, r4}
  huart2.Init.Mode = UART_MODE_TX_RX;
 8003dfc:	220c      	movs	r2, #12
  huart2.Init.WordLength = UART_WORDLENGTH_8B;
 8003dfe:	2300      	movs	r3, #0
 8003e00:	6083      	str	r3, [r0, #8]
  huart2.Init.StopBits = UART_STOPBITS_1;
 8003e02:	60c3      	str	r3, [r0, #12]
  huart2.Init.Parity = UART_PARITY_NONE;
 8003e04:	6103      	str	r3, [r0, #16]
  huart2.Init.Mode = UART_MODE_TX_RX;
 8003e06:	6142      	str	r2, [r0, #20]
  huart2.Init.HwFlowCtl = UART_HWCONTROL_NONE;
 8003e08:	6183      	str	r3, [r0, #24]
  huart2.Init.OverSampling = UART_OVERSAMPLING_16;
 8003e0a:	61c3      	str	r3, [r0, #28]
  huart2.Init.OneBitSampling = UART_ONE_BIT_SAMPLE_DISABLE;
 8003e0c:	6203      	str	r3, [r0, #32]
  huart2.AdvancedInit.AdvFeatureInit = UART_ADVFEATURE_NO_INIT;
 8003e0e:	6243      	str	r3, [r0, #36]	; 0x24
  if (HAL_UART_Init(&huart2) != HAL_OK)
 8003e10:	f7fe fdb7 	bl	8002982 <HAL_UART_Init>
 8003e14:	b120      	cbz	r0, 8003e20 <main+0x144>
 8003e16:	e7fe      	b.n	8003e16 <main+0x13a>
	  configFlag=1;
 8003e18:	701e      	strb	r6, [r3, #0]
	  MX_VCP_USB_DEVICE_Init();
 8003e1a:	f7ff fe8f 	bl	8003b3c <MX_VCP_USB_DEVICE_Init>
 8003e1e:	e7e7      	b.n	8003df0 <main+0x114>
  HAL_UART_Receive_IT(&huart1,&rxBuff[0],1);
 8003e20:	2201      	movs	r2, #1
 8003e22:	490d      	ldr	r1, [pc, #52]	; (8003e58 <main+0x17c>)
 8003e24:	4807      	ldr	r0, [pc, #28]	; (8003e44 <main+0x168>)
 8003e26:	f7fe f9ff 	bl	8002228 <HAL_UART_Receive_IT>
  HAL_TIM_Base_Start_IT(&htim15);
 8003e2a:	4804      	ldr	r0, [pc, #16]	; (8003e3c <main+0x160>)
 8003e2c:	f7fe f848 	bl	8001ec0 <HAL_TIM_Base_Start_IT>
 8003e30:	e7fe      	b.n	8003e30 <main+0x154>
 8003e32:	bf00      	nop
 8003e34:	40021000 	.word	0x40021000
 8003e38:	48000400 	.word	0x48000400
 8003e3c:	20000cd4 	.word	0x20000cd4
 8003e40:	40014000 	.word	0x40014000
 8003e44:	20000d60 	.word	0x20000d60
 8003e48:	40013800 	.word	0x40013800
 8003e4c:	20000dd8 	.word	0x20000dd8
 8003e50:	20000ddc 	.word	0x20000ddc
 8003e54:	40004400 	.word	0x40004400
 8003e58:	20000278 	.word	0x20000278

08003e5c <HAL_UART_RxCpltCallback>:

}

/* USER CODE BEGIN 4 */
void HAL_UART_RxCpltCallback(UART_HandleTypeDef *huart){
	UserTxBufPtrIn+=1;
 8003e5c:	4b06      	ldr	r3, [pc, #24]	; (8003e78 <HAL_UART_RxCpltCallback+0x1c>)

	if(UserTxBufPtrIn==APP_RX_DATA_SIZE) UserTxBufPtrIn=0;

	HAL_UART_Receive_IT(huart,(uint8_t*)(rxBuff+UserTxBufPtrIn),1);
 8003e5e:	4907      	ldr	r1, [pc, #28]	; (8003e7c <HAL_UART_RxCpltCallback+0x20>)
	UserTxBufPtrIn+=1;
 8003e60:	681a      	ldr	r2, [r3, #0]
 8003e62:	3201      	adds	r2, #1
	if(UserTxBufPtrIn==APP_RX_DATA_SIZE) UserTxBufPtrIn=0;
 8003e64:	f5b2 6f80 	cmp.w	r2, #1024	; 0x400
 8003e68:	bf08      	it	eq
 8003e6a:	2200      	moveq	r2, #0
 8003e6c:	601a      	str	r2, [r3, #0]
	HAL_UART_Receive_IT(huart,(uint8_t*)(rxBuff+UserTxBufPtrIn),1);
 8003e6e:	681b      	ldr	r3, [r3, #0]
 8003e70:	2201      	movs	r2, #1
 8003e72:	4419      	add	r1, r3
 8003e74:	f7fe b9d8 	b.w	8002228 <HAL_UART_Receive_IT>
 8003e78:	20000270 	.word	0x20000270
 8003e7c:	20000278 	.word	0x20000278

08003e80 <HAL_TIM_PeriodElapsedCallback>:
}

void HAL_TIM_PeriodElapsedCallback(TIM_HandleTypeDef *htim){
 8003e80:	b538      	push	{r3, r4, r5, lr}
	uint32_t buffptr;
	  uint32_t buffsize;

	  if(UserTxBufPtrOut != UserTxBufPtrIn)
 8003e82:	4a0c      	ldr	r2, [pc, #48]	; (8003eb4 <HAL_TIM_PeriodElapsedCallback+0x34>)
 8003e84:	4d0c      	ldr	r5, [pc, #48]	; (8003eb8 <HAL_TIM_PeriodElapsedCallback+0x38>)
 8003e86:	6814      	ldr	r4, [r2, #0]
 8003e88:	682b      	ldr	r3, [r5, #0]
 8003e8a:	42a3      	cmp	r3, r4
 8003e8c:	d010      	beq.n	8003eb0 <HAL_TIM_PeriodElapsedCallback+0x30>

	    buffptr = UserTxBufPtrOut;



	    if(CDC_Transmit_FS(&rxBuff[buffptr],buffsize) == USBD_OK)
 8003e8e:	480b      	ldr	r0, [pc, #44]	; (8003ebc <HAL_TIM_PeriodElapsedCallback+0x3c>)
	      buffsize = APP_RX_DATA_SIZE - UserTxBufPtrOut;
 8003e90:	bf8c      	ite	hi
 8003e92:	f5c3 6480 	rsbhi	r4, r3, #1024	; 0x400
	      buffsize = UserTxBufPtrIn - UserTxBufPtrOut;
 8003e96:	1ae4      	subls	r4, r4, r3
	    if(CDC_Transmit_FS(&rxBuff[buffptr],buffsize) == USBD_OK)
 8003e98:	b2a1      	uxth	r1, r4
 8003e9a:	4418      	add	r0, r3
 8003e9c:	f000 f976 	bl	800418c <CDC_Transmit_FS>
 8003ea0:	b930      	cbnz	r0, 8003eb0 <HAL_TIM_PeriodElapsedCallback+0x30>
	    {
	      UserTxBufPtrOut += buffsize;
 8003ea2:	682b      	ldr	r3, [r5, #0]
 8003ea4:	441c      	add	r4, r3
 8003ea6:	f5b4 6f80 	cmp.w	r4, #1024	; 0x400
 8003eaa:	bf08      	it	eq
 8003eac:	4604      	moveq	r4, r0
 8003eae:	602c      	str	r4, [r5, #0]
 8003eb0:	bd38      	pop	{r3, r4, r5, pc}
 8003eb2:	bf00      	nop
 8003eb4:	20000270 	.word	0x20000270
 8003eb8:	20000274 	.word	0x20000274
 8003ebc:	20000278 	.word	0x20000278

08003ec0 <_Error_Handler>:
  * @param  file: The file name as string.
  * @param  line: The line in file as a number.
  * @retval None
  */
void _Error_Handler(char *file, int line)
{
 8003ec0:	e7fe      	b.n	8003ec0 <_Error_Handler>
	...

08003ec4 <HAL_MspInit>:
{
  /* USER CODE BEGIN MspInit 0 */

  /* USER CODE END MspInit 0 */

  __HAL_RCC_SYSCFG_CLK_ENABLE();
 8003ec4:	4b21      	ldr	r3, [pc, #132]	; (8003f4c <HAL_MspInit+0x88>)
{
 8003ec6:	b507      	push	{r0, r1, r2, lr}
  __HAL_RCC_SYSCFG_CLK_ENABLE();
 8003ec8:	6e1a      	ldr	r2, [r3, #96]	; 0x60
 8003eca:	f042 0201 	orr.w	r2, r2, #1
 8003ece:	661a      	str	r2, [r3, #96]	; 0x60
 8003ed0:	6e1a      	ldr	r2, [r3, #96]	; 0x60
 8003ed2:	f002 0201 	and.w	r2, r2, #1
 8003ed6:	9200      	str	r2, [sp, #0]
 8003ed8:	9a00      	ldr	r2, [sp, #0]
  __HAL_RCC_PWR_CLK_ENABLE();
 8003eda:	6d9a      	ldr	r2, [r3, #88]	; 0x58
 8003edc:	f042 5280 	orr.w	r2, r2, #268435456	; 0x10000000
 8003ee0:	659a      	str	r2, [r3, #88]	; 0x58
 8003ee2:	6d9b      	ldr	r3, [r3, #88]	; 0x58
 8003ee4:	f003 5380 	and.w	r3, r3, #268435456	; 0x10000000
 8003ee8:	9301      	str	r3, [sp, #4]

  HAL_NVIC_SetPriorityGrouping(NVIC_PRIORITYGROUP_4);
 8003eea:	2003      	movs	r0, #3
  __HAL_RCC_PWR_CLK_ENABLE();
 8003eec:	9b01      	ldr	r3, [sp, #4]
  HAL_NVIC_SetPriorityGrouping(NVIC_PRIORITYGROUP_4);
 8003eee:	f7fc fb23 	bl	8000538 <HAL_NVIC_SetPriorityGrouping>

  /* System interrupt init*/
  /* MemoryManagement_IRQn interrupt configuration */
  HAL_NVIC_SetPriority(MemoryManagement_IRQn, 0, 0);
 8003ef2:	2200      	movs	r2, #0
 8003ef4:	4611      	mov	r1, r2
 8003ef6:	f06f 000b 	mvn.w	r0, #11
 8003efa:	f7fc fb2f 	bl	800055c <HAL_NVIC_SetPriority>
  /* BusFault_IRQn interrupt configuration */
  HAL_NVIC_SetPriority(BusFault_IRQn, 0, 0);
 8003efe:	2200      	movs	r2, #0
 8003f00:	4611      	mov	r1, r2
 8003f02:	f06f 000a 	mvn.w	r0, #10
 8003f06:	f7fc fb29 	bl	800055c <HAL_NVIC_SetPriority>
  /* UsageFault_IRQn interrupt configuration */
  HAL_NVIC_SetPriority(UsageFault_IRQn, 0, 0);
 8003f0a:	2200      	movs	r2, #0
 8003f0c:	4611      	mov	r1, r2
 8003f0e:	f06f 0009 	mvn.w	r0, #9
 8003f12:	f7fc fb23 	bl	800055c <HAL_NVIC_SetPriority>
  /* SVCall_IRQn interrupt configuration */
  HAL_NVIC_SetPriority(SVCall_IRQn, 0, 0);
 8003f16:	2200      	movs	r2, #0
 8003f18:	4611      	mov	r1, r2
 8003f1a:	f06f 0004 	mvn.w	r0, #4
 8003f1e:	f7fc fb1d 	bl	800055c <HAL_NVIC_SetPriority>
  /* DebugMonitor_IRQn interrupt configuration */
  HAL_NVIC_SetPriority(DebugMonitor_IRQn, 0, 0);
 8003f22:	2200      	movs	r2, #0
 8003f24:	4611      	mov	r1, r2
 8003f26:	f06f 0003 	mvn.w	r0, #3
 8003f2a:	f7fc fb17 	bl	800055c <HAL_NVIC_SetPriority>
  /* PendSV_IRQn interrupt configuration */
  HAL_NVIC_SetPriority(PendSV_IRQn, 0, 0);
 8003f2e:	2200      	movs	r2, #0
 8003f30:	4611      	mov	r1, r2
 8003f32:	f06f 0001 	mvn.w	r0, #1
 8003f36:	f7fc fb11 	bl	800055c <HAL_NVIC_SetPriority>
  /* SysTick_IRQn interrupt configuration */
  HAL_NVIC_SetPriority(SysTick_IRQn, 0, 0);
 8003f3a:	2200      	movs	r2, #0
 8003f3c:	4611      	mov	r1, r2
 8003f3e:	f04f 30ff 	mov.w	r0, #4294967295
 8003f42:	f7fc fb0b 	bl	800055c <HAL_NVIC_SetPriority>

  /* USER CODE BEGIN MspInit 1 */

  /* USER CODE END MspInit 1 */
}
 8003f46:	b003      	add	sp, #12
 8003f48:	f85d fb04 	ldr.w	pc, [sp], #4
 8003f4c:	40021000 	.word	0x40021000

08003f50 <HAL_TIM_Base_MspInit>:

void HAL_TIM_Base_MspInit(TIM_HandleTypeDef* htim_base)
{
 8003f50:	b507      	push	{r0, r1, r2, lr}

  if(htim_base->Instance==TIM15)
 8003f52:	4b0d      	ldr	r3, [pc, #52]	; (8003f88 <HAL_TIM_Base_MspInit+0x38>)
 8003f54:	6802      	ldr	r2, [r0, #0]
 8003f56:	429a      	cmp	r2, r3
 8003f58:	d112      	bne.n	8003f80 <HAL_TIM_Base_MspInit+0x30>
  {
  /* USER CODE BEGIN TIM15_MspInit 0 */

  /* USER CODE END TIM15_MspInit 0 */
    /* Peripheral clock enable */
    __HAL_RCC_TIM15_CLK_ENABLE();
 8003f5a:	f503 4350 	add.w	r3, r3, #53248	; 0xd000
    /* TIM15 interrupt Init */
    HAL_NVIC_SetPriority(TIM1_BRK_TIM15_IRQn, 0, 0);
 8003f5e:	2018      	movs	r0, #24
    __HAL_RCC_TIM15_CLK_ENABLE();
 8003f60:	6e1a      	ldr	r2, [r3, #96]	; 0x60
 8003f62:	f442 3280 	orr.w	r2, r2, #65536	; 0x10000
 8003f66:	661a      	str	r2, [r3, #96]	; 0x60
 8003f68:	6e1b      	ldr	r3, [r3, #96]	; 0x60
    HAL_NVIC_SetPriority(TIM1_BRK_TIM15_IRQn, 0, 0);
 8003f6a:	2200      	movs	r2, #0
    __HAL_RCC_TIM15_CLK_ENABLE();
 8003f6c:	f403 3380 	and.w	r3, r3, #65536	; 0x10000
 8003f70:	9301      	str	r3, [sp, #4]
    HAL_NVIC_SetPriority(TIM1_BRK_TIM15_IRQn, 0, 0);
 8003f72:	4611      	mov	r1, r2
    __HAL_RCC_TIM15_CLK_ENABLE();
 8003f74:	9b01      	ldr	r3, [sp, #4]
    HAL_NVIC_SetPriority(TIM1_BRK_TIM15_IRQn, 0, 0);
 8003f76:	f7fc faf1 	bl	800055c <HAL_NVIC_SetPriority>
    HAL_NVIC_EnableIRQ(TIM1_BRK_TIM15_IRQn);
 8003f7a:	2018      	movs	r0, #24
 8003f7c:	f7fc fb22 	bl	80005c4 <HAL_NVIC_EnableIRQ>
  /* USER CODE BEGIN TIM15_MspInit 1 */

  /* USER CODE END TIM15_MspInit 1 */
  }

}
 8003f80:	b003      	add	sp, #12
 8003f82:	f85d fb04 	ldr.w	pc, [sp], #4
 8003f86:	bf00      	nop
 8003f88:	40014000 	.word	0x40014000

08003f8c <HAL_UART_MspInit>:
  }

}

void HAL_UART_MspInit(UART_HandleTypeDef* huart)
{
 8003f8c:	b5f0      	push	{r4, r5, r6, r7, lr}

  GPIO_InitTypeDef GPIO_InitStruct;
  if(huart->Instance==USART1)
 8003f8e:	6803      	ldr	r3, [r0, #0]
 8003f90:	4a34      	ldr	r2, [pc, #208]	; (8004064 <HAL_UART_MspInit+0xd8>)
 8003f92:	4293      	cmp	r3, r2
{
 8003f94:	b089      	sub	sp, #36	; 0x24
 8003f96:	4606      	mov	r6, r0
  if(huart->Instance==USART1)
 8003f98:	d13a      	bne.n	8004010 <HAL_UART_MspInit+0x84>
  {
  /* USER CODE BEGIN USART1_MspInit 0 */

  /* USER CODE END USART1_MspInit 0 */
    /* Peripheral clock enable */
    __HAL_RCC_USART1_CLK_ENABLE();
 8003f9a:	4b33      	ldr	r3, [pc, #204]	; (8004068 <HAL_UART_MspInit+0xdc>)
    GPIO_InitStruct.Alternate = GPIO_AF7_USART1;
    HAL_GPIO_Init(GPIOA, &GPIO_InitStruct);

    /* USART1 DMA Init */
    /* USART1_TX Init */
    hdma_usart1_tx.Instance = DMA1_Channel4;
 8003f9c:	4c33      	ldr	r4, [pc, #204]	; (800406c <HAL_UART_MspInit+0xe0>)
    __HAL_RCC_USART1_CLK_ENABLE();
 8003f9e:	6e1a      	ldr	r2, [r3, #96]	; 0x60
 8003fa0:	f442 4280 	orr.w	r2, r2, #16384	; 0x4000
 8003fa4:	661a      	str	r2, [r3, #96]	; 0x60
 8003fa6:	6e1b      	ldr	r3, [r3, #96]	; 0x60
 8003fa8:	f403 4380 	and.w	r3, r3, #16384	; 0x4000
 8003fac:	9301      	str	r3, [sp, #4]
 8003fae:	9b01      	ldr	r3, [sp, #4]
    GPIO_InitStruct.Pin = GPIO_PIN_9|GPIO_PIN_10;
 8003fb0:	f44f 63c0 	mov.w	r3, #1536	; 0x600
 8003fb4:	9303      	str	r3, [sp, #12]
    GPIO_InitStruct.Speed = GPIO_SPEED_FREQ_VERY_HIGH;
 8003fb6:	2303      	movs	r3, #3
    GPIO_InitStruct.Pull = GPIO_NOPULL;
 8003fb8:	2500      	movs	r5, #0
    GPIO_InitStruct.Mode = GPIO_MODE_AF_PP;
 8003fba:	2702      	movs	r7, #2
    GPIO_InitStruct.Speed = GPIO_SPEED_FREQ_VERY_HIGH;
 8003fbc:	9306      	str	r3, [sp, #24]
    HAL_GPIO_Init(GPIOA, &GPIO_InitStruct);
 8003fbe:	f04f 4090 	mov.w	r0, #1207959552	; 0x48000000
    GPIO_InitStruct.Alternate = GPIO_AF7_USART1;
 8003fc2:	2307      	movs	r3, #7
    HAL_GPIO_Init(GPIOA, &GPIO_InitStruct);
 8003fc4:	a903      	add	r1, sp, #12
    GPIO_InitStruct.Alternate = GPIO_AF7_USART1;
 8003fc6:	9307      	str	r3, [sp, #28]
    GPIO_InitStruct.Mode = GPIO_MODE_AF_PP;
 8003fc8:	9704      	str	r7, [sp, #16]
    GPIO_InitStruct.Pull = GPIO_NOPULL;
 8003fca:	9505      	str	r5, [sp, #20]
    HAL_GPIO_Init(GPIOA, &GPIO_InitStruct);
 8003fcc:	f7fc fc48 	bl	8000860 <HAL_GPIO_Init>
    hdma_usart1_tx.Instance = DMA1_Channel4;
 8003fd0:	4b27      	ldr	r3, [pc, #156]	; (8004070 <HAL_UART_MspInit+0xe4>)
    hdma_usart1_tx.Init.Request = DMA_REQUEST_2;
    hdma_usart1_tx.Init.Direction = DMA_MEMORY_TO_PERIPH;
    hdma_usart1_tx.Init.PeriphInc = DMA_PINC_DISABLE;
 8003fd2:	60e5      	str	r5, [r4, #12]
    hdma_usart1_tx.Init.Request = DMA_REQUEST_2;
 8003fd4:	e884 0088 	stmia.w	r4, {r3, r7}
    hdma_usart1_tx.Init.Direction = DMA_MEMORY_TO_PERIPH;
 8003fd8:	2310      	movs	r3, #16
 8003fda:	60a3      	str	r3, [r4, #8]
    hdma_usart1_tx.Init.MemInc = DMA_MINC_ENABLE;
    hdma_usart1_tx.Init.PeriphDataAlignment = DMA_PDATAALIGN_BYTE;
    hdma_usart1_tx.Init.MemDataAlignment = DMA_MDATAALIGN_BYTE;
    hdma_usart1_tx.Init.Mode = DMA_NORMAL;
    hdma_usart1_tx.Init.Priority = DMA_PRIORITY_LOW;
    if (HAL_DMA_Init(&hdma_usart1_tx) != HAL_OK)
 8003fdc:	4620      	mov	r0, r4
    hdma_usart1_tx.Init.MemInc = DMA_MINC_ENABLE;
 8003fde:	2380      	movs	r3, #128	; 0x80
 8003fe0:	6123      	str	r3, [r4, #16]
    hdma_usart1_tx.Init.PeriphDataAlignment = DMA_PDATAALIGN_BYTE;
 8003fe2:	6165      	str	r5, [r4, #20]
    hdma_usart1_tx.Init.MemDataAlignment = DMA_MDATAALIGN_BYTE;
 8003fe4:	61a5      	str	r5, [r4, #24]
    hdma_usart1_tx.Init.Mode = DMA_NORMAL;
 8003fe6:	61e5      	str	r5, [r4, #28]
    hdma_usart1_tx.Init.Priority = DMA_PRIORITY_LOW;
 8003fe8:	6225      	str	r5, [r4, #32]
    if (HAL_DMA_Init(&hdma_usart1_tx) != HAL_OK)
 8003fea:	f7fc fb1f 	bl	800062c <HAL_DMA_Init>
 8003fee:	b118      	cbz	r0, 8003ff8 <HAL_UART_MspInit+0x6c>
    {
      _Error_Handler(__FILE__, __LINE__);
 8003ff0:	21a9      	movs	r1, #169	; 0xa9
 8003ff2:	4820      	ldr	r0, [pc, #128]	; (8004074 <HAL_UART_MspInit+0xe8>)
 8003ff4:	f7ff ff64 	bl	8003ec0 <_Error_Handler>
    }

    __HAL_LINKDMA(huart,hdmatx,hdma_usart1_tx);

    /* USART1 interrupt Init */
    HAL_NVIC_SetPriority(USART1_IRQn, 0, 0);
 8003ff8:	2200      	movs	r2, #0
 8003ffa:	2025      	movs	r0, #37	; 0x25
    __HAL_LINKDMA(huart,hdmatx,hdma_usart1_tx);
 8003ffc:	66b4      	str	r4, [r6, #104]	; 0x68
    HAL_NVIC_SetPriority(USART1_IRQn, 0, 0);
 8003ffe:	4611      	mov	r1, r2
    __HAL_LINKDMA(huart,hdmatx,hdma_usart1_tx);
 8004000:	62a6      	str	r6, [r4, #40]	; 0x28
    HAL_NVIC_SetPriority(USART1_IRQn, 0, 0);
 8004002:	f7fc faab 	bl	800055c <HAL_NVIC_SetPriority>
    HAL_NVIC_EnableIRQ(USART1_IRQn);
 8004006:	2025      	movs	r0, #37	; 0x25
 8004008:	f7fc fadc 	bl	80005c4 <HAL_NVIC_EnableIRQ>
  /* USER CODE BEGIN USART2_MspInit 1 */

  /* USER CODE END USART2_MspInit 1 */
  }

}
 800400c:	b009      	add	sp, #36	; 0x24
 800400e:	bdf0      	pop	{r4, r5, r6, r7, pc}
  else if(huart->Instance==USART2)
 8004010:	4a19      	ldr	r2, [pc, #100]	; (8004078 <HAL_UART_MspInit+0xec>)
 8004012:	4293      	cmp	r3, r2
 8004014:	d1fa      	bne.n	800400c <HAL_UART_MspInit+0x80>
    __HAL_RCC_USART2_CLK_ENABLE();
 8004016:	4b14      	ldr	r3, [pc, #80]	; (8004068 <HAL_UART_MspInit+0xdc>)
 8004018:	6d9a      	ldr	r2, [r3, #88]	; 0x58
 800401a:	f442 3200 	orr.w	r2, r2, #131072	; 0x20000
 800401e:	659a      	str	r2, [r3, #88]	; 0x58
 8004020:	6d9b      	ldr	r3, [r3, #88]	; 0x58
 8004022:	f403 3300 	and.w	r3, r3, #131072	; 0x20000
 8004026:	9302      	str	r3, [sp, #8]
 8004028:	9b02      	ldr	r3, [sp, #8]
    GPIO_InitStruct.Pin = GPIO_PIN_2;
 800402a:	2304      	movs	r3, #4
    GPIO_InitStruct.Speed = GPIO_SPEED_FREQ_VERY_HIGH;
 800402c:	2403      	movs	r4, #3
    GPIO_InitStruct.Pin = GPIO_PIN_2;
 800402e:	9303      	str	r3, [sp, #12]
    GPIO_InitStruct.Mode = GPIO_MODE_AF_PP;
 8004030:	2602      	movs	r6, #2
    GPIO_InitStruct.Pull = GPIO_NOPULL;
 8004032:	2500      	movs	r5, #0
    GPIO_InitStruct.Alternate = GPIO_AF7_USART2;
 8004034:	2307      	movs	r3, #7
    HAL_GPIO_Init(GPIOA, &GPIO_InitStruct);
 8004036:	a903      	add	r1, sp, #12
 8004038:	f04f 4090 	mov.w	r0, #1207959552	; 0x48000000
    GPIO_InitStruct.Alternate = GPIO_AF7_USART2;
 800403c:	9307      	str	r3, [sp, #28]
    GPIO_InitStruct.Mode = GPIO_MODE_AF_PP;
 800403e:	9604      	str	r6, [sp, #16]
    GPIO_InitStruct.Pull = GPIO_NOPULL;
 8004040:	9505      	str	r5, [sp, #20]
    GPIO_InitStruct.Speed = GPIO_SPEED_FREQ_VERY_HIGH;
 8004042:	9406      	str	r4, [sp, #24]
    HAL_GPIO_Init(GPIOA, &GPIO_InitStruct);
 8004044:	f7fc fc0c 	bl	8000860 <HAL_GPIO_Init>
    GPIO_InitStruct.Pin = GPIO_PIN_15;
 8004048:	f44f 4300 	mov.w	r3, #32768	; 0x8000
    HAL_GPIO_Init(GPIOA, &GPIO_InitStruct);
 800404c:	a903      	add	r1, sp, #12
 800404e:	f04f 4090 	mov.w	r0, #1207959552	; 0x48000000
    GPIO_InitStruct.Pin = GPIO_PIN_15;
 8004052:	9303      	str	r3, [sp, #12]
    GPIO_InitStruct.Mode = GPIO_MODE_AF_PP;
 8004054:	9604      	str	r6, [sp, #16]
    GPIO_InitStruct.Pull = GPIO_NOPULL;
 8004056:	9505      	str	r5, [sp, #20]
    GPIO_InitStruct.Speed = GPIO_SPEED_FREQ_VERY_HIGH;
 8004058:	9406      	str	r4, [sp, #24]
    GPIO_InitStruct.Alternate = GPIO_AF3_USART2;
 800405a:	9407      	str	r4, [sp, #28]
    HAL_GPIO_Init(GPIOA, &GPIO_InitStruct);
 800405c:	f7fc fc00 	bl	8000860 <HAL_GPIO_Init>
}
 8004060:	e7d4      	b.n	800400c <HAL_UART_MspInit+0x80>
 8004062:	bf00      	nop
 8004064:	40013800 	.word	0x40013800
 8004068:	40021000 	.word	0x40021000
 800406c:	20000d18 	.word	0x20000d18
 8004070:	40020044 	.word	0x40020044
 8004074:	0800469c 	.word	0x0800469c
 8004078:	40004400 	.word	0x40004400

0800407c <NMI_Handler>:
 800407c:	4770      	bx	lr

0800407e <HardFault_Handler>:

/**
* @brief This function handles Hard fault interrupt.
*/
void HardFault_Handler(void)
{
 800407e:	e7fe      	b.n	800407e <HardFault_Handler>

08004080 <MemManage_Handler>:

/**
* @brief This function handles Memory management fault.
*/
void MemManage_Handler(void)
{
 8004080:	e7fe      	b.n	8004080 <MemManage_Handler>

08004082 <BusFault_Handler>:

/**
* @brief This function handles Prefetch fault, memory access fault.
*/
void BusFault_Handler(void)
{
 8004082:	e7fe      	b.n	8004082 <BusFault_Handler>

08004084 <UsageFault_Handler>:

/**
* @brief This function handles Undefined instruction or illegal state.
*/
void UsageFault_Handler(void)
{
 8004084:	e7fe      	b.n	8004084 <UsageFault_Handler>

08004086 <SVC_Handler>:
 8004086:	4770      	bx	lr

08004088 <DebugMon_Handler>:
 8004088:	4770      	bx	lr

0800408a <PendSV_Handler>:

/**
* @brief This function handles Pendable request for system service.
*/
void PendSV_Handler(void)
{
 800408a:	4770      	bx	lr

0800408c <SysTick_Handler>:

/**
* @brief This function handles System tick timer.
*/
void SysTick_Handler(void)
{
 800408c:	b508      	push	{r3, lr}
  /* USER CODE BEGIN SysTick_IRQn 0 */

  /* USER CODE END SysTick_IRQn 0 */
  HAL_IncTick();
 800408e:	f7fc fa45 	bl	800051c <HAL_IncTick>
  HAL_SYSTICK_IRQHandler();
  /* USER CODE BEGIN SysTick_IRQn 1 */

  /* USER CODE END SysTick_IRQn 1 */
}
 8004092:	e8bd 4008 	ldmia.w	sp!, {r3, lr}
  HAL_SYSTICK_IRQHandler();
 8004096:	f7fc bac4 	b.w	8000622 <HAL_SYSTICK_IRQHandler>
	...

0800409c <DMA1_Channel4_IRQHandler>:
void DMA1_Channel4_IRQHandler(void)
{
  /* USER CODE BEGIN DMA1_Channel4_IRQn 0 */

  /* USER CODE END DMA1_Channel4_IRQn 0 */
  HAL_DMA_IRQHandler(&hdma_usart1_tx);
 800409c:	4801      	ldr	r0, [pc, #4]	; (80040a4 <DMA1_Channel4_IRQHandler+0x8>)
 800409e:	f7fc bb97 	b.w	80007d0 <HAL_DMA_IRQHandler>
 80040a2:	bf00      	nop
 80040a4:	20000d18 	.word	0x20000d18

080040a8 <TIM1_BRK_TIM15_IRQHandler>:
void TIM1_BRK_TIM15_IRQHandler(void)
{
  /* USER CODE BEGIN TIM1_BRK_TIM15_IRQn 0 */

  /* USER CODE END TIM1_BRK_TIM15_IRQn 0 */
  HAL_TIM_IRQHandler(&htim15);
 80040a8:	4801      	ldr	r0, [pc, #4]	; (80040b0 <TIM1_BRK_TIM15_IRQHandler+0x8>)
 80040aa:	f7fd bf18 	b.w	8001ede <HAL_TIM_IRQHandler>
 80040ae:	bf00      	nop
 80040b0:	20000cd4 	.word	0x20000cd4

080040b4 <USART1_IRQHandler>:
void USART1_IRQHandler(void)
{
  /* USER CODE BEGIN USART1_IRQn 0 */

  /* USER CODE END USART1_IRQn 0 */
  HAL_UART_IRQHandler(&huart1);
 80040b4:	4801      	ldr	r0, [pc, #4]	; (80040bc <USART1_IRQHandler+0x8>)
 80040b6:	f7fe b9e5 	b.w	8002484 <HAL_UART_IRQHandler>
 80040ba:	bf00      	nop
 80040bc:	20000d60 	.word	0x20000d60

080040c0 <USB_IRQHandler>:
void USB_IRQHandler(void)
{
  /* USER CODE BEGIN USB_IRQn 0 */

  /* USER CODE END USB_IRQn 0 */
  HAL_PCD_IRQHandler(&hpcd_USB_FS);
 80040c0:	4801      	ldr	r0, [pc, #4]	; (80040c8 <USB_IRQHandler+0x8>)
 80040c2:	f7fc bdb7 	b.w	8000c34 <HAL_PCD_IRQHandler>
 80040c6:	bf00      	nop
 80040c8:	20001624 	.word	0x20001624

080040cc <SystemInit>:

void SystemInit(void)
{
  /* FPU settings ------------------------------------------------------------*/
  #if (__FPU_PRESENT == 1) && (__FPU_USED == 1)
    SCB->CPACR |= ((3UL << 10*2)|(3UL << 11*2));  /* set CP10 and CP11 Full Access */
 80040cc:	490f      	ldr	r1, [pc, #60]	; (800410c <SystemInit+0x40>)
 80040ce:	f8d1 3088 	ldr.w	r3, [r1, #136]	; 0x88
 80040d2:	f443 0370 	orr.w	r3, r3, #15728640	; 0xf00000
 80040d6:	f8c1 3088 	str.w	r3, [r1, #136]	; 0x88
  #endif

  /* Reset the RCC clock configuration to the default reset state ------------*/
  /* Set MSION bit */
  RCC->CR |= RCC_CR_MSION;
 80040da:	4b0d      	ldr	r3, [pc, #52]	; (8004110 <SystemInit+0x44>)
 80040dc:	681a      	ldr	r2, [r3, #0]

  /* Reset CFGR register */
  RCC->CFGR = 0x00000000U;
 80040de:	2000      	movs	r0, #0
  RCC->CR |= RCC_CR_MSION;
 80040e0:	f042 0201 	orr.w	r2, r2, #1
 80040e4:	601a      	str	r2, [r3, #0]
  RCC->CFGR = 0x00000000U;
 80040e6:	6098      	str	r0, [r3, #8]

  /* Reset HSEON, CSSON , HSION, and PLLON bits */
  RCC->CR &= 0xEAF6FFFFU;
 80040e8:	681a      	ldr	r2, [r3, #0]
 80040ea:	f022 52a8 	bic.w	r2, r2, #352321536	; 0x15000000
 80040ee:	f422 2210 	bic.w	r2, r2, #589824	; 0x90000
 80040f2:	601a      	str	r2, [r3, #0]

  /* Reset PLLCFGR register */
  RCC->PLLCFGR = 0x00001000U;
 80040f4:	f44f 5280 	mov.w	r2, #4096	; 0x1000
 80040f8:	60da      	str	r2, [r3, #12]

  /* Reset HSEBYP bit */
  RCC->CR &= 0xFFFBFFFFU;
 80040fa:	681a      	ldr	r2, [r3, #0]
 80040fc:	f422 2280 	bic.w	r2, r2, #262144	; 0x40000
 8004100:	601a      	str	r2, [r3, #0]

  /* Disable all interrupts */
  RCC->CIER = 0x00000000U;
 8004102:	6198      	str	r0, [r3, #24]

  /* Configure the Vector Table location add offset address ------------------*/
#ifdef VECT_TAB_SRAM
  SCB->VTOR = SRAM_BASE | VECT_TAB_OFFSET; /* Vector Table Relocation in Internal SRAM */
#else
  SCB->VTOR = FLASH_BASE | VECT_TAB_OFFSET; /* Vector Table Relocation in Internal FLASH */
 8004104:	f04f 6300 	mov.w	r3, #134217728	; 0x8000000
 8004108:	608b      	str	r3, [r1, #8]
 800410a:	4770      	bx	lr
 800410c:	e000ed00 	.word	0xe000ed00
 8004110:	40021000 	.word	0x40021000

08004114 <MX_USB_DEVICE_Init>:
/**
  * Init USB device Library, add supported class and start the library
  * @retval None
  */
void MX_USB_DEVICE_Init(void)
{
 8004114:	b508      	push	{r3, lr}
  /* USER CODE BEGIN USB_DEVICE_Init_PreTreatment */
  
  /* USER CODE END USB_DEVICE_Init_PreTreatment */
  
  /* Init Device Library, add supported class and start the library. */
  USBD_Init(&hUsbDeviceFS, &FS_Desc, DEVICE_FS);
 8004116:	2200      	movs	r2, #0
 8004118:	4908      	ldr	r1, [pc, #32]	; (800413c <MX_USB_DEVICE_Init+0x28>)
 800411a:	4809      	ldr	r0, [pc, #36]	; (8004140 <MX_USB_DEVICE_Init+0x2c>)
 800411c:	f7ff f9ea 	bl	80034f4 <USBD_Init>
  USBD_RegisterClass(&hUsbDeviceFS, &USBD_HID);
 8004120:	4908      	ldr	r1, [pc, #32]	; (8004144 <MX_USB_DEVICE_Init+0x30>)
 8004122:	4807      	ldr	r0, [pc, #28]	; (8004140 <MX_USB_DEVICE_Init+0x2c>)
 8004124:	f7ff f9fb 	bl	800351e <USBD_RegisterClass>
  /* Verify if the Battery Charging Detection mode (BCD) is used : */
  /* If yes, the USB device is started in the HAL_PCDEx_BCD_Callback */
  /* upon reception of PCD_BCD_DISCOVERY_COMPLETED message. */
  /* If no, the USB device is started now. */
  if (USBD_LL_BatteryCharging(&hUsbDeviceFS) != USBD_OK) {
 8004128:	4805      	ldr	r0, [pc, #20]	; (8004140 <MX_USB_DEVICE_Init+0x2c>)
 800412a:	f000 f9cc 	bl	80044c6 <USBD_LL_BatteryCharging>
 800412e:	b120      	cbz	r0, 800413a <MX_USB_DEVICE_Init+0x26>
  USBD_Start(&hUsbDeviceFS);
 8004130:	4803      	ldr	r0, [pc, #12]	; (8004140 <MX_USB_DEVICE_Init+0x2c>)
  }
  /* USER CODE BEGIN USB_DEVICE_Init_PostTreatment */
  
  /* USER CODE END USB_DEVICE_Init_PostTreatment */
}
 8004132:	e8bd 4008 	ldmia.w	sp!, {r3, lr}
  USBD_Start(&hUsbDeviceFS);
 8004136:	f7ff b9f9 	b.w	800352c <USBD_Start>
 800413a:	bd08      	pop	{r3, pc}
 800413c:	2000020c 	.word	0x2000020c
 8004140:	200008b0 	.word	0x200008b0
 8004144:	20000140 	.word	0x20000140

08004148 <CDC_DeInit_FS>:
static int8_t CDC_DeInit_FS(void)
{
  /* USER CODE BEGIN 4 */
  return (USBD_OK);
  /* USER CODE END 4 */
}
 8004148:	2000      	movs	r0, #0
 800414a:	4770      	bx	lr

0800414c <CDC_Control_FS>:
    break;
  }

  return (USBD_OK);
  /* USER CODE END 5 */
}
 800414c:	2000      	movs	r0, #0
 800414e:	4770      	bx	lr

08004150 <CDC_Receive_FS>:
  * @param  Buf: Buffer of data to be received
  * @param  Len: Number of data received (in bytes)
  * @retval Result of the operation: USBD_OK if all operations are OK else USBD_FAIL
  */
static int8_t CDC_Receive_FS(uint8_t* Buf, uint32_t *Len)
{
 8004150:	b508      	push	{r3, lr}
  /* USER CODE BEGIN 6 */
	HAL_UART_Transmit_DMA(&huart1,Buf,*Len);
 8004152:	880a      	ldrh	r2, [r1, #0]
 8004154:	4601      	mov	r1, r0
 8004156:	4802      	ldr	r0, [pc, #8]	; (8004160 <CDC_Receive_FS+0x10>)
 8004158:	f7fe f8ba 	bl	80022d0 <HAL_UART_Transmit_DMA>

  //USBD_CDC_SetRxBuffer(&hUsbDeviceFS, &Buf[0]);
  //USBD_CDC_ReceivePacket(&hUsbDeviceFS);
  return (USBD_OK);
  /* USER CODE END 6 */
}
 800415c:	2000      	movs	r0, #0
 800415e:	bd08      	pop	{r3, pc}
 8004160:	20000d60 	.word	0x20000d60

08004164 <CDC_Init_FS>:
{
 8004164:	b510      	push	{r4, lr}
  USBD_CDC_SetTxBuffer(&hUsbDeviceFS, UserTxBufferFS, 0);
 8004166:	4c06      	ldr	r4, [pc, #24]	; (8004180 <CDC_Init_FS+0x1c>)
 8004168:	4906      	ldr	r1, [pc, #24]	; (8004184 <CDC_Init_FS+0x20>)
 800416a:	2200      	movs	r2, #0
 800416c:	4620      	mov	r0, r4
 800416e:	f7ff f8ff 	bl	8003370 <USBD_CDC_SetTxBuffer>
  USBD_CDC_SetRxBuffer(&hUsbDeviceFS, UserRxBufferFS);
 8004172:	4905      	ldr	r1, [pc, #20]	; (8004188 <CDC_Init_FS+0x24>)
 8004174:	4620      	mov	r0, r4
 8004176:	f7ff f903 	bl	8003380 <USBD_CDC_SetRxBuffer>
}
 800417a:	2000      	movs	r0, #0
 800417c:	bd10      	pop	{r4, pc}
 800417e:	bf00      	nop
 8004180:	200008b0 	.word	0x200008b0
 8004184:	2000123c 	.word	0x2000123c
 8004188:	20000e54 	.word	0x20000e54

0800418c <CDC_Transmit_FS>:
  * @param  Buf: Buffer of data to be sent
  * @param  Len: Number of data to be sent (in bytes)
  * @retval USBD_OK if all operations are OK else USBD_FAIL or USBD_BUSY
  */
uint8_t CDC_Transmit_FS(uint8_t* Buf, uint16_t Len)
{
 800418c:	b510      	push	{r4, lr}
  uint8_t result = USBD_OK;
  /* USER CODE BEGIN 7 */
  USBD_CDC_HandleTypeDef *hcdc = (USBD_CDC_HandleTypeDef*)hUsbDeviceFS.pClassData;
 800418e:	4c09      	ldr	r4, [pc, #36]	; (80041b4 <CDC_Transmit_FS+0x28>)
 8004190:	f8d4 3218 	ldr.w	r3, [r4, #536]	; 0x218
  if (hcdc->TxState != 0){
 8004194:	f8d3 3214 	ldr.w	r3, [r3, #532]	; 0x214
{
 8004198:	460a      	mov	r2, r1
  if (hcdc->TxState != 0){
 800419a:	b943      	cbnz	r3, 80041ae <CDC_Transmit_FS+0x22>
    return USBD_BUSY;
  }
  USBD_CDC_SetTxBuffer(&hUsbDeviceFS, Buf, Len);
 800419c:	4601      	mov	r1, r0
 800419e:	4620      	mov	r0, r4
 80041a0:	f7ff f8e6 	bl	8003370 <USBD_CDC_SetTxBuffer>
  result = USBD_CDC_TransmitPacket(&hUsbDeviceFS);
 80041a4:	4620      	mov	r0, r4
  /* USER CODE END 7 */
  return result;
}
 80041a6:	e8bd 4010 	ldmia.w	sp!, {r4, lr}
  result = USBD_CDC_TransmitPacket(&hUsbDeviceFS);
 80041aa:	f7ff b8ef 	b.w	800338c <USBD_CDC_TransmitPacket>
}
 80041ae:	2001      	movs	r0, #1
 80041b0:	bd10      	pop	{r4, pc}
 80041b2:	bf00      	nop
 80041b4:	200008b0 	.word	0x200008b0

080041b8 <HAL_UART_TxCpltCallback>:

/* USER CODE BEGIN PRIVATE_FUNCTIONS_IMPLEMENTATION */
void HAL_UART_TxCpltCallback(UART_HandleTypeDef *huart){
 80041b8:	b510      	push	{r4, lr}
	USBD_CDC_SetRxBuffer(&hUsbDeviceFS, &UserRxBufferFS[0]);
 80041ba:	4c05      	ldr	r4, [pc, #20]	; (80041d0 <HAL_UART_TxCpltCallback+0x18>)
 80041bc:	4905      	ldr	r1, [pc, #20]	; (80041d4 <HAL_UART_TxCpltCallback+0x1c>)
 80041be:	4620      	mov	r0, r4
 80041c0:	f7ff f8de 	bl	8003380 <USBD_CDC_SetRxBuffer>
	USBD_CDC_ReceivePacket(&hUsbDeviceFS);
 80041c4:	4620      	mov	r0, r4
}
 80041c6:	e8bd 4010 	ldmia.w	sp!, {r4, lr}
	USBD_CDC_ReceivePacket(&hUsbDeviceFS);
 80041ca:	f7ff b8f6 	b.w	80033ba <USBD_CDC_ReceivePacket>
 80041ce:	bf00      	nop
 80041d0:	200008b0 	.word	0x200008b0
 80041d4:	20000e54 	.word	0x20000e54

080041d8 <HAL_PCD_MspInit>:
                       LL Driver Callbacks (PCD -> USB Device Library)
*******************************************************************************/
/* MSP Init */

void HAL_PCD_MspInit(PCD_HandleTypeDef* pcdHandle)
{
 80041d8:	b507      	push	{r0, r1, r2, lr}
  if(pcdHandle->Instance==USB)
 80041da:	4b0d      	ldr	r3, [pc, #52]	; (8004210 <HAL_PCD_MspInit+0x38>)
 80041dc:	6802      	ldr	r2, [r0, #0]
 80041de:	429a      	cmp	r2, r3
 80041e0:	d112      	bne.n	8004208 <HAL_PCD_MspInit+0x30>
  {
  /* USER CODE BEGIN USB_MspInit 0 */

  /* USER CODE END USB_MspInit 0 */
    /* Peripheral clock enable */
    __HAL_RCC_USB_CLK_ENABLE();
 80041e2:	f503 33d4 	add.w	r3, r3, #108544	; 0x1a800

    /* Peripheral interrupt init */
    HAL_NVIC_SetPriority(USB_IRQn, 0, 0);
 80041e6:	2043      	movs	r0, #67	; 0x43
    __HAL_RCC_USB_CLK_ENABLE();
 80041e8:	6d9a      	ldr	r2, [r3, #88]	; 0x58
 80041ea:	f042 6280 	orr.w	r2, r2, #67108864	; 0x4000000
 80041ee:	659a      	str	r2, [r3, #88]	; 0x58
 80041f0:	6d9b      	ldr	r3, [r3, #88]	; 0x58
    HAL_NVIC_SetPriority(USB_IRQn, 0, 0);
 80041f2:	2200      	movs	r2, #0
    __HAL_RCC_USB_CLK_ENABLE();
 80041f4:	f003 6380 	and.w	r3, r3, #67108864	; 0x4000000
 80041f8:	9301      	str	r3, [sp, #4]
    HAL_NVIC_SetPriority(USB_IRQn, 0, 0);
 80041fa:	4611      	mov	r1, r2
    __HAL_RCC_USB_CLK_ENABLE();
 80041fc:	9b01      	ldr	r3, [sp, #4]
    HAL_NVIC_SetPriority(USB_IRQn, 0, 0);
 80041fe:	f7fc f9ad 	bl	800055c <HAL_NVIC_SetPriority>
    HAL_NVIC_EnableIRQ(USB_IRQn);
 8004202:	2043      	movs	r0, #67	; 0x43
 8004204:	f7fc f9de 	bl	80005c4 <HAL_NVIC_EnableIRQ>
  /* USER CODE BEGIN USB_MspInit 1 */

  /* USER CODE END USB_MspInit 1 */
  }
}
 8004208:	b003      	add	sp, #12
 800420a:	f85d fb04 	ldr.w	pc, [sp], #4
 800420e:	bf00      	nop
 8004210:	40006800 	.word	0x40006800

08004214 <HAL_PCD_SetupStageCallback>:
  * @param  hpcd: PCD handle
  * @retval None
  */
void HAL_PCD_SetupStageCallback(PCD_HandleTypeDef *hpcd)
{
  USBD_LL_SetupStage((USBD_HandleTypeDef*)hpcd->pData, (uint8_t *)hpcd->Setup);
 8004214:	f500 717c 	add.w	r1, r0, #1008	; 0x3f0
 8004218:	f8d0 0430 	ldr.w	r0, [r0, #1072]	; 0x430
 800421c:	f7ff b99d 	b.w	800355a <USBD_LL_SetupStage>

08004220 <HAL_PCD_DataOutStageCallback>:
  * @param  epnum: Endpoint number
  * @retval None
  */
void HAL_PCD_DataOutStageCallback(PCD_HandleTypeDef *hpcd, uint8_t epnum)
{
  USBD_LL_DataOutStage((USBD_HandleTypeDef*)hpcd->pData, epnum, hpcd->OUT_ep[epnum].xfer_buff);
 8004220:	eb00 1341 	add.w	r3, r0, r1, lsl #5
 8004224:	f8d0 0430 	ldr.w	r0, [r0, #1072]	; 0x430
 8004228:	f8d3 2220 	ldr.w	r2, [r3, #544]	; 0x220
 800422c:	f7ff b9c2 	b.w	80035b4 <USBD_LL_DataOutStage>

08004230 <HAL_PCD_DataInStageCallback>:
  * @param  epnum: Endpoint number
  * @retval None
  */
void HAL_PCD_DataInStageCallback(PCD_HandleTypeDef *hpcd, uint8_t epnum)
{
  USBD_LL_DataInStage((USBD_HandleTypeDef*)hpcd->pData, epnum, hpcd->IN_ep[epnum].xfer_buff);
 8004230:	eb00 1341 	add.w	r3, r0, r1, lsl #5
 8004234:	f8d0 0430 	ldr.w	r0, [r0, #1072]	; 0x430
 8004238:	6c1a      	ldr	r2, [r3, #64]	; 0x40
 800423a:	f7ff b9ed 	b.w	8003618 <USBD_LL_DataInStage>

0800423e <HAL_PCD_SOFCallback>:
  * @param  hpcd: PCD handle
  * @retval None
  */
void HAL_PCD_SOFCallback(PCD_HandleTypeDef *hpcd)
{
  USBD_LL_SOF((USBD_HandleTypeDef*)hpcd->pData);
 800423e:	f8d0 0430 	ldr.w	r0, [r0, #1072]	; 0x430
 8004242:	f7ff ba69 	b.w	8003718 <USBD_LL_SOF>

08004246 <HAL_PCD_ResetCallback>:
  * @brief  Reset callback.
  * @param  hpcd: PCD handle
  * @retval None
  */
void HAL_PCD_ResetCallback(PCD_HandleTypeDef *hpcd)
{ 
 8004246:	b510      	push	{r4, lr}
 8004248:	4604      	mov	r4, r0
	
  default:
    speed = USBD_SPEED_FULL;
    break;    
  }
  USBD_LL_SetSpeed((USBD_HandleTypeDef*)hpcd->pData, speed);
 800424a:	2101      	movs	r1, #1
 800424c:	f8d0 0430 	ldr.w	r0, [r0, #1072]	; 0x430
 8004250:	f7ff fa50 	bl	80036f4 <USBD_LL_SetSpeed>
  
  /* Reset Device. */
  USBD_LL_Reset((USBD_HandleTypeDef*)hpcd->pData);
 8004254:	f8d4 0430 	ldr.w	r0, [r4, #1072]	; 0x430
}
 8004258:	e8bd 4010 	ldmia.w	sp!, {r4, lr}
  USBD_LL_Reset((USBD_HandleTypeDef*)hpcd->pData);
 800425c:	f7ff ba2b 	b.w	80036b6 <USBD_LL_Reset>

08004260 <HAL_PCD_SuspendCallback>:
  * When Low power mode is enabled the debug cannot be used (IAR, Keil doesn't support it)
  * @param  hpcd: PCD handle
  * @retval None
  */
void HAL_PCD_SuspendCallback(PCD_HandleTypeDef *hpcd)
{
 8004260:	b510      	push	{r4, lr}
 8004262:	4604      	mov	r4, r0
  /* Inform USB library that core enters in suspend Mode. */
  USBD_LL_Suspend((USBD_HandleTypeDef*)hpcd->pData);
 8004264:	f8d0 0430 	ldr.w	r0, [r0, #1072]	; 0x430
 8004268:	f7ff fa47 	bl	80036fa <USBD_LL_Suspend>
  /* Enter in STOP mode. */
  /* USER CODE BEGIN 2 */
  if (hpcd->Init.low_power_enable)
 800426c:	69e3      	ldr	r3, [r4, #28]
 800426e:	b123      	cbz	r3, 800427a <HAL_PCD_SuspendCallback+0x1a>
  {
    /* Set SLEEPDEEP bit and SleepOnExit of Cortex System Control Register. */
    SCB->SCR |= (uint32_t)((uint32_t)(SCB_SCR_SLEEPDEEP_Msk | SCB_SCR_SLEEPONEXIT_Msk));
 8004270:	4a02      	ldr	r2, [pc, #8]	; (800427c <HAL_PCD_SuspendCallback+0x1c>)
 8004272:	6913      	ldr	r3, [r2, #16]
 8004274:	f043 0306 	orr.w	r3, r3, #6
 8004278:	6113      	str	r3, [r2, #16]
 800427a:	bd10      	pop	{r4, pc}
 800427c:	e000ed00 	.word	0xe000ed00

08004280 <HAL_PCD_ResumeCallback>:
  */
void HAL_PCD_ResumeCallback(PCD_HandleTypeDef *hpcd)
{

  /* USER CODE BEGIN 3 */
  if (hpcd->Init.low_power_enable)
 8004280:	69c3      	ldr	r3, [r0, #28]
{
 8004282:	b510      	push	{r4, lr}
 8004284:	4604      	mov	r4, r0
  if (hpcd->Init.low_power_enable)
 8004286:	b133      	cbz	r3, 8004296 <HAL_PCD_ResumeCallback+0x16>
  {
    /* Reset SLEEPDEEP bit of Cortex System Control Register. */
    SCB->SCR &= (uint32_t)~((uint32_t)(SCB_SCR_SLEEPDEEP_Msk | SCB_SCR_SLEEPONEXIT_Msk));
 8004288:	4a06      	ldr	r2, [pc, #24]	; (80042a4 <HAL_PCD_ResumeCallback+0x24>)
 800428a:	6913      	ldr	r3, [r2, #16]
 800428c:	f023 0306 	bic.w	r3, r3, #6
 8004290:	6113      	str	r3, [r2, #16]
  *         enable HSI, PLL and select PLL as system clock source.
  * @retval None
  */
static void SystemClockConfig_Resume(void)
{
  SystemClock_Config();
 8004292:	f7ff fccb 	bl	8003c2c <SystemClock_Config>
  USBD_LL_Resume((USBD_HandleTypeDef*)hpcd->pData);
 8004296:	f8d4 0430 	ldr.w	r0, [r4, #1072]	; 0x430
}
 800429a:	e8bd 4010 	ldmia.w	sp!, {r4, lr}
  USBD_LL_Resume((USBD_HandleTypeDef*)hpcd->pData);
 800429e:	f7ff ba35 	b.w	800370c <USBD_LL_Resume>
 80042a2:	bf00      	nop
 80042a4:	e000ed00 	.word	0xe000ed00

080042a8 <USBD_LL_Init>:
{
 80042a8:	b538      	push	{r3, r4, r5, lr}
 80042aa:	4604      	mov	r4, r0
  HAL_PWREx_EnableVddUSB();
 80042ac:	f7fd f850 	bl	8001350 <HAL_PWREx_EnableVddUSB>
  hpcd_USB_FS.pData = pdev;
 80042b0:	4822      	ldr	r0, [pc, #136]	; (800433c <USBD_LL_Init+0x94>)
  hpcd_USB_FS.Init.dev_endpoints = 8;
 80042b2:	4b23      	ldr	r3, [pc, #140]	; (8004340 <USBD_LL_Init+0x98>)
  hpcd_USB_FS.pData = pdev;
 80042b4:	f8c0 4430 	str.w	r4, [r0, #1072]	; 0x430
  hpcd_USB_FS.Init.dev_endpoints = 8;
 80042b8:	2508      	movs	r5, #8
  hpcd_USB_FS.Init.speed = PCD_SPEED_FULL;
 80042ba:	2201      	movs	r2, #1
  hpcd_USB_FS.Init.dev_endpoints = 8;
 80042bc:	e880 0028 	stmia.w	r0, {r3, r5}
  pdev->pData = &hpcd_USB_FS;
 80042c0:	f8c4 0220 	str.w	r0, [r4, #544]	; 0x220
  hpcd_USB_FS.Init.ep0_mps = DEP0CTL_MPS_64;
 80042c4:	2300      	movs	r3, #0
  hpcd_USB_FS.Init.speed = PCD_SPEED_FULL;
 80042c6:	6082      	str	r2, [r0, #8]
  hpcd_USB_FS.Init.ep0_mps = DEP0CTL_MPS_64;
 80042c8:	6103      	str	r3, [r0, #16]
  hpcd_USB_FS.Init.phy_itface = PCD_PHY_EMBEDDED;
 80042ca:	6142      	str	r2, [r0, #20]
  hpcd_USB_FS.Init.Sof_enable = DISABLE;
 80042cc:	6183      	str	r3, [r0, #24]
  hpcd_USB_FS.Init.low_power_enable = DISABLE;
 80042ce:	61c3      	str	r3, [r0, #28]
  hpcd_USB_FS.Init.lpm_enable = DISABLE;
 80042d0:	6203      	str	r3, [r0, #32]
  hpcd_USB_FS.Init.battery_charging_enable = DISABLE;
 80042d2:	6243      	str	r3, [r0, #36]	; 0x24
  if (HAL_PCD_Init(&hpcd_USB_FS) != HAL_OK)
 80042d4:	f7fc fb83 	bl	80009de <HAL_PCD_Init>
 80042d8:	b120      	cbz	r0, 80042e4 <USBD_LL_Init+0x3c>
    _Error_Handler(__FILE__, __LINE__);
 80042da:	f240 113f 	movw	r1, #319	; 0x13f
 80042de:	4819      	ldr	r0, [pc, #100]	; (8004344 <USBD_LL_Init+0x9c>)
 80042e0:	f7ff fdee 	bl	8003ec0 <_Error_Handler>
  HAL_PCDEx_PMAConfig((PCD_HandleTypeDef*)pdev->pData , 0x00 , PCD_SNG_BUF, 0x18);
 80042e4:	2200      	movs	r2, #0
 80042e6:	4611      	mov	r1, r2
 80042e8:	2318      	movs	r3, #24
 80042ea:	f8d4 0220 	ldr.w	r0, [r4, #544]	; 0x220
 80042ee:	f7fc ffb0 	bl	8001252 <HAL_PCDEx_PMAConfig>
  HAL_PCDEx_PMAConfig((PCD_HandleTypeDef*)pdev->pData , 0x80 , PCD_SNG_BUF, 0x58);
 80042f2:	2358      	movs	r3, #88	; 0x58
 80042f4:	2200      	movs	r2, #0
 80042f6:	2180      	movs	r1, #128	; 0x80
 80042f8:	f8d4 0220 	ldr.w	r0, [r4, #544]	; 0x220
 80042fc:	f7fc ffa9 	bl	8001252 <HAL_PCDEx_PMAConfig>
if(configFlag==1){
 8004300:	4b11      	ldr	r3, [pc, #68]	; (8004348 <USBD_LL_Init+0xa0>)
 8004302:	f993 5000 	ldrsb.w	r5, [r3]
 8004306:	2d01      	cmp	r5, #1
 8004308:	d10e      	bne.n	8004328 <USBD_LL_Init+0x80>
  HAL_PCDEx_PMAConfig((PCD_HandleTypeDef*)pdev->pData , 0x81 , PCD_SNG_BUF, 0xC0);
 800430a:	23c0      	movs	r3, #192	; 0xc0
 800430c:	2200      	movs	r2, #0
 800430e:	2181      	movs	r1, #129	; 0x81
 8004310:	f8d4 0220 	ldr.w	r0, [r4, #544]	; 0x220
 8004314:	f7fc ff9d 	bl	8001252 <HAL_PCDEx_PMAConfig>
  HAL_PCDEx_PMAConfig((PCD_HandleTypeDef*)pdev->pData , 0x01 , PCD_SNG_BUF, 0x110);
 8004318:	f44f 7388 	mov.w	r3, #272	; 0x110
 800431c:	2200      	movs	r2, #0
 800431e:	4629      	mov	r1, r5
 8004320:	f8d4 0220 	ldr.w	r0, [r4, #544]	; 0x220
 8004324:	f7fc ff95 	bl	8001252 <HAL_PCDEx_PMAConfig>
  HAL_PCDEx_PMAConfig((PCD_HandleTypeDef*)pdev->pData , 0x81 , PCD_SNG_BUF, 0x100);
 8004328:	f44f 7380 	mov.w	r3, #256	; 0x100
 800432c:	2200      	movs	r2, #0
 800432e:	2181      	movs	r1, #129	; 0x81
 8004330:	f8d4 0220 	ldr.w	r0, [r4, #544]	; 0x220
 8004334:	f7fc ff8d 	bl	8001252 <HAL_PCDEx_PMAConfig>
}
 8004338:	2000      	movs	r0, #0
 800433a:	bd38      	pop	{r3, r4, r5, pc}
 800433c:	20001624 	.word	0x20001624
 8004340:	40006800 	.word	0x40006800
 8004344:	08004704 	.word	0x08004704
 8004348:	20000dd8 	.word	0x20000dd8

0800434c <USBD_LL_Start>:
{
 800434c:	b508      	push	{r3, lr}
  hal_status = HAL_PCD_Start(pdev->pData);
 800434e:	f8d0 0220 	ldr.w	r0, [r0, #544]	; 0x220
 8004352:	f7fc fbc4 	bl	8000ade <HAL_PCD_Start>
 8004356:	2803      	cmp	r0, #3
 8004358:	bf9a      	itte	ls
 800435a:	4b02      	ldrls	r3, [pc, #8]	; (8004364 <USBD_LL_Start+0x18>)
 800435c:	5c18      	ldrbls	r0, [r3, r0]
 800435e:	2002      	movhi	r0, #2
}
 8004360:	bd08      	pop	{r3, pc}
 8004362:	bf00      	nop
 8004364:	08004700 	.word	0x08004700

08004368 <USBD_LL_OpenEP>:
{
 8004368:	b510      	push	{r4, lr}
 800436a:	461c      	mov	r4, r3
  hal_status = HAL_PCD_EP_Open(pdev->pData, ep_addr, ep_mps, ep_type);
 800436c:	f8d0 0220 	ldr.w	r0, [r0, #544]	; 0x220
 8004370:	4613      	mov	r3, r2
 8004372:	4622      	mov	r2, r4
 8004374:	f7fc fbdc 	bl	8000b30 <HAL_PCD_EP_Open>
 8004378:	2803      	cmp	r0, #3
 800437a:	bf9a      	itte	ls
 800437c:	4b01      	ldrls	r3, [pc, #4]	; (8004384 <USBD_LL_OpenEP+0x1c>)
 800437e:	5c18      	ldrbls	r0, [r3, r0]
 8004380:	2002      	movhi	r0, #2
}
 8004382:	bd10      	pop	{r4, pc}
 8004384:	08004700 	.word	0x08004700

08004388 <USBD_LL_CloseEP>:
{
 8004388:	b508      	push	{r3, lr}
  hal_status = HAL_PCD_EP_Close(pdev->pData, ep_addr);
 800438a:	f8d0 0220 	ldr.w	r0, [r0, #544]	; 0x220
 800438e:	f7fc fbf4 	bl	8000b7a <HAL_PCD_EP_Close>
 8004392:	2803      	cmp	r0, #3
 8004394:	bf9a      	itte	ls
 8004396:	4b02      	ldrls	r3, [pc, #8]	; (80043a0 <USBD_LL_CloseEP+0x18>)
 8004398:	5c18      	ldrbls	r0, [r3, r0]
 800439a:	2002      	movhi	r0, #2
}
 800439c:	bd08      	pop	{r3, pc}
 800439e:	bf00      	nop
 80043a0:	08004700 	.word	0x08004700

080043a4 <USBD_LL_StallEP>:
{
 80043a4:	b508      	push	{r3, lr}
  hal_status = HAL_PCD_EP_SetStall(pdev->pData, ep_addr);
 80043a6:	f8d0 0220 	ldr.w	r0, [r0, #544]	; 0x220
 80043aa:	f7fc ff01 	bl	80011b0 <HAL_PCD_EP_SetStall>
 80043ae:	2803      	cmp	r0, #3
 80043b0:	bf9a      	itte	ls
 80043b2:	4b02      	ldrls	r3, [pc, #8]	; (80043bc <USBD_LL_StallEP+0x18>)
 80043b4:	5c18      	ldrbls	r0, [r3, r0]
 80043b6:	2002      	movhi	r0, #2
}
 80043b8:	bd08      	pop	{r3, pc}
 80043ba:	bf00      	nop
 80043bc:	08004700 	.word	0x08004700

080043c0 <USBD_LL_ClearStallEP>:
{
 80043c0:	b508      	push	{r3, lr}
  hal_status = HAL_PCD_EP_ClrStall(pdev->pData, ep_addr);  
 80043c2:	f8d0 0220 	ldr.w	r0, [r0, #544]	; 0x220
 80043c6:	f7fc ff1f 	bl	8001208 <HAL_PCD_EP_ClrStall>
 80043ca:	2803      	cmp	r0, #3
 80043cc:	bf9a      	itte	ls
 80043ce:	4b02      	ldrls	r3, [pc, #8]	; (80043d8 <USBD_LL_ClearStallEP+0x18>)
 80043d0:	5c18      	ldrbls	r0, [r3, r0]
 80043d2:	2002      	movhi	r0, #2
}
 80043d4:	bd08      	pop	{r3, pc}
 80043d6:	bf00      	nop
 80043d8:	08004700 	.word	0x08004700

080043dc <USBD_LL_IsStallEP>:
  if((ep_addr & 0x80) == 0x80)
 80043dc:	060a      	lsls	r2, r1, #24
  PCD_HandleTypeDef *hpcd = (PCD_HandleTypeDef*) pdev->pData;
 80043de:	f8d0 3220 	ldr.w	r3, [r0, #544]	; 0x220
    return hpcd->IN_ep[ep_addr & 0x7F].is_stall; 
 80043e2:	bf45      	ittet	mi
 80043e4:	f001 017f 	andmi.w	r1, r1, #127	; 0x7f
 80043e8:	eb03 1341 	addmi.w	r3, r3, r1, lsl #5
    return hpcd->OUT_ep[ep_addr & 0x7F].is_stall; 
 80043ec:	eb03 1341 	addpl.w	r3, r3, r1, lsl #5
    return hpcd->IN_ep[ep_addr & 0x7F].is_stall; 
 80043f0:	f893 002e 	ldrbmi.w	r0, [r3, #46]	; 0x2e
    return hpcd->OUT_ep[ep_addr & 0x7F].is_stall; 
 80043f4:	bf58      	it	pl
 80043f6:	f893 020e 	ldrbpl.w	r0, [r3, #526]	; 0x20e
}
 80043fa:	4770      	bx	lr

080043fc <USBD_LL_SetUSBAddress>:
{
 80043fc:	b508      	push	{r3, lr}
  hal_status = HAL_PCD_SetAddress(pdev->pData, dev_addr);
 80043fe:	f8d0 0220 	ldr.w	r0, [r0, #544]	; 0x220
 8004402:	f7fc fb81 	bl	8000b08 <HAL_PCD_SetAddress>
 8004406:	2803      	cmp	r0, #3
 8004408:	bf9a      	itte	ls
 800440a:	4b02      	ldrls	r3, [pc, #8]	; (8004414 <USBD_LL_SetUSBAddress+0x18>)
 800440c:	5c18      	ldrbls	r0, [r3, r0]
 800440e:	2002      	movhi	r0, #2
}
 8004410:	bd08      	pop	{r3, pc}
 8004412:	bf00      	nop
 8004414:	08004700 	.word	0x08004700

08004418 <USBD_LL_Transmit>:
{
 8004418:	b508      	push	{r3, lr}
  hal_status = HAL_PCD_EP_Transmit(pdev->pData, ep_addr, pbuf, size);
 800441a:	f8d0 0220 	ldr.w	r0, [r0, #544]	; 0x220
 800441e:	f7fc fbf0 	bl	8000c02 <HAL_PCD_EP_Transmit>
 8004422:	2803      	cmp	r0, #3
 8004424:	bf9a      	itte	ls
 8004426:	4b02      	ldrls	r3, [pc, #8]	; (8004430 <USBD_LL_Transmit+0x18>)
 8004428:	5c18      	ldrbls	r0, [r3, r0]
 800442a:	2002      	movhi	r0, #2
}
 800442c:	bd08      	pop	{r3, pc}
 800442e:	bf00      	nop
 8004430:	08004700 	.word	0x08004700

08004434 <USBD_LL_PrepareReceive>:
{
 8004434:	b508      	push	{r3, lr}
  hal_status = HAL_PCD_EP_Receive(pdev->pData, ep_addr, pbuf, size);
 8004436:	f8d0 0220 	ldr.w	r0, [r0, #544]	; 0x220
 800443a:	f7fc fbc1 	bl	8000bc0 <HAL_PCD_EP_Receive>
 800443e:	2803      	cmp	r0, #3
 8004440:	bf9a      	itte	ls
 8004442:	4b02      	ldrls	r3, [pc, #8]	; (800444c <USBD_LL_PrepareReceive+0x18>)
 8004444:	5c18      	ldrbls	r0, [r3, r0]
 8004446:	2002      	movhi	r0, #2
}
 8004448:	bd08      	pop	{r3, pc}
 800444a:	bf00      	nop
 800444c:	08004700 	.word	0x08004700

08004450 <USBD_LL_GetRxDataSize>:
{
 8004450:	b508      	push	{r3, lr}
  return HAL_PCD_EP_GetRxCount((PCD_HandleTypeDef*) pdev->pData, ep_addr);
 8004452:	f8d0 0220 	ldr.w	r0, [r0, #544]	; 0x220
 8004456:	f7fc fbcd 	bl	8000bf4 <HAL_PCD_EP_GetRxCount>
}
 800445a:	bd08      	pop	{r3, pc}

0800445c <HAL_PCDEx_LPM_Callback>:
{
 800445c:	b510      	push	{r4, lr}
 800445e:	4604      	mov	r4, r0
  switch (msg)
 8004460:	b111      	cbz	r1, 8004468 <HAL_PCDEx_LPM_Callback+0xc>
 8004462:	2901      	cmp	r1, #1
 8004464:	d00f      	beq.n	8004486 <HAL_PCDEx_LPM_Callback+0x2a>
 8004466:	bd10      	pop	{r4, pc}
    if (hpcd->Init.low_power_enable)
 8004468:	69c3      	ldr	r3, [r0, #28]
 800446a:	b133      	cbz	r3, 800447a <HAL_PCDEx_LPM_Callback+0x1e>
      SystemClock_Config();
 800446c:	f7ff fbde 	bl	8003c2c <SystemClock_Config>
      SCB->SCR &= (uint32_t)~((uint32_t)(SCB_SCR_SLEEPDEEP_Msk | SCB_SCR_SLEEPONEXIT_Msk));
 8004470:	4a0b      	ldr	r2, [pc, #44]	; (80044a0 <HAL_PCDEx_LPM_Callback+0x44>)
 8004472:	6913      	ldr	r3, [r2, #16]
 8004474:	f023 0306 	bic.w	r3, r3, #6
 8004478:	6113      	str	r3, [r2, #16]
    USBD_LL_Resume(hpcd->pData);
 800447a:	f8d4 0430 	ldr.w	r0, [r4, #1072]	; 0x430
}
 800447e:	e8bd 4010 	ldmia.w	sp!, {r4, lr}
    USBD_LL_Resume(hpcd->pData);
 8004482:	f7ff b943 	b.w	800370c <USBD_LL_Resume>
    USBD_LL_Suspend(hpcd->pData);
 8004486:	f8d0 0430 	ldr.w	r0, [r0, #1072]	; 0x430
 800448a:	f7ff f936 	bl	80036fa <USBD_LL_Suspend>
    if (hpcd->Init.low_power_enable)
 800448e:	69e3      	ldr	r3, [r4, #28]
 8004490:	b123      	cbz	r3, 800449c <HAL_PCDEx_LPM_Callback+0x40>
      SCB->SCR |= (uint32_t)((uint32_t)(SCB_SCR_SLEEPDEEP_Msk | SCB_SCR_SLEEPONEXIT_Msk));
 8004492:	4a03      	ldr	r2, [pc, #12]	; (80044a0 <HAL_PCDEx_LPM_Callback+0x44>)
 8004494:	6913      	ldr	r3, [r2, #16]
 8004496:	f043 0306 	orr.w	r3, r3, #6
 800449a:	6113      	str	r3, [r2, #16]
 800449c:	bd10      	pop	{r4, pc}
 800449e:	bf00      	nop
 80044a0:	e000ed00 	.word	0xe000ed00

080044a4 <USBD_static_malloc>:
	if(configFlag==1){
 80044a4:	4b04      	ldr	r3, [pc, #16]	; (80044b8 <USBD_static_malloc+0x14>)
}
 80044a6:	4a05      	ldr	r2, [pc, #20]	; (80044bc <USBD_static_malloc+0x18>)
	if(configFlag==1){
 80044a8:	f993 0000 	ldrsb.w	r0, [r3]
}
 80044ac:	4b04      	ldr	r3, [pc, #16]	; (80044c0 <USBD_static_malloc+0x1c>)
 80044ae:	2801      	cmp	r0, #1
 80044b0:	bf0c      	ite	eq
 80044b2:	4610      	moveq	r0, r2
 80044b4:	4618      	movne	r0, r3
 80044b6:	4770      	bx	lr
 80044b8:	20000dd8 	.word	0x20000dd8
 80044bc:	20000678 	.word	0x20000678
 80044c0:	20000898 	.word	0x20000898

080044c4 <USBD_static_free>:
{
 80044c4:	4770      	bx	lr

080044c6 <USBD_LL_BatteryCharging>:
  * @retval USBD status
  */
USBD_StatusTypeDef USBD_LL_BatteryCharging(USBD_HandleTypeDef *pdev)
{
  PCD_HandleTypeDef *hpcd = (PCD_HandleTypeDef*)pdev->pData;
  if (hpcd->Init.battery_charging_enable == ENABLE)
 80044c6:	f8d0 3220 	ldr.w	r3, [r0, #544]	; 0x220
 80044ca:	6a5b      	ldr	r3, [r3, #36]	; 0x24
 80044cc:	2b01      	cmp	r3, #1
  }
  else
  {
    return USBD_FAIL;
  }
}
 80044ce:	bf14      	ite	ne
 80044d0:	2002      	movne	r0, #2
 80044d2:	2000      	moveq	r0, #0
 80044d4:	4770      	bx	lr
	...

080044d8 <USBD_FS_DeviceDescriptor>:
  * @param  length : Pointer to data length variable
  * @retval Pointer to descriptor buffer
  */
uint8_t * USBD_FS_DeviceDescriptor(USBD_SpeedTypeDef speed, uint16_t *length)
{
  *length = sizeof(USBD_FS_DeviceDesc);
 80044d8:	2312      	movs	r3, #18
 80044da:	800b      	strh	r3, [r1, #0]
  return USBD_FS_DeviceDesc;
}
 80044dc:	4800      	ldr	r0, [pc, #0]	; (80044e0 <USBD_FS_DeviceDescriptor+0x8>)
 80044de:	4770      	bx	lr
 80044e0:	20000238 	.word	0x20000238

080044e4 <USBD_FS_LangIDStrDescriptor>:
  * @param  length : Pointer to data length variable
  * @retval Pointer to descriptor buffer
  */
uint8_t * USBD_FS_LangIDStrDescriptor(USBD_SpeedTypeDef speed, uint16_t *length)
{
  *length = sizeof(USBD_LangIDDesc);
 80044e4:	2304      	movs	r3, #4
 80044e6:	800b      	strh	r3, [r1, #0]
  return USBD_LangIDDesc;
}
 80044e8:	4800      	ldr	r0, [pc, #0]	; (80044ec <USBD_FS_LangIDStrDescriptor+0x8>)
 80044ea:	4770      	bx	lr
 80044ec:	2000024c 	.word	0x2000024c

080044f0 <USBD_FS_USR_BOSDescriptor>:
  * @param  length : Pointer to data length variable
  * @retval Pointer to descriptor buffer
  */
uint8_t * USBD_FS_USR_BOSDescriptor(USBD_SpeedTypeDef speed, uint16_t *length)
{
  *length = sizeof(USBD_FS_BOSDesc);
 80044f0:	230c      	movs	r3, #12
 80044f2:	800b      	strh	r3, [r1, #0]
  return (uint8_t*)USBD_FS_BOSDesc;
}
 80044f4:	4800      	ldr	r0, [pc, #0]	; (80044f8 <USBD_FS_USR_BOSDescriptor+0x8>)
 80044f6:	4770      	bx	lr
 80044f8:	2000022c 	.word	0x2000022c

080044fc <USBD_FS_ManufacturerStrDescriptor>:
{
 80044fc:	b510      	push	{r4, lr}
  USBD_GetString((uint8_t *)USBD_MANUFACTURER_STRING, USBD_StrDesc, length);
 80044fe:	4c04      	ldr	r4, [pc, #16]	; (8004510 <USBD_FS_ManufacturerStrDescriptor+0x14>)
 8004500:	4804      	ldr	r0, [pc, #16]	; (8004514 <USBD_FS_ManufacturerStrDescriptor+0x18>)
 8004502:	460a      	mov	r2, r1
 8004504:	4621      	mov	r1, r4
 8004506:	f7ff fabb 	bl	8003a80 <USBD_GetString>
}
 800450a:	4620      	mov	r0, r4
 800450c:	bd10      	pop	{r4, pc}
 800450e:	bf00      	nop
 8004510:	20001a58 	.word	0x20001a58
 8004514:	08004730 	.word	0x08004730

08004518 <USBD_FS_ProductStrDescriptor>:
{
 8004518:	b510      	push	{r4, lr}
    USBD_GetString((uint8_t *)USBD_PRODUCT_STRING_FS, USBD_StrDesc, length);
 800451a:	4c04      	ldr	r4, [pc, #16]	; (800452c <USBD_FS_ProductStrDescriptor+0x14>)
 800451c:	4804      	ldr	r0, [pc, #16]	; (8004530 <USBD_FS_ProductStrDescriptor+0x18>)
 800451e:	460a      	mov	r2, r1
 8004520:	4621      	mov	r1, r4
 8004522:	f7ff faad 	bl	8003a80 <USBD_GetString>
}
 8004526:	4620      	mov	r0, r4
 8004528:	bd10      	pop	{r4, pc}
 800452a:	bf00      	nop
 800452c:	20001a58 	.word	0x20001a58
 8004530:	08004735 	.word	0x08004735

08004534 <USBD_FS_SerialStrDescriptor>:
{
 8004534:	b510      	push	{r4, lr}
    USBD_GetString((uint8_t *)USBD_SERIALNUMBER_STRING_FS, USBD_StrDesc, length);
 8004536:	4c04      	ldr	r4, [pc, #16]	; (8004548 <USBD_FS_SerialStrDescriptor+0x14>)
 8004538:	4804      	ldr	r0, [pc, #16]	; (800454c <USBD_FS_SerialStrDescriptor+0x18>)
 800453a:	460a      	mov	r2, r1
 800453c:	4621      	mov	r1, r4
 800453e:	f7ff fa9f 	bl	8003a80 <USBD_GetString>
}
 8004542:	4620      	mov	r0, r4
 8004544:	bd10      	pop	{r4, pc}
 8004546:	bf00      	nop
 8004548:	20001a58 	.word	0x20001a58
 800454c:	0800468f 	.word	0x0800468f

08004550 <USBD_FS_ConfigStrDescriptor>:
{
 8004550:	b510      	push	{r4, lr}
    USBD_GetString((uint8_t *)USBD_CONFIGURATION_STRING_FS, USBD_StrDesc, length);
 8004552:	4c04      	ldr	r4, [pc, #16]	; (8004564 <USBD_FS_ConfigStrDescriptor+0x14>)
 8004554:	4804      	ldr	r0, [pc, #16]	; (8004568 <USBD_FS_ConfigStrDescriptor+0x18>)
 8004556:	460a      	mov	r2, r1
 8004558:	4621      	mov	r1, r4
 800455a:	f7ff fa91 	bl	8003a80 <USBD_GetString>
}
 800455e:	4620      	mov	r0, r4
 8004560:	bd10      	pop	{r4, pc}
 8004562:	bf00      	nop
 8004564:	20001a58 	.word	0x20001a58
 8004568:	08004717 	.word	0x08004717

0800456c <USBD_FS_InterfaceStrDescriptor>:
{
 800456c:	b510      	push	{r4, lr}
    USBD_GetString((uint8_t *)USBD_INTERFACE_STRING_FS, USBD_StrDesc, length);
 800456e:	4c04      	ldr	r4, [pc, #16]	; (8004580 <USBD_FS_InterfaceStrDescriptor+0x14>)
 8004570:	4804      	ldr	r0, [pc, #16]	; (8004584 <USBD_FS_InterfaceStrDescriptor+0x18>)
 8004572:	460a      	mov	r2, r1
 8004574:	4621      	mov	r1, r4
 8004576:	f7ff fa83 	bl	8003a80 <USBD_GetString>
}
 800457a:	4620      	mov	r0, r4
 800457c:	bd10      	pop	{r4, pc}
 800457e:	bf00      	nop
 8004580:	20001a58 	.word	0x20001a58
 8004584:	08004722 	.word	0x08004722

08004588 <Reset_Handler>:

    .section	.text.Reset_Handler
	.weak	Reset_Handler
	.type	Reset_Handler, %function
Reset_Handler:
  ldr   sp, =_estack    /* Atollic update: set stack pointer */
 8004588:	f8df d034 	ldr.w	sp, [pc, #52]	; 80045c0 <LoopForever+0x2>

/* Copy the data segment initializers from flash to SRAM */
  movs	r1, #0
 800458c:	2100      	movs	r1, #0
  b	LoopCopyDataInit
 800458e:	e003      	b.n	8004598 <LoopCopyDataInit>

08004590 <CopyDataInit>:

CopyDataInit:
	ldr	r3, =_sidata
 8004590:	4b0c      	ldr	r3, [pc, #48]	; (80045c4 <LoopForever+0x6>)
	ldr	r3, [r3, r1]
 8004592:	585b      	ldr	r3, [r3, r1]
	str	r3, [r0, r1]
 8004594:	5043      	str	r3, [r0, r1]
	adds	r1, r1, #4
 8004596:	3104      	adds	r1, #4

08004598 <LoopCopyDataInit>:

LoopCopyDataInit:
	ldr	r0, =_sdata
 8004598:	480b      	ldr	r0, [pc, #44]	; (80045c8 <LoopForever+0xa>)
	ldr	r3, =_edata
 800459a:	4b0c      	ldr	r3, [pc, #48]	; (80045cc <LoopForever+0xe>)
	adds	r2, r0, r1
 800459c:	1842      	adds	r2, r0, r1
	cmp	r2, r3
 800459e:	429a      	cmp	r2, r3
	bcc	CopyDataInit
 80045a0:	d3f6      	bcc.n	8004590 <CopyDataInit>
	ldr	r2, =_sbss
 80045a2:	4a0b      	ldr	r2, [pc, #44]	; (80045d0 <LoopForever+0x12>)
	b	LoopFillZerobss
 80045a4:	e002      	b.n	80045ac <LoopFillZerobss>

080045a6 <FillZerobss>:
/* Zero fill the bss segment. */
FillZerobss:
	movs	r3, #0
 80045a6:	2300      	movs	r3, #0
	str	r3, [r2], #4
 80045a8:	f842 3b04 	str.w	r3, [r2], #4

080045ac <LoopFillZerobss>:

LoopFillZerobss:
	ldr	r3, = _ebss
 80045ac:	4b09      	ldr	r3, [pc, #36]	; (80045d4 <LoopForever+0x16>)
	cmp	r2, r3
 80045ae:	429a      	cmp	r2, r3
	bcc	FillZerobss
 80045b0:	d3f9      	bcc.n	80045a6 <FillZerobss>

/* Call the clock system intitialization function.*/
    bl  SystemInit
 80045b2:	f7ff fd8b 	bl	80040cc <SystemInit>
/* Call static constructors */
    bl __libc_init_array
 80045b6:	f000 f811 	bl	80045dc <__libc_init_array>
/* Call the application's entry point.*/
	bl	main
 80045ba:	f7ff fb8f 	bl	8003cdc <main>

080045be <LoopForever>:

LoopForever:
    b LoopForever
 80045be:	e7fe      	b.n	80045be <LoopForever>
  ldr   sp, =_estack    /* Atollic update: set stack pointer */
 80045c0:	20010000 	.word	0x20010000
	ldr	r3, =_sidata
 80045c4:	08004758 	.word	0x08004758
	ldr	r0, =_sdata
 80045c8:	20000000 	.word	0x20000000
	ldr	r3, =_edata
 80045cc:	20000250 	.word	0x20000250
	ldr	r2, =_sbss
 80045d0:	20000250 	.word	0x20000250
	ldr	r3, = _ebss
 80045d4:	20001c58 	.word	0x20001c58

080045d8 <ADC1_IRQHandler>:
 * @retval : None
*/
    .section	.text.Default_Handler,"ax",%progbits
Default_Handler:
Infinite_Loop:
	b	Infinite_Loop
 80045d8:	e7fe      	b.n	80045d8 <ADC1_IRQHandler>
	...

080045dc <__libc_init_array>:
 80045dc:	b570      	push	{r4, r5, r6, lr}
 80045de:	4e0d      	ldr	r6, [pc, #52]	; (8004614 <__libc_init_array+0x38>)
 80045e0:	4c0d      	ldr	r4, [pc, #52]	; (8004618 <__libc_init_array+0x3c>)
 80045e2:	1ba4      	subs	r4, r4, r6
 80045e4:	10a4      	asrs	r4, r4, #2
 80045e6:	2500      	movs	r5, #0
 80045e8:	42a5      	cmp	r5, r4
 80045ea:	d109      	bne.n	8004600 <__libc_init_array+0x24>
 80045ec:	4e0b      	ldr	r6, [pc, #44]	; (800461c <__libc_init_array+0x40>)
 80045ee:	4c0c      	ldr	r4, [pc, #48]	; (8004620 <__libc_init_array+0x44>)
 80045f0:	f000 f818 	bl	8004624 <_init>
 80045f4:	1ba4      	subs	r4, r4, r6
 80045f6:	10a4      	asrs	r4, r4, #2
 80045f8:	2500      	movs	r5, #0
 80045fa:	42a5      	cmp	r5, r4
 80045fc:	d105      	bne.n	800460a <__libc_init_array+0x2e>
 80045fe:	bd70      	pop	{r4, r5, r6, pc}
 8004600:	f856 3025 	ldr.w	r3, [r6, r5, lsl #2]
 8004604:	4798      	blx	r3
 8004606:	3501      	adds	r5, #1
 8004608:	e7ee      	b.n	80045e8 <__libc_init_array+0xc>
 800460a:	f856 3025 	ldr.w	r3, [r6, r5, lsl #2]
 800460e:	4798      	blx	r3
 8004610:	3501      	adds	r5, #1
 8004612:	e7f2      	b.n	80045fa <__libc_init_array+0x1e>
 8004614:	08004750 	.word	0x08004750
 8004618:	08004750 	.word	0x08004750
 800461c:	08004750 	.word	0x08004750
 8004620:	08004754 	.word	0x08004754

08004624 <_init>:
 8004624:	b5f8      	push	{r3, r4, r5, r6, r7, lr}
 8004626:	bf00      	nop
 8004628:	bcf8      	pop	{r3, r4, r5, r6, r7}
 800462a:	bc08      	pop	{r3}
 800462c:	469e      	mov	lr, r3
 800462e:	4770      	bx	lr

08004630 <_fini>:
 8004630:	b5f8      	push	{r3, r4, r5, r6, r7, lr}
 8004632:	bf00      	nop
 8004634:	bcf8      	pop	{r3, r4, r5, r6, r7}
 8004636:	bc08      	pop	{r3}
 8004638:	469e      	mov	lr, r3
 800463a:	4770      	bx	lr
